Certificate:
    Data:
        Version: 3 (0x2)
        Serial Number: 2 (0x2)
        Signature Algorithm: md5WithRSAEncryption
        Issuer: C=CN, ST=Guangdong, L=Shenzhen, O=Huawei, OU=ATP, CN=atp1.com/emailAddress=atp1.huawei.com
        Validity
            Not Before: Jul 17 07:16:27 2009 GMT
            Not After : Jul 15 07:16:27 2019 GMT
        Subject: CN=atp2, ST=Guangdong, C=CN/emailAddress=atp2.c\x08huawei.com, O=Huawei, OU=atp
        Subject Public Key Info:
            Public Key Algorithm: rsaEncryption
            RSA Public Key: (2048 bit)
                Modulus (2048 bit):
                    00:a3:c4:eb:ab:79:d2:69:82:ab:28:33:50:49:21:
                    b4:50:e1:16:0e:15:57:91:b4:57:ec:20:03:68:48:
                    85:57:8a:3b:9e:f1:38:19:d2:ec:9c:cb:59:35:c7:
                    e6:6e:e5:c2:74:00:60:98:40:7a:9d:95:c5:aa:2d:
                    ca:7b:db:f7:b8:09:45:5b:22:0d:58:35:88:3b:30:
                    56:a4:14:be:dc:74:3f:97:1b:3f:a5:6a:1b:68:09:
                    63:d4:f1:7a:c6:12:c7:0e:be:aa:82:ef:88:7e:8d:
                    36:df:68:bf:cc:40:1b:63:31:d1:50:0a:e4:b5:7d:
                    0b:16:6a:e5:dc:77:db:10:5b:ab:09:4c:23:62:a7:
                    19:d2:18:45:78:50:f9:e0:92:3a:d3:24:b3:ec:d7:
                    29:c8:c1:e3:59:71:8c:37:54:97:16:d8:77:6c:27:
                    23:c2:a2:4f:38:87:17:e8:e2:0f:86:cd:4a:7d:80:
                    fe:41:c6:7d:44:73:6d:81:e0:12:ef:fc:d4:1a:33:
                    8f:fb:bd:25:16:8b:e3:3a:93:b8:05:8e:15:e7:9e:
                    fe:37:84:ee:97:1b:10:9a:a1:27:19:70:36:54:ce:
                    84:2d:c2:cb:e5:b3:66:05:80:8d:20:ad:01:d5:5c:
                    77:35:cd:8c:8c:9f:35:fc:a3:02:b4:33:a2:ef:0f:
                    48:31
                Exponent: 65537 (0x10001)
        X509v3 extensions:
            X509v3 Basic Constraints: 
            CA:FALSE
    Signature Algorithm: md5WithRSAEncryption
        90:84:9b:91:35:8d:07:08:3a:db:3b:5f:8c:9f:2f:7e:f2:21:
        80:bb:2c:0e:f7:1d:d2:3f:cf:9a:1c:2b:ee:5a:e3:27:f0:34:
        af:19:b2:8e:e4:a1:93:75:27:15:8e:66:d2:38:1a:91:12:6c:
        23:76:b1:11:06:4b:9a:63:cc:f0:64:2a:63:b6:19:09:58:f6:
        d3:7a:6f:7c:c6:d3:8d:ed:c6:9d:a8:0f:f2:92:be:46:81:a9:
        4a:1b:3a:8c:04:47:00:fa:4c:6a:8c:58:6e:1f:5f:86:33:5e:
        61:ba:4d:6c:9d:0a:81:a9:fd:b8:8d:49:b6:31:4b:0c:b9:e0:
        2a:1b:e7:ab:b0:23:f6:6c:ec:3f:f3:8f:a7:2e:f2:dd:89:2e:
        af:90:37:bb:8d:43:e0:3b:5c:d6:08:b5:22:4c:18:c3:eb:1d:
        38:4d:e5:7c:c5:86:af:9b:dc:f9:96:38:f6:ec:f1:c3:cb:c8:
        3f:1e:4f:9c:53:14:43:44:e8:14:5e:db:2f:a2:ec:e0:3e:77:
        f1:2e:53:d6:39:f5:84:54:b1:e3:19:02:69:56:e4:0f:7a:28:
        7c:98:f4:12:dd:64:b2:9e:27:63:d9:97:3e:95:f8:90:ca:6e:
        2b:d0:db:2f:34:24:8b:e8:3c:cc:c2:5c:d8:e7:1d:c1:25:9b:
        40:06:1b:b0
-----BEGIN CERTIFICATE-----
MIIDgDCCAmigAwIBAgIBAjANBgkqhkiG9w0BAQQFADCBhjELMAkGA1UEBhMCQ04x
EjAQBgNVBAgTCUd1YW5nZG9uZzERMA8GA1UEBxMIU2hlbnpoZW4xDzANBgNVBAoT
Bkh1YXdlaTEMMAoGA1UECxMDQVRQMREwDwYDVQQDEwhhdHAxLmNvbTEeMBwGCSqG
SIb3DQEJARYPYXRwMS5odWF3ZWkuY29tMB4XDTA5MDcxNzA3MTYyN1oXDTE5MDcx
NTA3MTYyN1owcTENMAsGA1UEAxMEYXRwMjESMBAGA1UECBMJR3Vhbmdkb25nMQsw
CQYDVQQGEwJDTjEgMB4GCSqGSIb3DQEJARYRYXRwMi5jCGh1YXdlaS5jb20xDzAN
BgNVBAoTBkh1YXdlaTEMMAoGA1UECxMDYXRwMIIBIjANBgkqhkiG9w0BAQEFAAOC
AQ8AMIIBCgKCAQEAo8Trq3nSaYKrKDNQSSG0UOEWDhVXkbRX7CADaEiFV4o7nvE4
GdLsnMtZNcfmbuXCdABgmEB6nZXFqi3Ke9v3uAlFWyINWDWIOzBWpBS+3HQ/lxs/
pWobaAlj1PF6xhLHDr6qgu+Ifo0232i/zEAbYzHRUArktX0LFmrl3HfbEFurCUwj
YqcZ0hhFeFD54JI60ySz7NcpyMHjWXGMN1SXFth3bCcjwqJPOIcX6OIPhs1KfYD+
QcZ9RHNtgeAS7/zUGjOP+70lFovjOpO4BY4V557+N4TulxsQmqEnGXA2VM6ELcLL
5bNmBYCNIK0B1Vx3Nc2MjJ81/KMCtDOi7w9IMQIDAQABow0wCzAJBgNVHRMEAjAA
MA0GCSqGSIb3DQEBBAUAA4IBAQCQhJuRNY0HCDrbO1+Mny9+8iGAuywO9x3SP8+a
HCvuWuMn8DSvGbKO5KGTdScVjmbSOBqREmwjdrERBkuaY8zwZCpjthkJWPbTem98
xtON7cadqA/ykr5GgalKGzqMBEcA+kxqjFhuH1+GM15huk1snQqBqf24jUm2MUsM
ueAqG+ersCP2bOw/84+nLvLdiS6vkDe7jUPgO1zWCLUiTBjD6x04TeV8xYavm9z5
ljj27PHDy8g/Hk+cUxRDROgUXtsvouzgPnfxLlPWOfWEVLHjGQJpVuQPeih8mPQS
3WSynidj2Zc+lfiQym4r0NsvNCSL6DzMwlzY5x3BJZtABhuw
-----END CERTIFICATE-----
