
Discarded input sections

 .note.GNU-stack
                0x0000000000000000        0x0 /usr/lib/gcc/i586-suse-linux/4.3/../../../crti.o
 .group         0x0000000000000000        0x8 /usr/lib/gcc/i586-suse-linux/4.3/crtbeginS.o
 .note.GNU-stack
                0x0000000000000000        0x0 /usr/lib/gcc/i586-suse-linux/4.3/crtbeginS.o
 .group         0x0000000000000000        0x8 /home/z00250609/hybrid/5115_GPL/Hybrid_security_baseline/output/package/host-ssl/aes.o
 .text.__i686.get_pc_thunk.bx
                0x0000000000000000        0x4 /home/z00250609/hybrid/5115_GPL/Hybrid_security_baseline/output/package/host-ssl/aes.o
 .note.GNU-stack
                0x0000000000000000        0x0 /home/z00250609/hybrid/5115_GPL/Hybrid_security_baseline/output/package/host-ssl/aes.o
 .note.GNU-stack
                0x0000000000000000        0x0 /home/z00250609/hybrid/5115_GPL/Hybrid_security_baseline/output/package/host-ssl/arc4.o
 .group         0x0000000000000000        0x8 /home/z00250609/hybrid/5115_GPL/Hybrid_security_baseline/output/package/host-ssl/base64.o
 .text.__i686.get_pc_thunk.bx
                0x0000000000000000        0x4 /home/z00250609/hybrid/5115_GPL/Hybrid_security_baseline/output/package/host-ssl/base64.o
 .note.GNU-stack
                0x0000000000000000        0x0 /home/z00250609/hybrid/5115_GPL/Hybrid_security_baseline/output/package/host-ssl/base64.o
 .group         0x0000000000000000        0x8 /home/z00250609/hybrid/5115_GPL/Hybrid_security_baseline/output/package/host-ssl/bignum.o
 .text.__i686.get_pc_thunk.bx
                0x0000000000000000        0x4 /home/z00250609/hybrid/5115_GPL/Hybrid_security_baseline/output/package/host-ssl/bignum.o
 .note.GNU-stack
                0x0000000000000000        0x0 /home/z00250609/hybrid/5115_GPL/Hybrid_security_baseline/output/package/host-ssl/bignum.o
 .note.GNU-stack
                0x0000000000000000        0x0 /home/z00250609/hybrid/5115_GPL/Hybrid_security_baseline/output/package/host-ssl/certs.o
 .note.GNU-stack
                0x0000000000000000        0x0 /home/z00250609/hybrid/5115_GPL/Hybrid_security_baseline/output/package/host-ssl/debug.o
 .group         0x0000000000000000        0x8 /home/z00250609/hybrid/5115_GPL/Hybrid_security_baseline/output/package/host-ssl/des.o
 .text.__i686.get_pc_thunk.bx
                0x0000000000000000        0x4 /home/z00250609/hybrid/5115_GPL/Hybrid_security_baseline/output/package/host-ssl/des.o
 .note.GNU-stack
                0x0000000000000000        0x0 /home/z00250609/hybrid/5115_GPL/Hybrid_security_baseline/output/package/host-ssl/des.o
 .note.GNU-stack
                0x0000000000000000        0x0 /home/z00250609/hybrid/5115_GPL/Hybrid_security_baseline/output/package/host-ssl/dhm.o
 .group         0x0000000000000000        0x8 /home/z00250609/hybrid/5115_GPL/Hybrid_security_baseline/output/package/host-ssl/havege.o
 .text.__i686.get_pc_thunk.bx
                0x0000000000000000        0x4 /home/z00250609/hybrid/5115_GPL/Hybrid_security_baseline/output/package/host-ssl/havege.o
 .note.GNU-stack
                0x0000000000000000        0x0 /home/z00250609/hybrid/5115_GPL/Hybrid_security_baseline/output/package/host-ssl/havege.o
 .note.GNU-stack
                0x0000000000000000        0x0 /home/z00250609/hybrid/5115_GPL/Hybrid_security_baseline/output/package/host-ssl/md2.o
 .note.GNU-stack
                0x0000000000000000        0x0 /home/z00250609/hybrid/5115_GPL/Hybrid_security_baseline/output/package/host-ssl/md4.o
 .group         0x0000000000000000        0x8 /home/z00250609/hybrid/5115_GPL/Hybrid_security_baseline/output/package/host-ssl/md5.o
 .text.__i686.get_pc_thunk.bx
                0x0000000000000000        0x4 /home/z00250609/hybrid/5115_GPL/Hybrid_security_baseline/output/package/host-ssl/md5.o
 .note.GNU-stack
                0x0000000000000000        0x0 /home/z00250609/hybrid/5115_GPL/Hybrid_security_baseline/output/package/host-ssl/md5.o
 .group         0x0000000000000000        0x8 /home/z00250609/hybrid/5115_GPL/Hybrid_security_baseline/output/package/host-ssl/net.o
 .text.__i686.get_pc_thunk.bx
                0x0000000000000000        0x4 /home/z00250609/hybrid/5115_GPL/Hybrid_security_baseline/output/package/host-ssl/net.o
 .note.GNU-stack
                0x0000000000000000        0x0 /home/z00250609/hybrid/5115_GPL/Hybrid_security_baseline/output/package/host-ssl/net.o
 .note.GNU-stack
                0x0000000000000000        0x0 /home/z00250609/hybrid/5115_GPL/Hybrid_security_baseline/output/package/host-ssl/padlock.o
 .group         0x0000000000000000        0x8 /home/z00250609/hybrid/5115_GPL/Hybrid_security_baseline/output/package/host-ssl/rsa.o
 .text.__i686.get_pc_thunk.bx
                0x0000000000000000        0x4 /home/z00250609/hybrid/5115_GPL/Hybrid_security_baseline/output/package/host-ssl/rsa.o
 .note.GNU-stack
                0x0000000000000000        0x0 /home/z00250609/hybrid/5115_GPL/Hybrid_security_baseline/output/package/host-ssl/rsa.o
 .group         0x0000000000000000        0x8 /home/z00250609/hybrid/5115_GPL/Hybrid_security_baseline/output/package/host-ssl/sha1.o
 .text.__i686.get_pc_thunk.bx
                0x0000000000000000        0x4 /home/z00250609/hybrid/5115_GPL/Hybrid_security_baseline/output/package/host-ssl/sha1.o
 .note.GNU-stack
                0x0000000000000000        0x0 /home/z00250609/hybrid/5115_GPL/Hybrid_security_baseline/output/package/host-ssl/sha1.o
 .group         0x0000000000000000        0x8 /home/z00250609/hybrid/5115_GPL/Hybrid_security_baseline/output/package/host-ssl/sha2.o
 .text.__i686.get_pc_thunk.bx
                0x0000000000000000        0x4 /home/z00250609/hybrid/5115_GPL/Hybrid_security_baseline/output/package/host-ssl/sha2.o
 .note.GNU-stack
                0x0000000000000000        0x0 /home/z00250609/hybrid/5115_GPL/Hybrid_security_baseline/output/package/host-ssl/sha2.o
 .note.GNU-stack
                0x0000000000000000        0x0 /home/z00250609/hybrid/5115_GPL/Hybrid_security_baseline/output/package/host-ssl/sha4.o
 .group         0x0000000000000000        0x8 /home/z00250609/hybrid/5115_GPL/Hybrid_security_baseline/output/package/host-ssl/ssl_cli.o
 .group         0x0000000000000000        0x8 /home/z00250609/hybrid/5115_GPL/Hybrid_security_baseline/output/package/host-ssl/ssl_cli.o
 .text.__i686.get_pc_thunk.bx
                0x0000000000000000        0x4 /home/z00250609/hybrid/5115_GPL/Hybrid_security_baseline/output/package/host-ssl/ssl_cli.o
 .note.GNU-stack
                0x0000000000000000        0x0 /home/z00250609/hybrid/5115_GPL/Hybrid_security_baseline/output/package/host-ssl/ssl_cli.o
 .group         0x0000000000000000        0x8 /home/z00250609/hybrid/5115_GPL/Hybrid_security_baseline/output/package/host-ssl/ssl_srv.o
 .text.__i686.get_pc_thunk.bx
                0x0000000000000000        0x4 /home/z00250609/hybrid/5115_GPL/Hybrid_security_baseline/output/package/host-ssl/ssl_srv.o
 .note.GNU-stack
                0x0000000000000000        0x0 /home/z00250609/hybrid/5115_GPL/Hybrid_security_baseline/output/package/host-ssl/ssl_srv.o
 .group         0x0000000000000000        0x8 /home/z00250609/hybrid/5115_GPL/Hybrid_security_baseline/output/package/host-ssl/ssl_tls.o
 .group         0x0000000000000000        0x8 /home/z00250609/hybrid/5115_GPL/Hybrid_security_baseline/output/package/host-ssl/ssl_tls.o
 .text.__i686.get_pc_thunk.cx
                0x0000000000000000        0x4 /home/z00250609/hybrid/5115_GPL/Hybrid_security_baseline/output/package/host-ssl/ssl_tls.o
 .text.__i686.get_pc_thunk.bx
                0x0000000000000000        0x4 /home/z00250609/hybrid/5115_GPL/Hybrid_security_baseline/output/package/host-ssl/ssl_tls.o
 .note.GNU-stack
                0x0000000000000000        0x0 /home/z00250609/hybrid/5115_GPL/Hybrid_security_baseline/output/package/host-ssl/ssl_tls.o
 .group         0x0000000000000000        0x8 /home/z00250609/hybrid/5115_GPL/Hybrid_security_baseline/output/package/host-ssl/timing.o
 .text.__i686.get_pc_thunk.bx
                0x0000000000000000        0x4 /home/z00250609/hybrid/5115_GPL/Hybrid_security_baseline/output/package/host-ssl/timing.o
 .note.GNU-stack
                0x0000000000000000        0x0 /home/z00250609/hybrid/5115_GPL/Hybrid_security_baseline/output/package/host-ssl/timing.o
 .group         0x0000000000000000        0x8 /home/z00250609/hybrid/5115_GPL/Hybrid_security_baseline/output/package/host-ssl/x509parse.o
 .text.__i686.get_pc_thunk.bx
                0x0000000000000000        0x4 /home/z00250609/hybrid/5115_GPL/Hybrid_security_baseline/output/package/host-ssl/x509parse.o
 .note.GNU-stack
                0x0000000000000000        0x0 /home/z00250609/hybrid/5115_GPL/Hybrid_security_baseline/output/package/host-ssl/x509parse.o
 .note.GNU-stack
                0x0000000000000000        0x0 /home/z00250609/hybrid/5115_GPL/Hybrid_security_baseline/output/package/host-ssl/xtea.o
 .note.GNU-stack
                0x0000000000000000        0x0 /home/z00250609/hybrid/5115_GPL/Hybrid_security_baseline/output/package/host-ssl/camellia.o
 .group         0x0000000000000000        0x8 /usr/lib/gcc/i586-suse-linux/4.3/crtendS.o
 .text.__i686.get_pc_thunk.bx
                0x0000000000000000        0x4 /usr/lib/gcc/i586-suse-linux/4.3/crtendS.o
 .note.GNU-stack
                0x0000000000000000        0x0 /usr/lib/gcc/i586-suse-linux/4.3/crtendS.o
 .note.GNU-stack
                0x0000000000000000        0x0 /usr/lib/gcc/i586-suse-linux/4.3/../../../crtn.o

Memory Configuration

Name             Origin             Length             Attributes
*default*        0x0000000000000000 0xffffffffffffffff

Linker script and memory map

LOAD /usr/lib/gcc/i586-suse-linux/4.3/../../../crti.o
LOAD /usr/lib/gcc/i586-suse-linux/4.3/crtbeginS.o
LOAD /home/z00250609/hybrid/5115_GPL/Hybrid_security_baseline/output/package/host-ssl/aes.o
LOAD /home/z00250609/hybrid/5115_GPL/Hybrid_security_baseline/output/package/host-ssl/arc4.o
LOAD /home/z00250609/hybrid/5115_GPL/Hybrid_security_baseline/output/package/host-ssl/base64.o
LOAD /home/z00250609/hybrid/5115_GPL/Hybrid_security_baseline/output/package/host-ssl/bignum.o
LOAD /home/z00250609/hybrid/5115_GPL/Hybrid_security_baseline/output/package/host-ssl/certs.o
LOAD /home/z00250609/hybrid/5115_GPL/Hybrid_security_baseline/output/package/host-ssl/debug.o
LOAD /home/z00250609/hybrid/5115_GPL/Hybrid_security_baseline/output/package/host-ssl/des.o
LOAD /home/z00250609/hybrid/5115_GPL/Hybrid_security_baseline/output/package/host-ssl/dhm.o
LOAD /home/z00250609/hybrid/5115_GPL/Hybrid_security_baseline/output/package/host-ssl/havege.o
LOAD /home/z00250609/hybrid/5115_GPL/Hybrid_security_baseline/output/package/host-ssl/md2.o
LOAD /home/z00250609/hybrid/5115_GPL/Hybrid_security_baseline/output/package/host-ssl/md4.o
LOAD /home/z00250609/hybrid/5115_GPL/Hybrid_security_baseline/output/package/host-ssl/md5.o
LOAD /home/z00250609/hybrid/5115_GPL/Hybrid_security_baseline/output/package/host-ssl/net.o
LOAD /home/z00250609/hybrid/5115_GPL/Hybrid_security_baseline/output/package/host-ssl/padlock.o
LOAD /home/z00250609/hybrid/5115_GPL/Hybrid_security_baseline/output/package/host-ssl/rsa.o
LOAD /home/z00250609/hybrid/5115_GPL/Hybrid_security_baseline/output/package/host-ssl/sha1.o
LOAD /home/z00250609/hybrid/5115_GPL/Hybrid_security_baseline/output/package/host-ssl/sha2.o
LOAD /home/z00250609/hybrid/5115_GPL/Hybrid_security_baseline/output/package/host-ssl/sha4.o
LOAD /home/z00250609/hybrid/5115_GPL/Hybrid_security_baseline/output/package/host-ssl/ssl_cli.o
LOAD /home/z00250609/hybrid/5115_GPL/Hybrid_security_baseline/output/package/host-ssl/ssl_srv.o
LOAD /home/z00250609/hybrid/5115_GPL/Hybrid_security_baseline/output/package/host-ssl/ssl_tls.o
LOAD /home/z00250609/hybrid/5115_GPL/Hybrid_security_baseline/output/package/host-ssl/timing.o
LOAD /home/z00250609/hybrid/5115_GPL/Hybrid_security_baseline/output/package/host-ssl/x509parse.o
LOAD /home/z00250609/hybrid/5115_GPL/Hybrid_security_baseline/output/package/host-ssl/xtea.o
LOAD /home/z00250609/hybrid/5115_GPL/Hybrid_security_baseline/output/package/host-ssl/camellia.o
LOAD /usr/lib/gcc/i586-suse-linux/4.3/libgcc.a
LOAD /usr/lib/gcc/i586-suse-linux/4.3/libgcc_s.so
LOAD /usr/lib/gcc/i586-suse-linux/4.3/../../../libc.so
START GROUP
LOAD /lib/libc.so.6
LOAD /usr/lib/libc_nonshared.a
LOAD /lib/ld-linux.so.2
END GROUP
LOAD /usr/lib/gcc/i586-suse-linux/4.3/libgcc.a
LOAD /usr/lib/gcc/i586-suse-linux/4.3/libgcc_s.so
LOAD /usr/lib/gcc/i586-suse-linux/4.3/crtendS.o
LOAD /usr/lib/gcc/i586-suse-linux/4.3/../../../crtn.o
                0x00000000000000f4                . = (0x0 + SIZEOF_HEADERS)

.note.gnu.build-id
                0x00000000000000f4       0x24
 *(.note.gnu.build-id)
 .note.gnu.build-id
                0x00000000000000f4       0x24 /usr/lib/gcc/i586-suse-linux/4.3/../../../crti.o

.hash           0x0000000000000118      0x6a4
 *(.hash)
 .hash          0x0000000000000118      0x6a4 /usr/lib/gcc/i586-suse-linux/4.3/../../../crti.o

.gnu.hash       0x00000000000007bc      0x57c
 *(.gnu.hash)
 .gnu.hash      0x00000000000007bc      0x57c /usr/lib/gcc/i586-suse-linux/4.3/../../../crti.o

.dynsym         0x0000000000000d38      0xe20
 *(.dynsym)
 .dynsym        0x0000000000000d38      0xe20 /usr/lib/gcc/i586-suse-linux/4.3/../../../crti.o

.dynstr         0x0000000000001b58      0xb88
 *(.dynstr)
 .dynstr        0x0000000000001b58      0xb88 /usr/lib/gcc/i586-suse-linux/4.3/../../../crti.o

.gnu.version    0x00000000000026e0      0x1c4
 *(.gnu.version)
 .gnu.version   0x00000000000026e0      0x1c4 /usr/lib/gcc/i586-suse-linux/4.3/../../../crti.o

.gnu.version_d  0x00000000000028a4        0x0
 *(.gnu.version_d)
 .gnu.version_d
                0x0000000000000000        0x0 /usr/lib/gcc/i586-suse-linux/4.3/../../../crti.o

.gnu.version_r  0x00000000000028a4       0x50
 *(.gnu.version_r)
 .gnu.version_r
                0x00000000000028a4       0x50 /usr/lib/gcc/i586-suse-linux/4.3/../../../crti.o

.rel.dyn        0x00000000000028f4       0x48
 *(.rel.init)
 *(.rel.text .rel.text.* .rel.gnu.linkonce.t.*)
 .rel.text      0x0000000000000000        0x0 /usr/lib/gcc/i586-suse-linux/4.3/../../../crti.o
 *(.rel.fini)
 *(.rel.rodata .rel.rodata.* .rel.gnu.linkonce.r.*)
 *(.rel.data.rel.ro* .rel.gnu.linkonce.d.rel.ro.*)
 *(.rel.data .rel.data.* .rel.gnu.linkonce.d.*)
 .rel.data.rel  0x00000000000028f4        0x8 /usr/lib/gcc/i586-suse-linux/4.3/../../../crti.o
 *(.rel.tdata .rel.tdata.* .rel.gnu.linkonce.td.*)
 *(.rel.tbss .rel.tbss.* .rel.gnu.linkonce.tb.*)
 *(.rel.ctors)
 *(.rel.dtors)
 *(.rel.got)
 .rel.got       0x00000000000028fc       0x40 /usr/lib/gcc/i586-suse-linux/4.3/../../../crti.o
 *(.rel.bss .rel.bss.* .rel.gnu.linkonce.b.*)
 *(.rel.ifunc)
 .rel.ifunc     0x0000000000000000        0x0 /usr/lib/gcc/i586-suse-linux/4.3/../../../crti.o

.rel.plt        0x000000000000293c      0x4f8
 *(.rel.plt)
 .rel.plt       0x000000000000293c      0x4f8 /usr/lib/gcc/i586-suse-linux/4.3/../../../crti.o
 *(.rel.iplt)

.init           0x0000000000002e34       0x30
 *(.init)
 .init          0x0000000000002e34       0x22 /usr/lib/gcc/i586-suse-linux/4.3/../../../crti.o
                0x0000000000002e34                _init
 .init          0x0000000000002e56        0x5 /usr/lib/gcc/i586-suse-linux/4.3/crtbeginS.o
 .init          0x0000000000002e5b        0x5 /usr/lib/gcc/i586-suse-linux/4.3/crtendS.o
 .init          0x0000000000002e60        0x4 /usr/lib/gcc/i586-suse-linux/4.3/../../../crtn.o

.plt            0x0000000000002e64      0xa00
 *(.plt)
 .plt           0x0000000000002e64      0xa00 /usr/lib/gcc/i586-suse-linux/4.3/../../../crti.o
 *(.iplt)

.text           0x0000000000003870    0x16e78
 *(.text.unlikely .text.*_unlikely)
 *(.text .stub .text.* .gnu.linkonce.t.*)
 .text          0x0000000000003870        0x0 /usr/lib/gcc/i586-suse-linux/4.3/../../../crti.o
 .text          0x0000000000003870       0xb7 /usr/lib/gcc/i586-suse-linux/4.3/crtbeginS.o
 .text.__i686.get_pc_thunk.bx
                0x0000000000003927        0x4 /usr/lib/gcc/i586-suse-linux/4.3/crtbeginS.o
                0x0000000000003927                __i686.get_pc_thunk.bx
 *fill*         0x000000000000392b        0x1 90909090
 .text          0x000000000000392c     0x13df /home/z00250609/hybrid/5115_GPL/Hybrid_security_baseline/output/package/host-ssl/aes.o
                0x0000000000003ba9                aes_setkey_enc
                0x0000000000003e74                aes_crypt_ecb
                0x00000000000049a2                aes_crypt_cfb128
                0x0000000000004a5f                aes_crypt_cbc
                0x0000000000004b6e                aes_setkey_dec
 *fill*         0x0000000000004d0b        0x1 90909090
 .text          0x0000000000004d0c       0xc3 /home/z00250609/hybrid/5115_GPL/Hybrid_security_baseline/output/package/host-ssl/arc4.o
                0x0000000000004d0c                arc4_setup
                0x0000000000004d7a                arc4_crypt
 *fill*         0x0000000000004dcf        0x1 90909090
 .text          0x0000000000004dd0      0x2b0 /home/z00250609/hybrid/5115_GPL/Hybrid_security_baseline/output/package/host-ssl/base64.o
                0x0000000000004dd0                base64_encode
                0x0000000000004f4a                base64_decode
 .text          0x0000000000005080     0x37fa /home/z00250609/hybrid/5115_GPL/Hybrid_security_baseline/output/package/host-ssl/bignum.o
                0x0000000000005080                mpi_lsb
                0x00000000000050ba                mpi_msb
                0x0000000000005106                mpi_size
                0x0000000000005129                mpi_shift_r
                0x00000000000051eb                mpi_cmp_abs
                0x000000000000527f                mpi_cmp_mpi
                0x000000000000535d                mpi_cmp_int
                0x00000000000053b0                mpi_mod_int
                0x0000000000005480                mpi_write_binary
                0x0000000000005bc9                mpi_swap
                0x0000000000005bfb                mpi_grow
                0x0000000000005c94                mpi_shift_l
                0x0000000000005dbe                mpi_lset
                0x0000000000005e1b                mpi_read_binary
                0x0000000000005ecb                mpi_copy
                0x0000000000005f51                mpi_add_abs
                0x000000000000606c                mpi_free
                0x00000000000060cd                mpi_init
                0x00000000000060f6                mpi_mul_mpi
                0x00000000000064ed                mpi_mul_int
                0x0000000000006534                mpi_sub_abs
                0x0000000000006674                mpi_sub_mpi
                0x00000000000066f0                mpi_sub_int
                0x0000000000006746                mpi_add_mpi
                0x00000000000067c2                mpi_add_int
                0x0000000000006818                mpi_gcd
                0x00000000000069d4                mpi_div_mpi
                0x00000000000070a0                mpi_mod_mpi
                0x0000000000007139                mpi_div_int
                0x0000000000007231                mpi_inv_mod
                0x00000000000076c6                mpi_exp_mod
                0x0000000000007d51                mpi_is_prime
                0x000000000000811e                mpi_gen_prime
                0x00000000000082c9                mpi_write_string
                0x0000000000008451                mpi_write_file
                0x000000000000855d                mpi_read_string
                0x0000000000008794                mpi_read_file
 *fill*         0x000000000000887a        0x2 90909090
 .text          0x000000000000887c        0x0 /home/z00250609/hybrid/5115_GPL/Hybrid_security_baseline/output/package/host-ssl/certs.o
 .text          0x000000000000887c        0x0 /home/z00250609/hybrid/5115_GPL/Hybrid_security_baseline/output/package/host-ssl/debug.o
 .text          0x000000000000887c     0x10b1 /home/z00250609/hybrid/5115_GPL/Hybrid_security_baseline/output/package/host-ssl/des.o
                0x0000000000008c7f                des_setkey_enc
                0x0000000000008c8f                des_setkey_dec
                0x0000000000008de5                des_crypt_ecb
                0x00000000000090c1                des3_crypt_ecb
                0x000000000000967d                des3_crypt_cbc
                0x000000000000976d                des_crypt_cbc
                0x000000000000985d                des3_set3key_dec
                0x0000000000009891                des3_set3key_enc
                0x00000000000098c5                des3_set2key_dec
                0x00000000000098f9                des3_set2key_enc
 *fill*         0x000000000000992d        0x3 90909090
 .text          0x0000000000009930        0x0 /home/z00250609/hybrid/5115_GPL/Hybrid_security_baseline/output/package/host-ssl/dhm.o
 .text          0x0000000000009930     0x1c6e /home/z00250609/hybrid/5115_GPL/Hybrid_security_baseline/output/package/host-ssl/havege.o
                0x000000000000b550                havege_rand
                0x000000000000b582                havege_init
 *fill*         0x000000000000b59e        0x2 90909090
 .text          0x000000000000b5a0        0x0 /home/z00250609/hybrid/5115_GPL/Hybrid_security_baseline/output/package/host-ssl/md2.o
 .text          0x000000000000b5a0        0x0 /home/z00250609/hybrid/5115_GPL/Hybrid_security_baseline/output/package/host-ssl/md4.o
 .text          0x000000000000b5a0      0xe0f /home/z00250609/hybrid/5115_GPL/Hybrid_security_baseline/output/package/host-ssl/md5.o
                0x000000000000b5a0                md5_starts
                0x000000000000bf03                md5_update
                0x000000000000bfa9                md5_hmac_reset
                0x000000000000bfd8                md5_hmac_update
                0x000000000000bffd                md5_finish
                0x000000000000c112                md5_hmac_finish
                0x000000000000c174                md5_file
                0x000000000000c24b                md5
                0x000000000000c2a0                md5_hmac_starts
                0x000000000000c34c                md5_hmac
 *fill*         0x000000000000c3af        0x1 90909090
 .text          0x000000000000c3b0      0x40e /home/z00250609/hybrid/5115_GPL/Hybrid_security_baseline/output/package/host-ssl/net.o
                0x000000000000c3b0                net_close
                0x000000000000c3da                net_send
                0x000000000000c437                net_recv
                0x000000000000c4a2                net_usleep
                0x000000000000c4d8                net_set_nonblock
                0x000000000000c509                net_set_block
                0x000000000000c53a                net_accept
                0x000000000000c5a3                net_bind
                0x000000000000c70c                net_connect
 *fill*         0x000000000000c7be        0x2 90909090
 .text          0x000000000000c7c0        0x0 /home/z00250609/hybrid/5115_GPL/Hybrid_security_baseline/output/package/host-ssl/padlock.o
 .text          0x000000000000c7c0      0xf24 /home/z00250609/hybrid/5115_GPL/Hybrid_security_baseline/output/package/host-ssl/rsa.o
                0x000000000000c7c0                rsa_free
                0x000000000000c80b                rsa_init
                0x000000000000c835                rsa_private
                0x000000000000c9c6                rsa_public
                0x000000000000ca85                rsa_pkcs1_verify
                0x000000000000cd01                rsa_pkcs1_sign
                0x000000000000cef5                rsa_pkcs1_decrypt
                0x000000000000cfc7                rsa_pkcs1_encrypt
                0x000000000000d0b4                rsa_check_pubkey
                0x000000000000d135                rsa_check_privkey
                0x000000000000d422                rsa_gen_key
 .text          0x000000000000d6e4     0x2204 /home/z00250609/hybrid/5115_GPL/Hybrid_security_baseline/output/package/host-ssl/sha1.o
                0x000000000000d6e4                sha1_starts
                0x000000000000f412                sha1_update
                0x000000000000f4b8                sha1_hmac_reset
                0x000000000000f4e7                sha1_hmac_update
                0x000000000000f50c                sha1_finish
                0x000000000000f64b                sha1_hmac_finish
                0x000000000000f6ad                sha1_file
                0x000000000000f784                sha1
                0x000000000000f7d9                sha1_hmac_starts
                0x000000000000f885                sha1_hmac
 .text          0x000000000000f8e8     0x418b /home/z00250609/hybrid/5115_GPL/Hybrid_security_baseline/output/package/host-ssl/sha2.o
                0x000000000000f8e8                sha2_starts
                0x00000000000134e1                sha2_update
                0x0000000000013587                sha2_hmac_reset
                0x00000000000135bc                sha2_hmac_update
                0x00000000000135e1                sha2_finish
                0x0000000000013783                sha2_hmac_finish
                0x0000000000013803                sha2_file
                0x00000000000138e0                sha2
                0x000000000001393c                sha2_hmac_starts
                0x0000000000013a09                sha2_hmac
 *fill*         0x0000000000013a73        0x1 90909090
 .text          0x0000000000013a74        0x0 /home/z00250609/hybrid/5115_GPL/Hybrid_security_baseline/output/package/host-ssl/sha4.o
 .text          0x0000000000013a74      0xf0c /home/z00250609/hybrid/5115_GPL/Hybrid_security_baseline/output/package/host-ssl/ssl_cli.o
                0x0000000000013a74                CRYPTO_new_ex_data
                0x0000000000013a77                SSL_get_version
                0x0000000000013a89                SSL_CTX_set_verify
                0x0000000000013a99                SSL_is_data_cached
                0x0000000000013b5e                ssl_handshake_client
                0x000000000001450a                SSL_accept
                0x0000000000014528                SSL_connect
                0x0000000000014543                SSL_accept_web
                0x0000000000014651                SSL_free
                0x0000000000014681                SSL_set_fd
                0x00000000000146b0                SSL_CTX_new
                0x00000000000146e8                SSL_new
                0x00000000000148df                SSL_CTX_free
                0x0000000000014930                SSL_CTX_load_verify_locations
 .text.__i686.get_pc_thunk.cx
                0x0000000000014980        0x4 /home/z00250609/hybrid/5115_GPL/Hybrid_security_baseline/output/package/host-ssl/ssl_cli.o
                0x0000000000014980                __i686.get_pc_thunk.cx
 .text          0x0000000000014984      0xaa0 /home/z00250609/hybrid/5115_GPL/Hybrid_security_baseline/output/package/host-ssl/ssl_srv.o
                0x0000000000014984                ssl_handshake_server
 .text          0x0000000000015424     0x2269 /home/z00250609/hybrid/5115_GPL/Hybrid_security_baseline/output/package/host-ssl/ssl_tls.o
                0x0000000000015424                ssl_fetch_input
                0x000000000001545a                ssl_flush_output
                0x0000000000015495                ssl_set_endpoint
                0x00000000000154a4                ssl_set_authmode
                0x00000000000154b3                ssl_set_rng
                0x00000000000154c6                ssl_set_dbg
                0x00000000000154d9                ssl_set_bio
                0x00000000000154fa                ssl_set_scb
                0x000000000001550d                ssl_set_session
                0x0000000000015527                ssl_set_ciphers
                0x0000000000015536                ssl_set_ca_chain
                0x0000000000015559                ssl_set_own_cert
                0x0000000000015572                ssl_get_bytes_avail
                0x0000000000015582                ssl_get_verify_result
                0x000000000001558d                ssl_get_cipher
                0x0000000000015607                ssl_free
                0x00000000000156ca                ssl_handshake
                0x0000000000015711                ssl_set_hostname
                0x0000000000015774                ssl_set_dh_param
                0x00000000000157bb                ssl_init
                0x0000000000015aed                ssl_calc_verify
                0x0000000000016126                ssl_read_record
                0x00000000000165ad                ssl_read
                0x0000000000016656                ssl_parse_finished
                0x0000000000016797                ssl_parse_change_cipher_spec
                0x00000000000167ee                ssl_parse_certificate
                0x00000000000169e3                ssl_write_record
                0x0000000000016cb1                ssl_close_notify
                0x0000000000016d02                ssl_write
                0x0000000000016d8b                ssl_write_finished
                0x0000000000016e44                ssl_write_change_cipher_spec
                0x0000000000016e82                ssl_write_certificate
                0x000000000001703b                ssl_derive_keys
 *fill*         0x000000000001768d        0x3 90909090
 .text          0x0000000000017690      0x10a /home/z00250609/hybrid/5115_GPL/Hybrid_security_baseline/output/package/host-ssl/timing.o
                0x0000000000017690                hardclock
                0x0000000000017693                m_sleep
                0x0000000000017705                set_alarm
                0x000000000001773d                get_timer
 *fill*         0x000000000001779a        0x2 90909090
 .text          0x000000000001779c     0x2f0f /home/z00250609/hybrid/5115_GPL/Hybrid_security_baseline/output/package/host-ssl/x509parse.o
                0x0000000000017b53                x509_crl_free
                0x0000000000017c25                x509_free
                0x0000000000017d73                x509parse_time_expired
                0x0000000000017df7                x509parse_revoked
                0x0000000000017e55                x509parse_verify
                0x00000000000181ad                x509parse_dn_gets
                0x00000000000183b1                x509parse_crl_info
                0x0000000000018715                x509parse_cert_info
                0x0000000000018d6f                x509parse_key
                0x000000000001924d                load_file
                0x0000000000019308                x509parse_keyfileEx
                0x000000000001937b                x509parse_keyfile
                0x00000000000195c3                x509parse_crl
                0x0000000000019be0                x509parse_crlfile
                0x0000000000019c47                x509parse_crt
                0x000000000001a644                x509parse_crtfile
 *fill*         0x000000000001a6ab        0x1 90909090
 .text          0x000000000001a6ac        0x0 /home/z00250609/hybrid/5115_GPL/Hybrid_security_baseline/output/package/host-ssl/xtea.o
 .text          0x000000000001a6ac        0x0 /home/z00250609/hybrid/5115_GPL/Hybrid_security_baseline/output/package/host-ssl/camellia.o
 *fill*         0x000000000001a6ac        0x4 90909090
 .text          0x000000000001a6b0       0x38 /usr/lib/gcc/i586-suse-linux/4.3/crtendS.o
 .text          0x000000000001a6e8        0x0 /usr/lib/gcc/i586-suse-linux/4.3/../../../crtn.o
 *(.gnu.warning)

.fini           0x000000000001a6e8       0x1c
 *(.fini)
 .fini          0x000000000001a6e8       0x13 /usr/lib/gcc/i586-suse-linux/4.3/../../../crti.o
                0x000000000001a6e8                _fini
 .fini          0x000000000001a6fb        0x5 /usr/lib/gcc/i586-suse-linux/4.3/crtbeginS.o
 .fini          0x000000000001a700        0x4 /usr/lib/gcc/i586-suse-linux/4.3/../../../crtn.o
                0x000000000001a704                PROVIDE (__etext, .)
                0x000000000001a704                PROVIDE (_etext, .)
                0x000000000001a704                PROVIDE (etext, .)

.rodata         0x000000000001a704     0x12d0
 *(.rodata .rodata.* .gnu.linkonce.r.*)
 .rodata        0x000000000001a704       0xc0 /home/z00250609/hybrid/5115_GPL/Hybrid_security_baseline/output/package/host-ssl/base64.o
 .rodata.str1.1
                0x000000000001a7c4        0xa /home/z00250609/hybrid/5115_GPL/Hybrid_security_baseline/output/package/host-ssl/bignum.o
                                          0xb (size before relaxing)
 *fill*         0x000000000001a7ce        0x2 00
 .rodata        0x000000000001a7d0      0x2a0 /home/z00250609/hybrid/5115_GPL/Hybrid_security_baseline/output/package/host-ssl/bignum.o
 .rodata        0x000000000001aa70      0x880 /home/z00250609/hybrid/5115_GPL/Hybrid_security_baseline/output/package/host-ssl/des.o
 .rodata.str1.1
                0x000000000001b2f0        0x3 /home/z00250609/hybrid/5115_GPL/Hybrid_security_baseline/output/package/host-ssl/md5.o
 *fill*         0x000000000001b2f3        0x1 00
 .rodata        0x000000000001b2f4       0x40 /home/z00250609/hybrid/5115_GPL/Hybrid_security_baseline/output/package/host-ssl/md5.o
 .rodata.str1.1
                0x000000000001b334        0xc /home/z00250609/hybrid/5115_GPL/Hybrid_security_baseline/output/package/host-ssl/net.o
 .rodata        0x000000000001b340       0xb0 /home/z00250609/hybrid/5115_GPL/Hybrid_security_baseline/output/package/host-ssl/rsa.o
 .rodata.str1.1
                0x0000000000000000        0x3 /home/z00250609/hybrid/5115_GPL/Hybrid_security_baseline/output/package/host-ssl/sha1.o
 .rodata        0x000000000001b3f0       0x40 /home/z00250609/hybrid/5115_GPL/Hybrid_security_baseline/output/package/host-ssl/sha1.o
 .rodata.str1.1
                0x0000000000000000        0x3 /home/z00250609/hybrid/5115_GPL/Hybrid_security_baseline/output/package/host-ssl/sha2.o
 .rodata        0x000000000001b430       0x40 /home/z00250609/hybrid/5115_GPL/Hybrid_security_baseline/output/package/host-ssl/sha2.o
 .rodata.str1.1
                0x000000000001b470       0x20 /home/z00250609/hybrid/5115_GPL/Hybrid_security_baseline/output/package/host-ssl/ssl_cli.o
 .rodata        0x000000000001b490       0x3c /home/z00250609/hybrid/5115_GPL/Hybrid_security_baseline/output/package/host-ssl/ssl_cli.o
 .rodata        0x000000000001b4cc       0x3c /home/z00250609/hybrid/5115_GPL/Hybrid_security_baseline/output/package/host-ssl/ssl_srv.o
 .rodata.str1.1
                0x000000000001b508       0xfa /home/z00250609/hybrid/5115_GPL/Hybrid_security_baseline/output/package/host-ssl/ssl_tls.o
 .rodata        0x000000000001b602        0x4 /home/z00250609/hybrid/5115_GPL/Hybrid_security_baseline/output/package/host-ssl/ssl_tls.o
 .rodata.str1.1
                0x000000000001b606      0x342 /home/z00250609/hybrid/5115_GPL/Hybrid_security_baseline/output/package/host-ssl/x509parse.o
                                        0x351 (size before relaxing)
 .rodata        0x000000000001b948       0x8c /home/z00250609/hybrid/5115_GPL/Hybrid_security_baseline/output/package/host-ssl/x509parse.o

.rodata1
 *(.rodata1)

.eh_frame_hdr
 *(.eh_frame_hdr)

.eh_frame       0x000000000001b9d4        0x4
 *(.eh_frame)
 .eh_frame      0x000000000001b9d4        0x4 /usr/lib/gcc/i586-suse-linux/4.3/crtendS.o

.gcc_except_table
 *(.gcc_except_table .gcc_except_table.*)
                0x000000000001b9d8                . = (ALIGN (0x1000) - ((0x1000 - .) & 0xfff))
                0x000000000001cee8                . = (0x1000 DATA_SEGMENT_ALIGN 0x1000)

.eh_frame
 *(.eh_frame)

.gcc_except_table
 *(.gcc_except_table .gcc_except_table.*)

.tdata
 *(.tdata .tdata.* .gnu.linkonce.td.*)

.tbss
 *(.tbss .tbss.* .gnu.linkonce.tb.*)
 *(.tcommon)

.preinit_array
 *(.preinit_array)

.init_array
 *(SORT(.init_array.*))
 *(.init_array)

.fini_array
 *(.fini_array)
 *(SORT(.fini_array.*))

.ctors          0x000000000001cee8        0x8
 *crtbegin.o(.ctors)
 *crtbegin?.o(.ctors)
 .ctors         0x000000000001cee8        0x4 /usr/lib/gcc/i586-suse-linux/4.3/crtbeginS.o
 *(EXCLUDE_FILE(*crtend?.o *crtend.o) .ctors)
 *(SORT(.ctors.*))
 *(.ctors)
 .ctors         0x000000000001ceec        0x4 /usr/lib/gcc/i586-suse-linux/4.3/crtendS.o

.dtors          0x000000000001cef0        0x8
 *crtbegin.o(.dtors)
 *crtbegin?.o(.dtors)
 .dtors         0x000000000001cef0        0x4 /usr/lib/gcc/i586-suse-linux/4.3/crtbeginS.o
 *(EXCLUDE_FILE(*crtend?.o *crtend.o) .dtors)
 *(SORT(.dtors.*))
 *(.dtors)
 .dtors         0x000000000001cef4        0x4 /usr/lib/gcc/i586-suse-linux/4.3/crtendS.o
                0x000000000001cef4                __DTOR_END__

.jcr            0x000000000001cef8        0x4
 *(.jcr)
 .jcr           0x000000000001cef8        0x0 /usr/lib/gcc/i586-suse-linux/4.3/crtbeginS.o
 .jcr           0x000000000001cef8        0x4 /usr/lib/gcc/i586-suse-linux/4.3/crtendS.o

.data.rel.ro
 *(.data.rel.ro.local* .gnu.linkonce.d.rel.ro.local.*)
 *(.data.rel.ro* .gnu.linkonce.d.rel.ro.*)

.dynamic        0x000000000001cefc       0xd8
 *(.dynamic)
 .dynamic       0x000000000001cefc       0xd8 /usr/lib/gcc/i586-suse-linux/4.3/../../../crti.o
                0x000000000001cefc                _DYNAMIC

.got            0x000000000001cfd4       0x20
 *(.got)
 .got           0x000000000001cfd4       0x20 /usr/lib/gcc/i586-suse-linux/4.3/../../../crti.o
 *(.igot)
                0x000000000001cff4                . = (. DATA_SEGMENT_RELRO_END 0xc)

.got.plt        0x000000000001cff4      0x288
 *(.got.plt)
 .got.plt       0x000000000001cff4      0x288 /usr/lib/gcc/i586-suse-linux/4.3/../../../crti.o
                0x000000000001cff4                _GLOBAL_OFFSET_TABLE_
 *(.igot.plt)

.data           0x000000000001d27c       0x20
 *(.data .data.* .gnu.linkonce.d.*)
 .data          0x000000000001d27c        0x0 /usr/lib/gcc/i586-suse-linux/4.3/../../../crti.o
 .data          0x000000000001d27c        0x0 /usr/lib/gcc/i586-suse-linux/4.3/crtbeginS.o
 .data.rel      0x000000000001d27c        0x4 /usr/lib/gcc/i586-suse-linux/4.3/crtbeginS.o
                0x000000000001d27c                __dso_handle
 .data          0x000000000001d280        0x0 /home/z00250609/hybrid/5115_GPL/Hybrid_security_baseline/output/package/host-ssl/aes.o
 .data          0x000000000001d280        0x0 /home/z00250609/hybrid/5115_GPL/Hybrid_security_baseline/output/package/host-ssl/arc4.o
 .data          0x000000000001d280        0x0 /home/z00250609/hybrid/5115_GPL/Hybrid_security_baseline/output/package/host-ssl/base64.o
 .data          0x000000000001d280        0x0 /home/z00250609/hybrid/5115_GPL/Hybrid_security_baseline/output/package/host-ssl/bignum.o
 .data          0x000000000001d280        0x0 /home/z00250609/hybrid/5115_GPL/Hybrid_security_baseline/output/package/host-ssl/certs.o
 .data          0x000000000001d280        0x0 /home/z00250609/hybrid/5115_GPL/Hybrid_security_baseline/output/package/host-ssl/debug.o
 .data          0x000000000001d280        0x0 /home/z00250609/hybrid/5115_GPL/Hybrid_security_baseline/output/package/host-ssl/des.o
 .data          0x000000000001d280        0x0 /home/z00250609/hybrid/5115_GPL/Hybrid_security_baseline/output/package/host-ssl/dhm.o
 .data          0x000000000001d280        0x0 /home/z00250609/hybrid/5115_GPL/Hybrid_security_baseline/output/package/host-ssl/havege.o
 .data          0x000000000001d280        0x0 /home/z00250609/hybrid/5115_GPL/Hybrid_security_baseline/output/package/host-ssl/md2.o
 .data          0x000000000001d280        0x0 /home/z00250609/hybrid/5115_GPL/Hybrid_security_baseline/output/package/host-ssl/md4.o
 .data          0x000000000001d280        0x0 /home/z00250609/hybrid/5115_GPL/Hybrid_security_baseline/output/package/host-ssl/md5.o
 .data          0x000000000001d280        0x0 /home/z00250609/hybrid/5115_GPL/Hybrid_security_baseline/output/package/host-ssl/net.o
 .data          0x000000000001d280        0x0 /home/z00250609/hybrid/5115_GPL/Hybrid_security_baseline/output/package/host-ssl/padlock.o
 .data          0x000000000001d280        0x0 /home/z00250609/hybrid/5115_GPL/Hybrid_security_baseline/output/package/host-ssl/rsa.o
 .data          0x000000000001d280        0x0 /home/z00250609/hybrid/5115_GPL/Hybrid_security_baseline/output/package/host-ssl/sha1.o
 .data          0x000000000001d280        0x0 /home/z00250609/hybrid/5115_GPL/Hybrid_security_baseline/output/package/host-ssl/sha2.o
 .data          0x000000000001d280        0x0 /home/z00250609/hybrid/5115_GPL/Hybrid_security_baseline/output/package/host-ssl/sha4.o
 .data          0x000000000001d280        0x0 /home/z00250609/hybrid/5115_GPL/Hybrid_security_baseline/output/package/host-ssl/ssl_cli.o
 .data          0x000000000001d280        0x0 /home/z00250609/hybrid/5115_GPL/Hybrid_security_baseline/output/package/host-ssl/ssl_srv.o
 .data          0x000000000001d280       0x18 /home/z00250609/hybrid/5115_GPL/Hybrid_security_baseline/output/package/host-ssl/ssl_tls.o
                0x000000000001d280                ssl_default_ciphers
 .data          0x000000000001d298        0x0 /home/z00250609/hybrid/5115_GPL/Hybrid_security_baseline/output/package/host-ssl/timing.o
 .data          0x000000000001d298        0x4 /home/z00250609/hybrid/5115_GPL/Hybrid_security_baseline/output/package/host-ssl/x509parse.o
                0x000000000001d298                g_lSSL_CheckExpire
 .data          0x000000000001d29c        0x0 /home/z00250609/hybrid/5115_GPL/Hybrid_security_baseline/output/package/host-ssl/xtea.o
 .data          0x000000000001d29c        0x0 /home/z00250609/hybrid/5115_GPL/Hybrid_security_baseline/output/package/host-ssl/camellia.o
 .data          0x000000000001d29c        0x0 /usr/lib/gcc/i586-suse-linux/4.3/crtendS.o
 .data          0x000000000001d29c        0x0 /usr/lib/gcc/i586-suse-linux/4.3/../../../crtn.o

.data1
 *(.data1)
                0x000000000001d29c                _edata = .
                0x000000000001d29c                PROVIDE (edata, .)
                0x000000000001d29c                __bss_start = .

.bss            0x000000000001d29c     0x2244
 *(.dynbss)
 .dynbss        0x0000000000000000        0x0 /usr/lib/gcc/i586-suse-linux/4.3/../../../crti.o
 *(.bss .bss.* .gnu.linkonce.b.*)
 .bss           0x000000000001d29c        0x0 /usr/lib/gcc/i586-suse-linux/4.3/../../../crti.o
 .bss           0x000000000001d29c        0x8 /usr/lib/gcc/i586-suse-linux/4.3/crtbeginS.o
 .bss           0x000000000001d2a4     0x222c /home/z00250609/hybrid/5115_GPL/Hybrid_security_baseline/output/package/host-ssl/aes.o
 .bss           0x000000000001f4d0        0x0 /home/z00250609/hybrid/5115_GPL/Hybrid_security_baseline/output/package/host-ssl/arc4.o
 .bss           0x000000000001f4d0        0x0 /home/z00250609/hybrid/5115_GPL/Hybrid_security_baseline/output/package/host-ssl/base64.o
 .bss           0x000000000001f4d0        0x0 /home/z00250609/hybrid/5115_GPL/Hybrid_security_baseline/output/package/host-ssl/bignum.o
 .bss           0x000000000001f4d0        0x0 /home/z00250609/hybrid/5115_GPL/Hybrid_security_baseline/output/package/host-ssl/certs.o
 .bss           0x000000000001f4d0        0x0 /home/z00250609/hybrid/5115_GPL/Hybrid_security_baseline/output/package/host-ssl/debug.o
 .bss           0x000000000001f4d0        0x0 /home/z00250609/hybrid/5115_GPL/Hybrid_security_baseline/output/package/host-ssl/des.o
 .bss           0x000000000001f4d0        0x0 /home/z00250609/hybrid/5115_GPL/Hybrid_security_baseline/output/package/host-ssl/dhm.o
 .bss           0x000000000001f4d0        0x0 /home/z00250609/hybrid/5115_GPL/Hybrid_security_baseline/output/package/host-ssl/havege.o
 .bss           0x000000000001f4d0        0x0 /home/z00250609/hybrid/5115_GPL/Hybrid_security_baseline/output/package/host-ssl/md2.o
 .bss           0x000000000001f4d0        0x0 /home/z00250609/hybrid/5115_GPL/Hybrid_security_baseline/output/package/host-ssl/md4.o
 .bss           0x000000000001f4d0        0x0 /home/z00250609/hybrid/5115_GPL/Hybrid_security_baseline/output/package/host-ssl/md5.o
 .bss           0x000000000001f4d0        0x0 /home/z00250609/hybrid/5115_GPL/Hybrid_security_baseline/output/package/host-ssl/net.o
 .bss           0x000000000001f4d0        0x0 /home/z00250609/hybrid/5115_GPL/Hybrid_security_baseline/output/package/host-ssl/padlock.o
 .bss           0x000000000001f4d0        0x0 /home/z00250609/hybrid/5115_GPL/Hybrid_security_baseline/output/package/host-ssl/rsa.o
 .bss           0x000000000001f4d0        0x0 /home/z00250609/hybrid/5115_GPL/Hybrid_security_baseline/output/package/host-ssl/sha1.o
 .bss           0x000000000001f4d0        0x0 /home/z00250609/hybrid/5115_GPL/Hybrid_security_baseline/output/package/host-ssl/sha2.o
 .bss           0x000000000001f4d0        0x0 /home/z00250609/hybrid/5115_GPL/Hybrid_security_baseline/output/package/host-ssl/sha4.o
 .bss           0x000000000001f4d0        0xc /home/z00250609/hybrid/5115_GPL/Hybrid_security_baseline/output/package/host-ssl/ssl_cli.o
 .bss           0x000000000001f4dc        0x0 /home/z00250609/hybrid/5115_GPL/Hybrid_security_baseline/output/package/host-ssl/ssl_srv.o
 .bss           0x000000000001f4dc        0x0 /home/z00250609/hybrid/5115_GPL/Hybrid_security_baseline/output/package/host-ssl/ssl_tls.o
 .bss           0x000000000001f4dc        0x4 /home/z00250609/hybrid/5115_GPL/Hybrid_security_baseline/output/package/host-ssl/timing.o
                0x000000000001f4dc                alarmed
 .bss           0x000000000001f4e0        0x0 /home/z00250609/hybrid/5115_GPL/Hybrid_security_baseline/output/package/host-ssl/x509parse.o
 .bss           0x000000000001f4e0        0x0 /home/z00250609/hybrid/5115_GPL/Hybrid_security_baseline/output/package/host-ssl/xtea.o
 .bss           0x000000000001f4e0        0x0 /home/z00250609/hybrid/5115_GPL/Hybrid_security_baseline/output/package/host-ssl/camellia.o
 .bss           0x000000000001f4e0        0x0 /usr/lib/gcc/i586-suse-linux/4.3/crtendS.o
 .bss           0x000000000001f4e0        0x0 /usr/lib/gcc/i586-suse-linux/4.3/../../../crtn.o
 *(COMMON)
                0x000000000001f4e0                . = ALIGN ((. != 0x0)?0x4:0x1)
                0x000000000001f4e0                . = ALIGN (0x4)
                0x000000000001f4e0                . = ALIGN (0x4)
                0x000000000001f4e0                _end = .
                0x000000000001f4e0                PROVIDE (end, .)
                0x000000000001f4e0                . = DATA_SEGMENT_END (.)

.stab
 *(.stab)

.stabstr
 *(.stabstr)

.stab.excl
 *(.stab.excl)

.stab.exclstr
 *(.stab.exclstr)

.stab.index
 *(.stab.index)

.stab.indexstr
 *(.stab.indexstr)

.comment.SUSE.OPTs
                0x0000000000000000        0x6
 .comment.SUSE.OPTs
                0x0000000000000000        0x6 /home/z00250609/hybrid/5115_GPL/Hybrid_security_baseline/output/package/host-ssl/aes.o
 .comment.SUSE.OPTs
                0x0000000000000000        0x6 /home/z00250609/hybrid/5115_GPL/Hybrid_security_baseline/output/package/host-ssl/arc4.o
 .comment.SUSE.OPTs
                0x0000000000000000        0x6 /home/z00250609/hybrid/5115_GPL/Hybrid_security_baseline/output/package/host-ssl/base64.o
 .comment.SUSE.OPTs
                0x0000000000000000        0x6 /home/z00250609/hybrid/5115_GPL/Hybrid_security_baseline/output/package/host-ssl/bignum.o
 .comment.SUSE.OPTs
                0x0000000000000000        0x6 /home/z00250609/hybrid/5115_GPL/Hybrid_security_baseline/output/package/host-ssl/certs.o
 .comment.SUSE.OPTs
                0x0000000000000000        0x6 /home/z00250609/hybrid/5115_GPL/Hybrid_security_baseline/output/package/host-ssl/debug.o
 .comment.SUSE.OPTs
                0x0000000000000000        0x6 /home/z00250609/hybrid/5115_GPL/Hybrid_security_baseline/output/package/host-ssl/des.o
 .comment.SUSE.OPTs
                0x0000000000000000        0x6 /home/z00250609/hybrid/5115_GPL/Hybrid_security_baseline/output/package/host-ssl/dhm.o
 .comment.SUSE.OPTs
                0x0000000000000000        0x6 /home/z00250609/hybrid/5115_GPL/Hybrid_security_baseline/output/package/host-ssl/havege.o
 .comment.SUSE.OPTs
                0x0000000000000000        0x6 /home/z00250609/hybrid/5115_GPL/Hybrid_security_baseline/output/package/host-ssl/md2.o
 .comment.SUSE.OPTs
                0x0000000000000000        0x6 /home/z00250609/hybrid/5115_GPL/Hybrid_security_baseline/output/package/host-ssl/md4.o
 .comment.SUSE.OPTs
                0x0000000000000000        0x6 /home/z00250609/hybrid/5115_GPL/Hybrid_security_baseline/output/package/host-ssl/md5.o
 .comment.SUSE.OPTs
                0x0000000000000000        0x6 /home/z00250609/hybrid/5115_GPL/Hybrid_security_baseline/output/package/host-ssl/net.o
 .comment.SUSE.OPTs
                0x0000000000000000        0x6 /home/z00250609/hybrid/5115_GPL/Hybrid_security_baseline/output/package/host-ssl/padlock.o
 .comment.SUSE.OPTs
                0x0000000000000000        0x6 /home/z00250609/hybrid/5115_GPL/Hybrid_security_baseline/output/package/host-ssl/rsa.o
 .comment.SUSE.OPTs
                0x0000000000000000        0x6 /home/z00250609/hybrid/5115_GPL/Hybrid_security_baseline/output/package/host-ssl/sha1.o
 .comment.SUSE.OPTs
                0x0000000000000000        0x6 /home/z00250609/hybrid/5115_GPL/Hybrid_security_baseline/output/package/host-ssl/sha2.o
 .comment.SUSE.OPTs
                0x0000000000000000        0x6 /home/z00250609/hybrid/5115_GPL/Hybrid_security_baseline/output/package/host-ssl/sha4.o
 .comment.SUSE.OPTs
                0x0000000000000000        0x6 /home/z00250609/hybrid/5115_GPL/Hybrid_security_baseline/output/package/host-ssl/ssl_cli.o
 .comment.SUSE.OPTs
                0x0000000000000000        0x6 /home/z00250609/hybrid/5115_GPL/Hybrid_security_baseline/output/package/host-ssl/ssl_srv.o
 .comment.SUSE.OPTs
                0x0000000000000000        0x6 /home/z00250609/hybrid/5115_GPL/Hybrid_security_baseline/output/package/host-ssl/ssl_tls.o
 .comment.SUSE.OPTs
                0x0000000000000000        0x6 /home/z00250609/hybrid/5115_GPL/Hybrid_security_baseline/output/package/host-ssl/timing.o
 .comment.SUSE.OPTs
                0x0000000000000000        0x6 /home/z00250609/hybrid/5115_GPL/Hybrid_security_baseline/output/package/host-ssl/x509parse.o
 .comment.SUSE.OPTs
                0x0000000000000000        0x6 /home/z00250609/hybrid/5115_GPL/Hybrid_security_baseline/output/package/host-ssl/xtea.o
 .comment.SUSE.OPTs
                0x0000000000000000        0x6 /home/z00250609/hybrid/5115_GPL/Hybrid_security_baseline/output/package/host-ssl/camellia.o

.comment        0x0000000000000000       0x39
 *(.comment)
 .comment       0x0000000000000000       0x39 /usr/lib/gcc/i586-suse-linux/4.3/../../../crti.o
                                         0x3a (size before relaxing)
 .comment       0x0000000000000000       0x3a /usr/lib/gcc/i586-suse-linux/4.3/crtbeginS.o
 .comment       0x0000000000000000       0x3a /home/z00250609/hybrid/5115_GPL/Hybrid_security_baseline/output/package/host-ssl/aes.o
 .comment       0x0000000000000000       0x3a /home/z00250609/hybrid/5115_GPL/Hybrid_security_baseline/output/package/host-ssl/arc4.o
 .comment       0x0000000000000000       0x3a /home/z00250609/hybrid/5115_GPL/Hybrid_security_baseline/output/package/host-ssl/base64.o
 .comment       0x0000000000000000       0x3a /home/z00250609/hybrid/5115_GPL/Hybrid_security_baseline/output/package/host-ssl/bignum.o
 .comment       0x0000000000000000       0x3a /home/z00250609/hybrid/5115_GPL/Hybrid_security_baseline/output/package/host-ssl/certs.o
 .comment       0x0000000000000000       0x3a /home/z00250609/hybrid/5115_GPL/Hybrid_security_baseline/output/package/host-ssl/debug.o
 .comment       0x0000000000000000       0x3a /home/z00250609/hybrid/5115_GPL/Hybrid_security_baseline/output/package/host-ssl/des.o
 .comment       0x0000000000000000       0x3a /home/z00250609/hybrid/5115_GPL/Hybrid_security_baseline/output/package/host-ssl/dhm.o
 .comment       0x0000000000000000       0x3a /home/z00250609/hybrid/5115_GPL/Hybrid_security_baseline/output/package/host-ssl/havege.o
 .comment       0x0000000000000000       0x3a /home/z00250609/hybrid/5115_GPL/Hybrid_security_baseline/output/package/host-ssl/md2.o
 .comment       0x0000000000000000       0x3a /home/z00250609/hybrid/5115_GPL/Hybrid_security_baseline/output/package/host-ssl/md4.o
 .comment       0x0000000000000000       0x3a /home/z00250609/hybrid/5115_GPL/Hybrid_security_baseline/output/package/host-ssl/md5.o
 .comment       0x0000000000000000       0x3a /home/z00250609/hybrid/5115_GPL/Hybrid_security_baseline/output/package/host-ssl/net.o
 .comment       0x0000000000000000       0x3a /home/z00250609/hybrid/5115_GPL/Hybrid_security_baseline/output/package/host-ssl/padlock.o
 .comment       0x0000000000000000       0x3a /home/z00250609/hybrid/5115_GPL/Hybrid_security_baseline/output/package/host-ssl/rsa.o
 .comment       0x0000000000000000       0x3a /home/z00250609/hybrid/5115_GPL/Hybrid_security_baseline/output/package/host-ssl/sha1.o
 .comment       0x0000000000000000       0x3a /home/z00250609/hybrid/5115_GPL/Hybrid_security_baseline/output/package/host-ssl/sha2.o
 .comment       0x0000000000000000       0x3a /home/z00250609/hybrid/5115_GPL/Hybrid_security_baseline/output/package/host-ssl/sha4.o
 .comment       0x0000000000000000       0x3a /home/z00250609/hybrid/5115_GPL/Hybrid_security_baseline/output/package/host-ssl/ssl_cli.o
 .comment       0x0000000000000000       0x3a /home/z00250609/hybrid/5115_GPL/Hybrid_security_baseline/output/package/host-ssl/ssl_srv.o
 .comment       0x0000000000000000       0x3a /home/z00250609/hybrid/5115_GPL/Hybrid_security_baseline/output/package/host-ssl/ssl_tls.o
 .comment       0x0000000000000000       0x3a /home/z00250609/hybrid/5115_GPL/Hybrid_security_baseline/output/package/host-ssl/timing.o
 .comment       0x0000000000000000       0x3a /home/z00250609/hybrid/5115_GPL/Hybrid_security_baseline/output/package/host-ssl/x509parse.o
 .comment       0x0000000000000000       0x3a /home/z00250609/hybrid/5115_GPL/Hybrid_security_baseline/output/package/host-ssl/xtea.o
 .comment       0x0000000000000000       0x3a /home/z00250609/hybrid/5115_GPL/Hybrid_security_baseline/output/package/host-ssl/camellia.o
 .comment       0x0000000000000000       0x3a /usr/lib/gcc/i586-suse-linux/4.3/crtendS.o
 .comment       0x0000000000000000       0x3a /usr/lib/gcc/i586-suse-linux/4.3/../../../crtn.o

.debug
 *(.debug)

.line
 *(.line)

.debug_srcinfo
 *(.debug_srcinfo)

.debug_sfnames
 *(.debug_sfnames)

.debug_aranges
 *(.debug_aranges)

.debug_pubnames
 *(.debug_pubnames)

.debug_info
 *(.debug_info .gnu.linkonce.wi.*)

.debug_abbrev
 *(.debug_abbrev)

.debug_line
 *(.debug_line)

.debug_frame
 *(.debug_frame)

.debug_str
 *(.debug_str)

.debug_loc
 *(.debug_loc)

.debug_macinfo
 *(.debug_macinfo)

.debug_weaknames
 *(.debug_weaknames)

.debug_funcnames
 *(.debug_funcnames)

.debug_typenames
 *(.debug_typenames)

.debug_varnames
 *(.debug_varnames)

.debug_pubtypes
 *(.debug_pubtypes)

.debug_ranges
 *(.debug_ranges)

.gnu.attributes
 *(.gnu.attributes)

/DISCARD/
 *(.note.GNU-stack)
 *(.gnu_debuglink)
 *(.gnu.lto_*)
OUTPUT(/home/z00250609/hybrid/5115_GPL/Hybrid_security_baseline/output/package/host-ssl/libcrypto.so elf32-i386)
