Certificate:
    Data:
        Version: 3 (0x2)
        Serial Number: 1 (0x1)
        Signature Algorithm: md5WithRSAEncryption
        Issuer: C=CN, ST=Guangdong, L=Shenzhen, O=Huawei, OU=ATP, CN=atp1.com/emailAddress=atp1.huawei.com
        Validity
            Not Before: Jul 17 06:32:07 2009 GMT
            Not After : Jul 15 06:32:07 2019 GMT
        Subject: CN=atp2.com, ST=Guangdong, C=CN/emailAddress=atp2.huawei.com, O=Huawei, OU=atp2.com\x08\x08\x08\x08
        Subject Public Key Info:
            Public Key Algorithm: rsaEncryption
            RSA Public Key: (2048 bit)
                Modulus (2048 bit):
                    00:df:4b:e7:cc:ae:a4:ca:88:6f:b3:e4:bd:0e:6b:
                    7a:93:1c:26:29:c3:0d:40:36:a6:63:d9:ee:6a:e2:
                    53:93:64:33:2c:66:30:b2:0f:9c:1d:98:c6:99:8e:
                    16:33:8c:d0:79:b2:a6:f1:c7:be:ad:25:85:11:33:
                    2c:99:bb:67:0c:0d:77:d6:47:4a:da:3b:a4:b9:5e:
                    d5:33:9d:52:78:41:3a:fe:3f:93:3f:82:e2:52:f0:
                    e3:e9:db:b1:08:3f:25:4b:c3:fb:f4:17:6a:bb:65:
                    a7:35:33:87:7f:8a:11:a2:e5:3a:c3:d3:9f:e3:5a:
                    d7:e2:55:f5:f7:28:6c:32:30:c3:a7:ba:96:c6:2e:
                    64:a3:4c:90:9c:3a:b2:d4:78:f0:b4:26:d8:e8:cb:
                    cf:ef:00:7c:7f:0a:c8:70:9a:a9:a0:f4:41:e4:4f:
                    65:36:bc:32:92:7b:06:d5:23:82:1e:bf:c8:83:68:
                    07:01:32:49:15:9b:e7:63:30:43:2f:f1:fe:7e:7e:
                    7a:31:5b:d0:3e:fa:bd:ba:60:23:1c:fa:b9:a9:50:
                    76:a0:2f:09:3c:d1:60:5f:f2:a7:6a:61:30:79:c8:
                    4e:e7:5e:d9:67:56:ef:4d:60:63:75:b6:69:e5:f7:
                    e3:a4:6c:2a:75:f2:05:19:04:c0:71:98:0f:ad:92:
                    f4:f7
                Exponent: 65537 (0x10001)
        X509v3 extensions:
            X509v3 Basic Constraints: 
            CA:FALSE
    Signature Algorithm: md5WithRSAEncryption
        1e:8a:0f:55:00:a1:0b:26:f6:8b:6a:86:a6:fa:46:57:83:90:
        be:f4:7f:af:ae:a5:e2:78:99:8b:04:f2:5c:09:80:b1:4a:13:
        fa:26:48:b8:e2:b5:7e:87:18:06:ae:7b:d1:35:19:24:8c:4f:
        43:d4:69:ef:c5:90:24:8a:bc:27:54:8c:69:e4:cc:4b:40:14:
        5a:e0:da:28:83:45:83:10:f2:b6:a2:78:33:cf:57:29:f8:f0:
        dd:bc:0e:2d:52:6c:ca:cf:16:28:c3:93:03:a8:ef:81:d2:2d:
        89:97:ec:e1:3d:1b:b8:aa:05:1b:88:b7:46:ff:e8:88:bb:76:
        6d:29:f8:07:49:94:6a:e2:f2:30:23:6c:01:72:37:7a:73:7a:
        c6:f5:7a:20:e2:29:9c:cc:54:a1:0f:c8:94:a9:d8:48:e3:2c:
        85:7a:dc:e0:66:63:d4:d7:73:b8:6a:c0:15:49:bd:49:89:6b:
        9f:69:10:dd:cf:7f:ba:a9:e8:bd:c9:6a:a3:9b:39:22:49:7b:
        f5:2e:60:ec:9d:e3:fa:f7:66:b0:70:5c:70:a3:82:ca:bf:95:
        e7:eb:6f:14:9a:7e:4b:b1:7c:1d:44:8e:72:2e:26:28:fc:2b:
        f7:47:72:5e:65:d1:b2:eb:a5:0e:17:b6:6d:ea:03:1a:de:3f:
        a7:e9:2f:28
-----BEGIN CERTIFICATE-----
MIIDizCCAnOgAwIBAgIBATANBgkqhkiG9w0BAQQFADCBhjELMAkGA1UEBhMCQ04x
EjAQBgNVBAgTCUd1YW5nZG9uZzERMA8GA1UEBxMIU2hlbnpoZW4xDzANBgNVBAoT
Bkh1YXdlaTEMMAoGA1UECxMDQVRQMREwDwYDVQQDEwhhdHAxLmNvbTEeMBwGCSqG
SIb3DQEJARYPYXRwMS5odWF3ZWkuY29tMB4XDTA5MDcxNzA2MzIwN1oXDTE5MDcx
NTA2MzIwN1owfDERMA8GA1UEAxMIYXRwMi5jb20xEjAQBgNVBAgTCUd1YW5nZG9u
ZzELMAkGA1UEBhMCQ04xHjAcBgkqhkiG9w0BCQEWD2F0cDIuaHVhd2VpLmNvbTEP
MA0GA1UEChMGSHVhd2VpMRUwEwYDVQQLFAxhdHAyLmNvbQgICAgwggEiMA0GCSqG
SIb3DQEBAQUAA4IBDwAwggEKAoIBAQDfS+fMrqTKiG+z5L0Oa3qTHCYpww1ANqZj
2e5q4lOTZDMsZjCyD5wdmMaZjhYzjNB5sqbxx76tJYURMyyZu2cMDXfWR0raO6S5
XtUznVJ4QTr+P5M/guJS8OPp27EIPyVLw/v0F2q7Zac1M4d/ihGi5TrD05/jWtfi
VfX3KGwyMMOnupbGLmSjTJCcOrLUePC0Jtjoy8/vAHx/Cshwmqmg9EHkT2U2vDKS
ewbVI4Iev8iDaAcBMkkVm+djMEMv8f5+fnoxW9A++r26YCMc+rmpUHagLwk80WBf
8qdqYTB5yE7nXtlnVu9NYGN1tmnl9+OkbCp18gUZBMBxmA+tkvT3AgMBAAGjDTAL
MAkGA1UdEwQCMAAwDQYJKoZIhvcNAQEEBQADggEBAB6KD1UAoQsm9otqhqb6RleD
kL70f6+upeJ4mYsE8lwJgLFKE/omSLjitX6HGAaue9E1GSSMT0PUae/FkCSKvCdU
jGnkzEtAFFrg2iiDRYMQ8raieDPPVyn48N28Di1SbMrPFijDkwOo74HSLYmX7OE9
G7iqBRuIt0b/6Ii7dm0p+AdJlGri8jAjbAFyN3pzesb1eiDiKZzMVKEPyJSp2Ejj
LIV63OBmY9TXc7hqwBVJvUmJa59pEN3Pf7qp6L3JaqObOSJJe/UuYOyd4/r3ZrBw
XHCjgsq/lefrbxSafkuxfB1EjnIuJij8K/dHcl5l0bLrpQ4Xtm3qAxreP6fpLyg=
-----END CERTIFICATE-----
