Archive member included because of file (symbol)

/home/z00250609/hybrid/5115_GPL/Hybrid_security_baseline/output/host/usr/arm-unknown-linux-uclibcgnueabi/sysroot/lib/libcmscore.a(cmsmsgproc.o)
                              (--whole-archive)
/home/z00250609/hybrid/5115_GPL/Hybrid_security_baseline/output/host/usr/arm-unknown-linux-uclibcgnueabi/sysroot/lib/libcmscore.a(cmsutil.o)
                              (--whole-archive)
/home/z00250609/hybrid/5115_GPL/Hybrid_security_baseline/output/host/usr/arm-unknown-linux-uclibcgnueabi/sysroot/lib/libcmscore.a(cmsinitapi.o)
                              (--whole-archive)
/home/z00250609/hybrid/5115_GPL/Hybrid_security_baseline/output/host/usr/arm-unknown-linux-uclibcgnueabi/sysroot/lib/libcmscore.a(cmssigqueue.o)
                              (--whole-archive)
/home/z00250609/hybrid/5115_GPL/Hybrid_security_baseline/output/host/usr/arm-unknown-linux-uclibcgnueabi/sysroot/lib/libledservicecms.a(ledserviceini.o)
                              (--whole-archive)
/home/z00250609/hybrid/5115_GPL/Hybrid_security_baseline/output/host/usr/arm-unknown-linux-uclibcgnueabi/sysroot/lib/libtr143cms.a(tr143cmsmsgproc.o)
                              (--whole-archive)
/home/z00250609/hybrid/5115_GPL/Hybrid_security_baseline/output/host/usr/arm-unknown-linux-uclibcgnueabi/sysroot/lib/libclicms.a(clicmsmsgproc.o)
                              (--whole-archive)
/home/z00250609/hybrid/5115_GPL/Hybrid_security_baseline/output/host/usr/arm-unknown-linux-uclibcgnueabi/sysroot/lib/libcwmpcms.a(cwmpcmsmsgproc.o)
                              (--whole-archive)
/home/z00250609/hybrid/5115_GPL/Hybrid_security_baseline/output/host/usr/arm-unknown-linux-uclibcgnueabi/sysroot/lib/libcwmpcms.a(cwmpcms.o)
                              (--whole-archive)
/home/z00250609/hybrid/5115_GPL/Hybrid_security_baseline/output/host/usr/arm-unknown-linux-uclibcgnueabi/sysroot/lib/libippingcms.a(ippingcmsmsgproc.o)
                              (--whole-archive)
/home/z00250609/hybrid/5115_GPL/Hybrid_security_baseline/output/host/usr/arm-unknown-linux-uclibcgnueabi/sysroot/lib/liblogcms.a(logcms.o)
                              (--whole-archive)
/home/z00250609/hybrid/5115_GPL/Hybrid_security_baseline/output/host/usr/arm-unknown-linux-uclibcgnueabi/sysroot/lib/liblogcms.a(logcmsinit.o)
                              (--whole-archive)
/home/z00250609/hybrid/5115_GPL/Hybrid_security_baseline/output/host/usr/arm-unknown-linux-uclibcgnueabi/sysroot/lib/liblogcms.a(logcmsmsgproc.o)
                              (--whole-archive)
/home/z00250609/hybrid/5115_GPL/Hybrid_security_baseline/output/host/usr/arm-unknown-linux-uclibcgnueabi/sysroot/lib/libportmntcms.a(portmntcms.o)
                              (--whole-archive)
/home/z00250609/hybrid/5115_GPL/Hybrid_security_baseline/output/host/usr/arm-unknown-linux-uclibcgnueabi/sysroot/lib/libsyscfgcms.a(syscfginit.o)
                              (--whole-archive)
/home/z00250609/hybrid/5115_GPL/Hybrid_security_baseline/output/host/usr/arm-unknown-linux-uclibcgnueabi/sysroot/lib/libsyscfgcms.a(syscfgcmsmsgproc.o)
                              (--whole-archive)
/home/z00250609/hybrid/5115_GPL/Hybrid_security_baseline/output/host/usr/arm-unknown-linux-uclibcgnueabi/sysroot/lib/libsyscfgcms.a(syscfgcms.o)
                              (--whole-archive)
/home/z00250609/hybrid/5115_GPL/Hybrid_security_baseline/output/host/usr/arm-unknown-linux-uclibcgnueabi/sysroot/lib/libsysinfocms.a(sysinfoinit.o)
                              (--whole-archive)
/home/z00250609/hybrid/5115_GPL/Hybrid_security_baseline/output/host/usr/arm-unknown-linux-uclibcgnueabi/sysroot/lib/libsysinfocms.a(sysinfocmsmsgproc.o)
                              (--whole-archive)
/home/z00250609/hybrid/5115_GPL/Hybrid_security_baseline/output/host/usr/arm-unknown-linux-uclibcgnueabi/sysroot/lib/libsysinfocms.a(sysinfocms.o)
                              (--whole-archive)
/home/z00250609/hybrid/5115_GPL/Hybrid_security_baseline/output/host/usr/arm-unknown-linux-uclibcgnueabi/sysroot/lib/libtr111cms.a(tr111cmsmsgproc.o)
                              (--whole-archive)
/home/z00250609/hybrid/5115_GPL/Hybrid_security_baseline/output/host/usr/arm-unknown-linux-uclibcgnueabi/sysroot/lib/libtr111cms.a(tr111cms.o)
                              (--whole-archive)
/home/z00250609/hybrid/5115_GPL/Hybrid_security_baseline/output/host/usr/arm-unknown-linux-uclibcgnueabi/sysroot/lib/libtraceroutecms.a(traceroutecmsmsgproc.o)
                              (--whole-archive)
/home/z00250609/hybrid/5115_GPL/Hybrid_security_baseline/output/host/usr/arm-unknown-linux-uclibcgnueabi/sysroot/lib/libupnpcms.a(upnpcms.o)
                              (--whole-archive)
/home/z00250609/hybrid/5115_GPL/Hybrid_security_baseline/output/host/usr/arm-unknown-linux-uclibcgnueabi/sysroot/lib/libwebcms.a(webcmsmsgproc.o)
                              (--whole-archive)
/home/z00250609/hybrid/5115_GPL/Hybrid_security_baseline/output/host/usr/arm-unknown-linux-uclibcgnueabi/sysroot/lib/libalgcms.a(algapi.o)
                              (--whole-archive)
/home/z00250609/hybrid/5115_GPL/Hybrid_security_baseline/output/host/usr/arm-unknown-linux-uclibcgnueabi/sysroot/lib/libbridgecms.a(bridgecms.o)
                              (--whole-archive)
/home/z00250609/hybrid/5115_GPL/Hybrid_security_baseline/output/host/usr/arm-unknown-linux-uclibcgnueabi/sysroot/lib/libbridgecms.a(bridgecmsinit.o)
                              (--whole-archive)
/home/z00250609/hybrid/5115_GPL/Hybrid_security_baseline/output/host/usr/arm-unknown-linux-uclibcgnueabi/sysroot/lib/libbridgecms.a(bridgecmsmsgproc.o)
                              (--whole-archive)
/home/z00250609/hybrid/5115_GPL/Hybrid_security_baseline/output/host/usr/arm-unknown-linux-uclibcgnueabi/sysroot/lib/libipv6commoncms.a(ipv6commoncms.o)
                              (--whole-archive)
/home/z00250609/hybrid/5115_GPL/Hybrid_security_baseline/output/host/usr/arm-unknown-linux-uclibcgnueabi/sysroot/lib/libipv6commoncms.a(ipv6commoncmsproc.o)
                              (--whole-archive)
/home/z00250609/hybrid/5115_GPL/Hybrid_security_baseline/output/host/usr/arm-unknown-linux-uclibcgnueabi/sysroot/lib/libddnscms.a(ddnscms.o)
                              (--whole-archive)
/home/z00250609/hybrid/5115_GPL/Hybrid_security_baseline/output/host/usr/arm-unknown-linux-uclibcgnueabi/sysroot/lib/libddnscms.a(ddnscmsinit.o)
                              (--whole-archive)
/home/z00250609/hybrid/5115_GPL/Hybrid_security_baseline/output/host/usr/arm-unknown-linux-uclibcgnueabi/sysroot/lib/libddnscms.a(ddnscmsmsgproc.o)
                              (--whole-archive)
/home/z00250609/hybrid/5115_GPL/Hybrid_security_baseline/output/host/usr/arm-unknown-linux-uclibcgnueabi/sysroot/lib/libddnscms.a(ddnscmsapi.o)
                              (--whole-archive)
/home/z00250609/hybrid/5115_GPL/Hybrid_security_baseline/output/host/usr/arm-unknown-linux-uclibcgnueabi/sysroot/lib/libdhcp6ccms.a(dhcp6ccms.o)
                              (--whole-archive)
/home/z00250609/hybrid/5115_GPL/Hybrid_security_baseline/output/host/usr/arm-unknown-linux-uclibcgnueabi/sysroot/lib/libdhcp6ccms.a(dhcp6ccmsmsgproc.o)
                              (--whole-archive)
/home/z00250609/hybrid/5115_GPL/Hybrid_security_baseline/output/host/usr/arm-unknown-linux-uclibcgnueabi/sysroot/lib/libdhcp6scms.a(dhcp6scms.o)
                              (--whole-archive)
/home/z00250609/hybrid/5115_GPL/Hybrid_security_baseline/output/host/usr/arm-unknown-linux-uclibcgnueabi/sysroot/lib/libdhcp6scms.a(dhcp6scmsinit.o)
                              (--whole-archive)
/home/z00250609/hybrid/5115_GPL/Hybrid_security_baseline/output/host/usr/arm-unknown-linux-uclibcgnueabi/sysroot/lib/libdhcp6scms.a(dhcp6scmsmsgproc.o)
                              (--whole-archive)
/home/z00250609/hybrid/5115_GPL/Hybrid_security_baseline/output/host/usr/arm-unknown-linux-uclibcgnueabi/sysroot/lib/libdhcp6scms.a(dhcp6scmsapi.o)
                              (--whole-archive)
/home/z00250609/hybrid/5115_GPL/Hybrid_security_baseline/output/host/usr/arm-unknown-linux-uclibcgnueabi/sysroot/lib/libdhcpccms.a(dhcpccmsmsgproc.o)
                              (--whole-archive)
/home/z00250609/hybrid/5115_GPL/Hybrid_security_baseline/output/host/usr/arm-unknown-linux-uclibcgnueabi/sysroot/lib/libdhcpccms.a(dhcpccmsinit.o)
                              (--whole-archive)
/home/z00250609/hybrid/5115_GPL/Hybrid_security_baseline/output/host/usr/arm-unknown-linux-uclibcgnueabi/sysroot/lib/libdhcpccms.a(dhcpccms.o)
                              (--whole-archive)
/home/z00250609/hybrid/5115_GPL/Hybrid_security_baseline/output/host/usr/arm-unknown-linux-uclibcgnueabi/sysroot/lib/libdhcpscms.a(lanapi.o)
                              (--whole-archive)
/home/z00250609/hybrid/5115_GPL/Hybrid_security_baseline/output/host/usr/arm-unknown-linux-uclibcgnueabi/sysroot/lib/libdhcpscms.a(lanutil.o)
                              (--whole-archive)
/home/z00250609/hybrid/5115_GPL/Hybrid_security_baseline/output/host/usr/arm-unknown-linux-uclibcgnueabi/sysroot/lib/libdhcpscms.a(dhcpscmsinit.o)
                              (--whole-archive)
/home/z00250609/hybrid/5115_GPL/Hybrid_security_baseline/output/host/usr/arm-unknown-linux-uclibcgnueabi/sysroot/lib/libdhcpscms.a(dhcpscmsnotifymngr.o)
                              (--whole-archive)
/home/z00250609/hybrid/5115_GPL/Hybrid_security_baseline/output/host/usr/arm-unknown-linux-uclibcgnueabi/sysroot/lib/libdhcpscms.a(dhcpscmsmsgproc.o)
                              (--whole-archive)
/home/z00250609/hybrid/5115_GPL/Hybrid_security_baseline/output/host/usr/arm-unknown-linux-uclibcgnueabi/sysroot/lib/libdhcpscms.a(dhcpscms.o)
                              (--whole-archive)
/home/z00250609/hybrid/5115_GPL/Hybrid_security_baseline/output/host/usr/arm-unknown-linux-uclibcgnueabi/sysroot/lib/libdnscms.a(dnscmsinit.o)
                              (--whole-archive)
/home/z00250609/hybrid/5115_GPL/Hybrid_security_baseline/output/host/usr/arm-unknown-linux-uclibcgnueabi/sysroot/lib/libdnscms.a(dnscms.o)
                              (--whole-archive)
/home/z00250609/hybrid/5115_GPL/Hybrid_security_baseline/output/host/usr/arm-unknown-linux-uclibcgnueabi/sysroot/lib/liblanethcms.a(ethcms.o)
                              (--whole-archive)
/home/z00250609/hybrid/5115_GPL/Hybrid_security_baseline/output/host/usr/arm-unknown-linux-uclibcgnueabi/sysroot/lib/liblanethcms.a(ethapi.o)
                              (--whole-archive)
/home/z00250609/hybrid/5115_GPL/Hybrid_security_baseline/output/host/usr/arm-unknown-linux-uclibcgnueabi/sysroot/lib/libwanethcms.a(wecms.o)
                              (--whole-archive)
/home/z00250609/hybrid/5115_GPL/Hybrid_security_baseline/output/host/usr/arm-unknown-linux-uclibcgnueabi/sysroot/lib/libwanethcms.a(wecmsinit.o)
                              (--whole-archive)
/home/z00250609/hybrid/5115_GPL/Hybrid_security_baseline/output/host/usr/arm-unknown-linux-uclibcgnueabi/sysroot/lib/libwanethcms.a(wecmsmsgproc.o)
                              (--whole-archive)
/home/z00250609/hybrid/5115_GPL/Hybrid_security_baseline/output/host/usr/arm-unknown-linux-uclibcgnueabi/sysroot/lib/libfirewallcms.a(firewallapi.o)
                              (--whole-archive)
/home/z00250609/hybrid/5115_GPL/Hybrid_security_baseline/output/host/usr/arm-unknown-linux-uclibcgnueabi/sysroot/lib/libfirewallcms.a(firewallcmsmsgproc.o)
                              (--whole-archive)
/home/z00250609/hybrid/5115_GPL/Hybrid_security_baseline/output/host/usr/arm-unknown-linux-uclibcgnueabi/sysroot/lib/libfirewallcms.a(firewallutil.o)
                              (--whole-archive)
/home/z00250609/hybrid/5115_GPL/Hybrid_security_baseline/output/host/usr/arm-unknown-linux-uclibcgnueabi/sysroot/lib/libfirewallcms.a(firewallconfig.o)
                              (--whole-archive)
/home/z00250609/hybrid/5115_GPL/Hybrid_security_baseline/output/host/usr/arm-unknown-linux-uclibcgnueabi/sysroot/lib/libfirewallcms.a(firewallservice.o)
                              (--whole-archive)
/home/z00250609/hybrid/5115_GPL/Hybrid_security_baseline/output/host/usr/arm-unknown-linux-uclibcgnueabi/sysroot/lib/libfirewallcms.a(firewalllist.o)
                              (--whole-archive)
/home/z00250609/hybrid/5115_GPL/Hybrid_security_baseline/output/host/usr/arm-unknown-linux-uclibcgnueabi/sysroot/lib/libfirewallcms.a(macflt.o)
                              (--whole-archive)
/home/z00250609/hybrid/5115_GPL/Hybrid_security_baseline/output/host/usr/arm-unknown-linux-uclibcgnueabi/sysroot/lib/libfirewallcms.a(urlflt.o)
                              (--whole-archive)
/home/z00250609/hybrid/5115_GPL/Hybrid_security_baseline/output/host/usr/arm-unknown-linux-uclibcgnueabi/sysroot/lib/libfirewallcms.a(ipflt.o)
                              (--whole-archive)
/home/z00250609/hybrid/5115_GPL/Hybrid_security_baseline/output/host/usr/arm-unknown-linux-uclibcgnueabi/sysroot/lib/libfirewallcms.a(appflt.o)
                              (--whole-archive)
/home/z00250609/hybrid/5115_GPL/Hybrid_security_baseline/output/host/usr/arm-unknown-linux-uclibcgnueabi/sysroot/lib/libfirewallcms.a(dosattack.o)
                              (--whole-archive)
/home/z00250609/hybrid/5115_GPL/Hybrid_security_baseline/output/host/usr/arm-unknown-linux-uclibcgnueabi/sysroot/lib/libfirewallcms.a(acl.o)
                              (--whole-archive)
/home/z00250609/hybrid/5115_GPL/Hybrid_security_baseline/output/host/usr/arm-unknown-linux-uclibcgnueabi/sysroot/lib/libfirewallcms.a(aclex.o)
                              (--whole-archive)
/home/z00250609/hybrid/5115_GPL/Hybrid_security_baseline/output/host/usr/arm-unknown-linux-uclibcgnueabi/sysroot/lib/libipcheckcms.a(ipcheckcms.o)
                              (--whole-archive)
/home/z00250609/hybrid/5115_GPL/Hybrid_security_baseline/output/host/usr/arm-unknown-linux-uclibcgnueabi/sysroot/lib/libipcheckcms.a(ipcheckcmsinit.o)
                              (--whole-archive)
/home/z00250609/hybrid/5115_GPL/Hybrid_security_baseline/output/host/usr/arm-unknown-linux-uclibcgnueabi/sysroot/lib/libipcheckcms.a(ipcheckcmsmsgproc.o)
                              (--whole-archive)
/home/z00250609/hybrid/5115_GPL/Hybrid_security_baseline/output/host/usr/arm-unknown-linux-uclibcgnueabi/sysroot/lib/libiptunnelcms.a(iptunnelcmsinit.o)
                              (--whole-archive)
/home/z00250609/hybrid/5115_GPL/Hybrid_security_baseline/output/host/usr/arm-unknown-linux-uclibcgnueabi/sysroot/lib/libiptunnelcms.a(iptunnelcmsapi.o)
                              (--whole-archive)
/home/z00250609/hybrid/5115_GPL/Hybrid_security_baseline/output/host/usr/arm-unknown-linux-uclibcgnueabi/sysroot/lib/libiptunnelcms.a(iptunnelcms.o)
                              (--whole-archive)
/home/z00250609/hybrid/5115_GPL/Hybrid_security_baseline/output/host/usr/arm-unknown-linux-uclibcgnueabi/sysroot/lib/libiptunnelcms.a(tunnel6rd.o)
                              (--whole-archive)
/home/z00250609/hybrid/5115_GPL/Hybrid_security_baseline/output/host/usr/arm-unknown-linux-uclibcgnueabi/sysroot/lib/libiptunnelcms.a(tunneldslite.o)
                              (--whole-archive)
/home/z00250609/hybrid/5115_GPL/Hybrid_security_baseline/output/host/usr/arm-unknown-linux-uclibcgnueabi/sysroot/lib/liblannamecms.a(lannamecms.o)
                              (--whole-archive)
/home/z00250609/hybrid/5115_GPL/Hybrid_security_baseline/output/host/usr/arm-unknown-linux-uclibcgnueabi/sysroot/lib/liblannamecms.a(lannamecmsmsgproc.o)
                              (--whole-archive)
/home/z00250609/hybrid/5115_GPL/Hybrid_security_baseline/output/host/usr/arm-unknown-linux-uclibcgnueabi/sysroot/lib/libmldcms.a(mldcms.o)
                              (--whole-archive)
/home/z00250609/hybrid/5115_GPL/Hybrid_security_baseline/output/host/usr/arm-unknown-linux-uclibcgnueabi/sysroot/lib/libmldcms.a(mldcmsmsgproc.o)
                              (--whole-archive)
/home/z00250609/hybrid/5115_GPL/Hybrid_security_baseline/output/host/usr/arm-unknown-linux-uclibcgnueabi/sysroot/lib/libnatcms.a(natcmsmsgproc.o)
                              (--whole-archive)
/home/z00250609/hybrid/5115_GPL/Hybrid_security_baseline/output/host/usr/arm-unknown-linux-uclibcgnueabi/sysroot/lib/libnatcms.a(natcmsinit.o)
                              (--whole-archive)
/home/z00250609/hybrid/5115_GPL/Hybrid_security_baseline/output/host/usr/arm-unknown-linux-uclibcgnueabi/sysroot/lib/libnatcms.a(natcms.o)
                              (--whole-archive)
/home/z00250609/hybrid/5115_GPL/Hybrid_security_baseline/output/host/usr/arm-unknown-linux-uclibcgnueabi/sysroot/lib/libnatcms.a(natutil.o)
                              (--whole-archive)
/home/z00250609/hybrid/5115_GPL/Hybrid_security_baseline/output/host/usr/arm-unknown-linux-uclibcgnueabi/sysroot/lib/libnatcms.a(natdmz.o)
                              (--whole-archive)
/home/z00250609/hybrid/5115_GPL/Hybrid_security_baseline/output/host/usr/arm-unknown-linux-uclibcgnueabi/sysroot/lib/libnatcms.a(natportmap.o)
                              (--whole-archive)
/home/z00250609/hybrid/5115_GPL/Hybrid_security_baseline/output/host/usr/arm-unknown-linux-uclibcgnueabi/sysroot/lib/libnatcms.a(prttrgapi.o)
                              (--whole-archive)
/home/z00250609/hybrid/5115_GPL/Hybrid_security_baseline/output/host/usr/arm-unknown-linux-uclibcgnueabi/sysroot/lib/libnatcms.a(prttrgutil.o)
                              (--whole-archive)
/home/z00250609/hybrid/5115_GPL/Hybrid_security_baseline/output/host/usr/arm-unknown-linux-uclibcgnueabi/sysroot/lib/libnatcms.a(natconenat.o)
                              (--whole-archive)
/home/z00250609/hybrid/5115_GPL/Hybrid_security_baseline/output/host/usr/arm-unknown-linux-uclibcgnueabi/sysroot/lib/libndiscms.a(wdsapi.o)
                              (--whole-archive)
/home/z00250609/hybrid/5115_GPL/Hybrid_security_baseline/output/host/usr/arm-unknown-linux-uclibcgnueabi/sysroot/lib/libpppccms.a(pppcapi.o)
                              (--whole-archive)
/home/z00250609/hybrid/5115_GPL/Hybrid_security_baseline/output/host/usr/arm-unknown-linux-uclibcgnueabi/sysroot/lib/libradvdcms.a(radvdcms.o)
                              (--whole-archive)
/home/z00250609/hybrid/5115_GPL/Hybrid_security_baseline/output/host/usr/arm-unknown-linux-uclibcgnueabi/sysroot/lib/libradvdcms.a(radvdcmsinit.o)
                              (--whole-archive)
/home/z00250609/hybrid/5115_GPL/Hybrid_security_baseline/output/host/usr/arm-unknown-linux-uclibcgnueabi/sysroot/lib/libradvdcms.a(radvdcmsmsgproc.o)
                              (--whole-archive)
/home/z00250609/hybrid/5115_GPL/Hybrid_security_baseline/output/host/usr/arm-unknown-linux-uclibcgnueabi/sysroot/lib/libradvdcms.a(radvdcmsapi.o)
                              (--whole-archive)
/home/z00250609/hybrid/5115_GPL/Hybrid_security_baseline/output/host/usr/arm-unknown-linux-uclibcgnueabi/sysroot/lib/libroute6cms.a(route6cms.o)
                              (--whole-archive)
/home/z00250609/hybrid/5115_GPL/Hybrid_security_baseline/output/host/usr/arm-unknown-linux-uclibcgnueabi/sysroot/lib/libroute6cms.a(route6cmsinit.o)
                              (--whole-archive)
/home/z00250609/hybrid/5115_GPL/Hybrid_security_baseline/output/host/usr/arm-unknown-linux-uclibcgnueabi/sysroot/lib/libroute6cms.a(route6cmsmsgproc.o)
                              (--whole-archive)
/home/z00250609/hybrid/5115_GPL/Hybrid_security_baseline/output/host/usr/arm-unknown-linux-uclibcgnueabi/sysroot/lib/libroute6cms.a(route6cmsapi.o)
                              (--whole-archive)
/home/z00250609/hybrid/5115_GPL/Hybrid_security_baseline/output/host/usr/arm-unknown-linux-uclibcgnueabi/sysroot/lib/libroutecms.a(routecmsmsgproc.o)
                              (--whole-archive)
/home/z00250609/hybrid/5115_GPL/Hybrid_security_baseline/output/host/usr/arm-unknown-linux-uclibcgnueabi/sysroot/lib/libroutecms.a(routecmsinit.o)
                              (--whole-archive)
/home/z00250609/hybrid/5115_GPL/Hybrid_security_baseline/output/host/usr/arm-unknown-linux-uclibcgnueabi/sysroot/lib/libroutecms.a(routecms.o)
                              (--whole-archive)
/home/z00250609/hybrid/5115_GPL/Hybrid_security_baseline/output/host/usr/arm-unknown-linux-uclibcgnueabi/sysroot/lib/libroutecms.a(routedft.o)
                              (--whole-archive)
/home/z00250609/hybrid/5115_GPL/Hybrid_security_baseline/output/host/usr/arm-unknown-linux-uclibcgnueabi/sysroot/lib/libroutecms.a(routestatic.o)
                              (--whole-archive)
/home/z00250609/hybrid/5115_GPL/Hybrid_security_baseline/output/host/usr/arm-unknown-linux-uclibcgnueabi/sysroot/lib/libroutecms.a(routelist.o)
                              (--whole-archive)
/home/z00250609/hybrid/5115_GPL/Hybrid_security_baseline/output/host/usr/arm-unknown-linux-uclibcgnueabi/sysroot/lib/libroutecms.a(rip.o)
                              (--whole-archive)
/home/z00250609/hybrid/5115_GPL/Hybrid_security_baseline/output/host/usr/arm-unknown-linux-uclibcgnueabi/sysroot/lib/libroutecms.a(riplist.o)
                              (--whole-archive)
/home/z00250609/hybrid/5115_GPL/Hybrid_security_baseline/output/host/usr/arm-unknown-linux-uclibcgnueabi/sysroot/lib/libsntpcms.a(sntpcms.o)
                              (--whole-archive)
/home/z00250609/hybrid/5115_GPL/Hybrid_security_baseline/output/host/usr/arm-unknown-linux-uclibcgnueabi/sysroot/lib/libsntpcms.a(sntpcmsposixtime.o)
                              (--whole-archive)
/home/z00250609/hybrid/5115_GPL/Hybrid_security_baseline/output/host/usr/arm-unknown-linux-uclibcgnueabi/sysroot/lib/libsntpcms.a(sntpcmsmsgproc.o)
                              (--whole-archive)
/home/z00250609/hybrid/5115_GPL/Hybrid_security_baseline/output/host/usr/arm-unknown-linux-uclibcgnueabi/sysroot/lib/libwancms.a(wancmsmsgproc.o)
                              (--whole-archive)
/home/z00250609/hybrid/5115_GPL/Hybrid_security_baseline/output/host/usr/arm-unknown-linux-uclibcgnueabi/sysroot/lib/libwancms.a(wancmsinit.o)
                              (--whole-archive)
/home/z00250609/hybrid/5115_GPL/Hybrid_security_baseline/output/host/usr/arm-unknown-linux-uclibcgnueabi/sysroot/lib/libwancms.a(wancms.o)
                              (--whole-archive)
/home/z00250609/hybrid/5115_GPL/Hybrid_security_baseline/output/host/usr/arm-unknown-linux-uclibcgnueabi/sysroot/lib/libwancms.a(wancmsutil.o)
                              (--whole-archive)
/home/z00250609/hybrid/5115_GPL/Hybrid_security_baseline/output/host/usr/arm-unknown-linux-uclibcgnueabi/sysroot/lib/libwancms.a(wancmshookproc.o)
                              (--whole-archive)
/home/z00250609/hybrid/5115_GPL/Hybrid_security_baseline/output/host/usr/arm-unknown-linux-uclibcgnueabi/sysroot/lib/libwancms.a(wancmscall.o)
                              (--whole-archive)
/home/z00250609/hybrid/5115_GPL/Hybrid_security_baseline/output/host/usr/arm-unknown-linux-uclibcgnueabi/sysroot/lib/libwancms.a(wancmsget.o)
                              (--whole-archive)
/home/z00250609/hybrid/5115_GPL/Hybrid_security_baseline/output/host/usr/arm-unknown-linux-uclibcgnueabi/sysroot/lib/libwancorecms.a(wancorecms.o)
                              (--whole-archive)
/home/z00250609/hybrid/5115_GPL/Hybrid_security_baseline/output/host/usr/arm-unknown-linux-uclibcgnueabi/sysroot/lib/libwanumtscms.a(wucms.o)
                              (--whole-archive)
/home/z00250609/hybrid/5115_GPL/Hybrid_security_baseline/output/host/usr/arm-unknown-linux-uclibcgnueabi/sysroot/lib/libwanumtscms.a(wucmsinit.o)
                              (--whole-archive)
/home/z00250609/hybrid/5115_GPL/Hybrid_security_baseline/output/host/usr/arm-unknown-linux-uclibcgnueabi/sysroot/lib/libwanumtscms.a(wucmsmsgproc.o)
                              (--whole-archive)
/home/z00250609/hybrid/5115_GPL/Hybrid_security_baseline/output/host/usr/arm-unknown-linux-uclibcgnueabi/sysroot/lib/libwanumtscms.a(wuprofile.o)
                              (--whole-archive)
/home/z00250609/hybrid/5115_GPL/Hybrid_security_baseline/output/host/usr/arm-unknown-linux-uclibcgnueabi/sysroot/lib/libwanvlancms.a(wanvlancmsmsgproc.o)
                              (--whole-archive)
/home/z00250609/hybrid/5115_GPL/Hybrid_security_baseline/output/host/usr/arm-unknown-linux-uclibcgnueabi/sysroot/lib/libwanvlancms.a(wanvlancmsinit.o)
                              (--whole-archive)
/home/z00250609/hybrid/5115_GPL/Hybrid_security_baseline/output/host/usr/arm-unknown-linux-uclibcgnueabi/sysroot/lib/libwanvlancms.a(wanvlancms.o)
                              (--whole-archive)
/opt/toolchain_hisi/arm-hsan-linux-uclibcgnueabi/bin/../lib/gcc/arm-hsan-linux-uclibcgnueabi/4.4.6/libgcc.a(_divsi3.o)
                              /home/z00250609/hybrid/5115_GPL/Hybrid_security_baseline/output/host/usr/arm-unknown-linux-uclibcgnueabi/sysroot/lib/libipv6commoncms.a(ipv6commoncms.o) (__aeabi_idivmod)
/opt/toolchain_hisi/arm-hsan-linux-uclibcgnueabi/bin/../lib/gcc/arm-hsan-linux-uclibcgnueabi/4.4.6/libgcc.a(_arm_addsubdf3.o)
                              /home/z00250609/hybrid/5115_GPL/Hybrid_security_baseline/output/host/usr/arm-unknown-linux-uclibcgnueabi/sysroot/lib/libradvdcms.a(radvdcms.o) (__aeabi_f2d)
/opt/toolchain_hisi/arm-hsan-linux-uclibcgnueabi/bin/../lib/gcc/arm-hsan-linux-uclibcgnueabi/4.4.6/libgcc.a(_arm_muldivdf3.o)
                              /home/z00250609/hybrid/5115_GPL/Hybrid_security_baseline/output/host/usr/arm-unknown-linux-uclibcgnueabi/sysroot/lib/libradvdcms.a(radvdcms.o) (__aeabi_dmul)
/opt/toolchain_hisi/arm-hsan-linux-uclibcgnueabi/bin/../lib/gcc/arm-hsan-linux-uclibcgnueabi/4.4.6/libgcc.a(_arm_fixdfsi.o)
                              /home/z00250609/hybrid/5115_GPL/Hybrid_security_baseline/output/host/usr/arm-unknown-linux-uclibcgnueabi/sysroot/lib/libradvdcms.a(radvdcms.o) (__aeabi_d2iz)
/opt/toolchain_hisi/arm-hsan-linux-uclibcgnueabi/bin/../lib/gcc/arm-hsan-linux-uclibcgnueabi/4.4.6/libgcc.a(_arm_fixunsdfsi.o)
                              /home/z00250609/hybrid/5115_GPL/Hybrid_security_baseline/output/host/usr/arm-unknown-linux-uclibcgnueabi/sysroot/lib/libradvdcms.a(radvdcms.o) (__aeabi_d2uiz)
/opt/toolchain_hisi/arm-hsan-linux-uclibcgnueabi/bin/../lib/gcc/arm-hsan-linux-uclibcgnueabi/4.4.6/libgcc.a(_arm_addsubsf3.o)
                              /home/z00250609/hybrid/5115_GPL/Hybrid_security_baseline/output/host/usr/arm-unknown-linux-uclibcgnueabi/sysroot/lib/libradvdcms.a(radvdcms.o) (__aeabi_ui2f)
/opt/toolchain_hisi/arm-hsan-linux-uclibcgnueabi/bin/../lib/gcc/arm-hsan-linux-uclibcgnueabi/4.4.6/libgcc.a(_dvmd_lnx.o)
                              /opt/toolchain_hisi/arm-hsan-linux-uclibcgnueabi/bin/../lib/gcc/arm-hsan-linux-uclibcgnueabi/4.4.6/libgcc.a(_divsi3.o) (__div0)

Allocating common symbols
Common symbol       size              file

g_stWuDevice        0x5c              /home/z00250609/hybrid/5115_GPL/Hybrid_security_baseline/output/host/usr/arm-unknown-linux-uclibcgnueabi/sysroot/lib/libwanumtscms.a(wucms.o)
g_stRadvdInfo       0x490             /home/z00250609/hybrid/5115_GPL/Hybrid_security_baseline/output/host/usr/arm-unknown-linux-uclibcgnueabi/sysroot/lib/libradvdcms.a(radvdcmsinit.o)
g_stRadvdParameter  0x1720            /home/z00250609/hybrid/5115_GPL/Hybrid_security_baseline/output/host/usr/arm-unknown-linux-uclibcgnueabi/sysroot/lib/libradvdcms.a(radvdcmsinit.o)
g_acMldWanPath      0x81              /home/z00250609/hybrid/5115_GPL/Hybrid_security_baseline/output/host/usr/arm-unknown-linux-uclibcgnueabi/sysroot/lib/libmldcms.a(mldcms.o)
g_stDHCPv6SaveWanPara
                    0x6b0             /home/z00250609/hybrid/5115_GPL/Hybrid_security_baseline/output/host/usr/arm-unknown-linux-uclibcgnueabi/sysroot/lib/libipv6commoncms.a(ipv6commoncmsproc.o)
g_stWuInfo          0x34              /home/z00250609/hybrid/5115_GPL/Hybrid_security_baseline/output/host/usr/arm-unknown-linux-uclibcgnueabi/sysroot/lib/libwanumtscms.a(wucms.o)
g_ACSWan            0x34              /home/z00250609/hybrid/5115_GPL/Hybrid_security_baseline/output/host/usr/arm-unknown-linux-uclibcgnueabi/sysroot/lib/libwancms.a(wancmsinit.o)
g_stWeInfo          0x1c0             /home/z00250609/hybrid/5115_GPL/Hybrid_security_baseline/output/host/usr/arm-unknown-linux-uclibcgnueabi/sysroot/lib/libwanethcms.a(wecms.o)
g_astEthItfCfg      0x100             /home/z00250609/hybrid/5115_GPL/Hybrid_security_baseline/output/host/usr/arm-unknown-linux-uclibcgnueabi/sysroot/lib/liblanethcms.a(ethcms.o)

Discarded input sections

 .note.GNU-stack
                0x00000000        0x0 /home/z00250609/hybrid/5115_GPL/Hybrid_security_baseline/output/host/usr/arm-unknown-linux-uclibcgnueabi/sysroot/usr/lib/crt1.o
 .note.GNU-stack
                0x00000000        0x0 /home/z00250609/hybrid/5115_GPL/Hybrid_security_baseline/output/host/usr/arm-unknown-linux-uclibcgnueabi/sysroot/usr/lib/crti.o
 .note.GNU-stack
                0x00000000        0x0 /opt/toolchain_hisi/arm-hsan-linux-uclibcgnueabi/bin/../lib/gcc/arm-hsan-linux-uclibcgnueabi/4.4.6/crtbegin.o
 .note.GNU-stack
                0x00000000        0x0 /home/z00250609/hybrid/5115_GPL/Hybrid_security_baseline/output/package/atp/configuration/cmsmain/management.o
 .note.GNU-stack
                0x00000000        0x0 /home/z00250609/hybrid/5115_GPL/Hybrid_security_baseline/output/package/atp/configuration/cmsmain/cmsmonitor.o
 .note.GNU-stack
                0x00000000        0x0 /home/z00250609/hybrid/5115_GPL/Hybrid_security_baseline/output/package/atp/configuration/cmsmain/cmsinit.o
 .note.GNU-stack
                0x00000000        0x0 /home/z00250609/hybrid/5115_GPL/Hybrid_security_baseline/output/host/usr/arm-unknown-linux-uclibcgnueabi/sysroot/lib/libcmscore.a(cmsmsgproc.o)
 .note.GNU-stack
                0x00000000        0x0 /home/z00250609/hybrid/5115_GPL/Hybrid_security_baseline/output/host/usr/arm-unknown-linux-uclibcgnueabi/sysroot/lib/libcmscore.a(cmsutil.o)
 .note.GNU-stack
                0x00000000        0x0 /home/z00250609/hybrid/5115_GPL/Hybrid_security_baseline/output/host/usr/arm-unknown-linux-uclibcgnueabi/sysroot/lib/libcmscore.a(cmsinitapi.o)
 .note.GNU-stack
                0x00000000        0x0 /home/z00250609/hybrid/5115_GPL/Hybrid_security_baseline/output/host/usr/arm-unknown-linux-uclibcgnueabi/sysroot/lib/libcmscore.a(cmssigqueue.o)
 .note.GNU-stack
                0x00000000        0x0 /home/z00250609/hybrid/5115_GPL/Hybrid_security_baseline/output/host/usr/arm-unknown-linux-uclibcgnueabi/sysroot/lib/libledservicecms.a(ledserviceini.o)
 .note.GNU-stack
                0x00000000        0x0 /home/z00250609/hybrid/5115_GPL/Hybrid_security_baseline/output/host/usr/arm-unknown-linux-uclibcgnueabi/sysroot/lib/libtr143cms.a(tr143cmsmsgproc.o)
 .note.GNU-stack
                0x00000000        0x0 /home/z00250609/hybrid/5115_GPL/Hybrid_security_baseline/output/host/usr/arm-unknown-linux-uclibcgnueabi/sysroot/lib/libclicms.a(clicmsmsgproc.o)
 .note.GNU-stack
                0x00000000        0x0 /home/z00250609/hybrid/5115_GPL/Hybrid_security_baseline/output/host/usr/arm-unknown-linux-uclibcgnueabi/sysroot/lib/libcwmpcms.a(cwmpcmsmsgproc.o)
 .note.GNU-stack
                0x00000000        0x0 /home/z00250609/hybrid/5115_GPL/Hybrid_security_baseline/output/host/usr/arm-unknown-linux-uclibcgnueabi/sysroot/lib/libcwmpcms.a(cwmpcms.o)
 .note.GNU-stack
                0x00000000        0x0 /home/z00250609/hybrid/5115_GPL/Hybrid_security_baseline/output/host/usr/arm-unknown-linux-uclibcgnueabi/sysroot/lib/libippingcms.a(ippingcmsmsgproc.o)
 .note.GNU-stack
                0x00000000        0x0 /home/z00250609/hybrid/5115_GPL/Hybrid_security_baseline/output/host/usr/arm-unknown-linux-uclibcgnueabi/sysroot/lib/liblogcms.a(logcms.o)
 .note.GNU-stack
                0x00000000        0x0 /home/z00250609/hybrid/5115_GPL/Hybrid_security_baseline/output/host/usr/arm-unknown-linux-uclibcgnueabi/sysroot/lib/liblogcms.a(logcmsinit.o)
 .note.GNU-stack
                0x00000000        0x0 /home/z00250609/hybrid/5115_GPL/Hybrid_security_baseline/output/host/usr/arm-unknown-linux-uclibcgnueabi/sysroot/lib/liblogcms.a(logcmsmsgproc.o)
 .note.GNU-stack
                0x00000000        0x0 /home/z00250609/hybrid/5115_GPL/Hybrid_security_baseline/output/host/usr/arm-unknown-linux-uclibcgnueabi/sysroot/lib/libportmntcms.a(portmntcms.o)
 .note.GNU-stack
                0x00000000        0x0 /home/z00250609/hybrid/5115_GPL/Hybrid_security_baseline/output/host/usr/arm-unknown-linux-uclibcgnueabi/sysroot/lib/libsyscfgcms.a(syscfginit.o)
 .note.GNU-stack
                0x00000000        0x0 /home/z00250609/hybrid/5115_GPL/Hybrid_security_baseline/output/host/usr/arm-unknown-linux-uclibcgnueabi/sysroot/lib/libsyscfgcms.a(syscfgcmsmsgproc.o)
 .note.GNU-stack
                0x00000000        0x0 /home/z00250609/hybrid/5115_GPL/Hybrid_security_baseline/output/host/usr/arm-unknown-linux-uclibcgnueabi/sysroot/lib/libsyscfgcms.a(syscfgcms.o)
 .note.GNU-stack
                0x00000000        0x0 /home/z00250609/hybrid/5115_GPL/Hybrid_security_baseline/output/host/usr/arm-unknown-linux-uclibcgnueabi/sysroot/lib/libsysinfocms.a(sysinfoinit.o)
 .note.GNU-stack
                0x00000000        0x0 /home/z00250609/hybrid/5115_GPL/Hybrid_security_baseline/output/host/usr/arm-unknown-linux-uclibcgnueabi/sysroot/lib/libsysinfocms.a(sysinfocmsmsgproc.o)
 .note.GNU-stack
                0x00000000        0x0 /home/z00250609/hybrid/5115_GPL/Hybrid_security_baseline/output/host/usr/arm-unknown-linux-uclibcgnueabi/sysroot/lib/libsysinfocms.a(sysinfocms.o)
 .note.GNU-stack
                0x00000000        0x0 /home/z00250609/hybrid/5115_GPL/Hybrid_security_baseline/output/host/usr/arm-unknown-linux-uclibcgnueabi/sysroot/lib/libtr111cms.a(tr111cmsmsgproc.o)
 .note.GNU-stack
                0x00000000        0x0 /home/z00250609/hybrid/5115_GPL/Hybrid_security_baseline/output/host/usr/arm-unknown-linux-uclibcgnueabi/sysroot/lib/libtr111cms.a(tr111cms.o)
 .note.GNU-stack
                0x00000000        0x0 /home/z00250609/hybrid/5115_GPL/Hybrid_security_baseline/output/host/usr/arm-unknown-linux-uclibcgnueabi/sysroot/lib/libtraceroutecms.a(traceroutecmsmsgproc.o)
 .note.GNU-stack
                0x00000000        0x0 /home/z00250609/hybrid/5115_GPL/Hybrid_security_baseline/output/host/usr/arm-unknown-linux-uclibcgnueabi/sysroot/lib/libupnpcms.a(upnpcms.o)
 .note.GNU-stack
                0x00000000        0x0 /home/z00250609/hybrid/5115_GPL/Hybrid_security_baseline/output/host/usr/arm-unknown-linux-uclibcgnueabi/sysroot/lib/libwebcms.a(webcmsmsgproc.o)
 .note.GNU-stack
                0x00000000        0x0 /home/z00250609/hybrid/5115_GPL/Hybrid_security_baseline/output/host/usr/arm-unknown-linux-uclibcgnueabi/sysroot/lib/libalgcms.a(algapi.o)
 .note.GNU-stack
                0x00000000        0x0 /home/z00250609/hybrid/5115_GPL/Hybrid_security_baseline/output/host/usr/arm-unknown-linux-uclibcgnueabi/sysroot/lib/libbridgecms.a(bridgecms.o)
 .note.GNU-stack
                0x00000000        0x0 /home/z00250609/hybrid/5115_GPL/Hybrid_security_baseline/output/host/usr/arm-unknown-linux-uclibcgnueabi/sysroot/lib/libbridgecms.a(bridgecmsinit.o)
 .note.GNU-stack
                0x00000000        0x0 /home/z00250609/hybrid/5115_GPL/Hybrid_security_baseline/output/host/usr/arm-unknown-linux-uclibcgnueabi/sysroot/lib/libbridgecms.a(bridgecmsmsgproc.o)
 .note.GNU-stack
                0x00000000        0x0 /home/z00250609/hybrid/5115_GPL/Hybrid_security_baseline/output/host/usr/arm-unknown-linux-uclibcgnueabi/sysroot/lib/libipv6commoncms.a(ipv6commoncms.o)
 .note.GNU-stack
                0x00000000        0x0 /home/z00250609/hybrid/5115_GPL/Hybrid_security_baseline/output/host/usr/arm-unknown-linux-uclibcgnueabi/sysroot/lib/libipv6commoncms.a(ipv6commoncmsproc.o)
 .note.GNU-stack
                0x00000000        0x0 /home/z00250609/hybrid/5115_GPL/Hybrid_security_baseline/output/host/usr/arm-unknown-linux-uclibcgnueabi/sysroot/lib/libddnscms.a(ddnscms.o)
 .note.GNU-stack
                0x00000000        0x0 /home/z00250609/hybrid/5115_GPL/Hybrid_security_baseline/output/host/usr/arm-unknown-linux-uclibcgnueabi/sysroot/lib/libddnscms.a(ddnscmsinit.o)
 .note.GNU-stack
                0x00000000        0x0 /home/z00250609/hybrid/5115_GPL/Hybrid_security_baseline/output/host/usr/arm-unknown-linux-uclibcgnueabi/sysroot/lib/libddnscms.a(ddnscmsmsgproc.o)
 .note.GNU-stack
                0x00000000        0x0 /home/z00250609/hybrid/5115_GPL/Hybrid_security_baseline/output/host/usr/arm-unknown-linux-uclibcgnueabi/sysroot/lib/libddnscms.a(ddnscmsapi.o)
 .note.GNU-stack
                0x00000000        0x0 /home/z00250609/hybrid/5115_GPL/Hybrid_security_baseline/output/host/usr/arm-unknown-linux-uclibcgnueabi/sysroot/lib/libdhcp6ccms.a(dhcp6ccms.o)
 .note.GNU-stack
                0x00000000        0x0 /home/z00250609/hybrid/5115_GPL/Hybrid_security_baseline/output/host/usr/arm-unknown-linux-uclibcgnueabi/sysroot/lib/libdhcp6ccms.a(dhcp6ccmsmsgproc.o)
 .note.GNU-stack
                0x00000000        0x0 /home/z00250609/hybrid/5115_GPL/Hybrid_security_baseline/output/host/usr/arm-unknown-linux-uclibcgnueabi/sysroot/lib/libdhcp6scms.a(dhcp6scms.o)
 .note.GNU-stack
                0x00000000        0x0 /home/z00250609/hybrid/5115_GPL/Hybrid_security_baseline/output/host/usr/arm-unknown-linux-uclibcgnueabi/sysroot/lib/libdhcp6scms.a(dhcp6scmsinit.o)
 .note.GNU-stack
                0x00000000        0x0 /home/z00250609/hybrid/5115_GPL/Hybrid_security_baseline/output/host/usr/arm-unknown-linux-uclibcgnueabi/sysroot/lib/libdhcp6scms.a(dhcp6scmsmsgproc.o)
 .note.GNU-stack
                0x00000000        0x0 /home/z00250609/hybrid/5115_GPL/Hybrid_security_baseline/output/host/usr/arm-unknown-linux-uclibcgnueabi/sysroot/lib/libdhcp6scms.a(dhcp6scmsapi.o)
 .note.GNU-stack
                0x00000000        0x0 /home/z00250609/hybrid/5115_GPL/Hybrid_security_baseline/output/host/usr/arm-unknown-linux-uclibcgnueabi/sysroot/lib/libdhcpccms.a(dhcpccmsmsgproc.o)
 .note.GNU-stack
                0x00000000        0x0 /home/z00250609/hybrid/5115_GPL/Hybrid_security_baseline/output/host/usr/arm-unknown-linux-uclibcgnueabi/sysroot/lib/libdhcpccms.a(dhcpccmsinit.o)
 .note.GNU-stack
                0x00000000        0x0 /home/z00250609/hybrid/5115_GPL/Hybrid_security_baseline/output/host/usr/arm-unknown-linux-uclibcgnueabi/sysroot/lib/libdhcpccms.a(dhcpccms.o)
 .note.GNU-stack
                0x00000000        0x0 /home/z00250609/hybrid/5115_GPL/Hybrid_security_baseline/output/host/usr/arm-unknown-linux-uclibcgnueabi/sysroot/lib/libdhcpscms.a(lanapi.o)
 .note.GNU-stack
                0x00000000        0x0 /home/z00250609/hybrid/5115_GPL/Hybrid_security_baseline/output/host/usr/arm-unknown-linux-uclibcgnueabi/sysroot/lib/libdhcpscms.a(lanutil.o)
 .note.GNU-stack
                0x00000000        0x0 /home/z00250609/hybrid/5115_GPL/Hybrid_security_baseline/output/host/usr/arm-unknown-linux-uclibcgnueabi/sysroot/lib/libdhcpscms.a(dhcpscmsinit.o)
 .note.GNU-stack
                0x00000000        0x0 /home/z00250609/hybrid/5115_GPL/Hybrid_security_baseline/output/host/usr/arm-unknown-linux-uclibcgnueabi/sysroot/lib/libdhcpscms.a(dhcpscmsnotifymngr.o)
 .note.GNU-stack
                0x00000000        0x0 /home/z00250609/hybrid/5115_GPL/Hybrid_security_baseline/output/host/usr/arm-unknown-linux-uclibcgnueabi/sysroot/lib/libdhcpscms.a(dhcpscmsmsgproc.o)
 .note.GNU-stack
                0x00000000        0x0 /home/z00250609/hybrid/5115_GPL/Hybrid_security_baseline/output/host/usr/arm-unknown-linux-uclibcgnueabi/sysroot/lib/libdhcpscms.a(dhcpscms.o)
 .note.GNU-stack
                0x00000000        0x0 /home/z00250609/hybrid/5115_GPL/Hybrid_security_baseline/output/host/usr/arm-unknown-linux-uclibcgnueabi/sysroot/lib/libdnscms.a(dnscmsinit.o)
 .note.GNU-stack
                0x00000000        0x0 /home/z00250609/hybrid/5115_GPL/Hybrid_security_baseline/output/host/usr/arm-unknown-linux-uclibcgnueabi/sysroot/lib/libdnscms.a(dnscms.o)
 .note.GNU-stack
                0x00000000        0x0 /home/z00250609/hybrid/5115_GPL/Hybrid_security_baseline/output/host/usr/arm-unknown-linux-uclibcgnueabi/sysroot/lib/liblanethcms.a(ethcms.o)
 .note.GNU-stack
                0x00000000        0x0 /home/z00250609/hybrid/5115_GPL/Hybrid_security_baseline/output/host/usr/arm-unknown-linux-uclibcgnueabi/sysroot/lib/liblanethcms.a(ethapi.o)
 .note.GNU-stack
                0x00000000        0x0 /home/z00250609/hybrid/5115_GPL/Hybrid_security_baseline/output/host/usr/arm-unknown-linux-uclibcgnueabi/sysroot/lib/libwanethcms.a(wecms.o)
 .note.GNU-stack
                0x00000000        0x0 /home/z00250609/hybrid/5115_GPL/Hybrid_security_baseline/output/host/usr/arm-unknown-linux-uclibcgnueabi/sysroot/lib/libwanethcms.a(wecmsinit.o)
 .note.GNU-stack
                0x00000000        0x0 /home/z00250609/hybrid/5115_GPL/Hybrid_security_baseline/output/host/usr/arm-unknown-linux-uclibcgnueabi/sysroot/lib/libwanethcms.a(wecmsmsgproc.o)
 .note.GNU-stack
                0x00000000        0x0 /home/z00250609/hybrid/5115_GPL/Hybrid_security_baseline/output/host/usr/arm-unknown-linux-uclibcgnueabi/sysroot/lib/libfirewallcms.a(firewallapi.o)
 .note.GNU-stack
                0x00000000        0x0 /home/z00250609/hybrid/5115_GPL/Hybrid_security_baseline/output/host/usr/arm-unknown-linux-uclibcgnueabi/sysroot/lib/libfirewallcms.a(firewallcmsmsgproc.o)
 .note.GNU-stack
                0x00000000        0x0 /home/z00250609/hybrid/5115_GPL/Hybrid_security_baseline/output/host/usr/arm-unknown-linux-uclibcgnueabi/sysroot/lib/libfirewallcms.a(firewallutil.o)
 .note.GNU-stack
                0x00000000        0x0 /home/z00250609/hybrid/5115_GPL/Hybrid_security_baseline/output/host/usr/arm-unknown-linux-uclibcgnueabi/sysroot/lib/libfirewallcms.a(firewallconfig.o)
 .note.GNU-stack
                0x00000000        0x0 /home/z00250609/hybrid/5115_GPL/Hybrid_security_baseline/output/host/usr/arm-unknown-linux-uclibcgnueabi/sysroot/lib/libfirewallcms.a(firewallservice.o)
 .note.GNU-stack
                0x00000000        0x0 /home/z00250609/hybrid/5115_GPL/Hybrid_security_baseline/output/host/usr/arm-unknown-linux-uclibcgnueabi/sysroot/lib/libfirewallcms.a(firewalllist.o)
 .note.GNU-stack
                0x00000000        0x0 /home/z00250609/hybrid/5115_GPL/Hybrid_security_baseline/output/host/usr/arm-unknown-linux-uclibcgnueabi/sysroot/lib/libfirewallcms.a(macflt.o)
 .note.GNU-stack
                0x00000000        0x0 /home/z00250609/hybrid/5115_GPL/Hybrid_security_baseline/output/host/usr/arm-unknown-linux-uclibcgnueabi/sysroot/lib/libfirewallcms.a(urlflt.o)
 .note.GNU-stack
                0x00000000        0x0 /home/z00250609/hybrid/5115_GPL/Hybrid_security_baseline/output/host/usr/arm-unknown-linux-uclibcgnueabi/sysroot/lib/libfirewallcms.a(ipflt.o)
 .note.GNU-stack
                0x00000000        0x0 /home/z00250609/hybrid/5115_GPL/Hybrid_security_baseline/output/host/usr/arm-unknown-linux-uclibcgnueabi/sysroot/lib/libfirewallcms.a(appflt.o)
 .note.GNU-stack
                0x00000000        0x0 /home/z00250609/hybrid/5115_GPL/Hybrid_security_baseline/output/host/usr/arm-unknown-linux-uclibcgnueabi/sysroot/lib/libfirewallcms.a(dosattack.o)
 .note.GNU-stack
                0x00000000        0x0 /home/z00250609/hybrid/5115_GPL/Hybrid_security_baseline/output/host/usr/arm-unknown-linux-uclibcgnueabi/sysroot/lib/libfirewallcms.a(acl.o)
 .note.GNU-stack
                0x00000000        0x0 /home/z00250609/hybrid/5115_GPL/Hybrid_security_baseline/output/host/usr/arm-unknown-linux-uclibcgnueabi/sysroot/lib/libfirewallcms.a(aclex.o)
 .note.GNU-stack
                0x00000000        0x0 /home/z00250609/hybrid/5115_GPL/Hybrid_security_baseline/output/host/usr/arm-unknown-linux-uclibcgnueabi/sysroot/lib/libipcheckcms.a(ipcheckcms.o)
 .note.GNU-stack
                0x00000000        0x0 /home/z00250609/hybrid/5115_GPL/Hybrid_security_baseline/output/host/usr/arm-unknown-linux-uclibcgnueabi/sysroot/lib/libipcheckcms.a(ipcheckcmsinit.o)
 .note.GNU-stack
                0x00000000        0x0 /home/z00250609/hybrid/5115_GPL/Hybrid_security_baseline/output/host/usr/arm-unknown-linux-uclibcgnueabi/sysroot/lib/libipcheckcms.a(ipcheckcmsmsgproc.o)
 .note.GNU-stack
                0x00000000        0x0 /home/z00250609/hybrid/5115_GPL/Hybrid_security_baseline/output/host/usr/arm-unknown-linux-uclibcgnueabi/sysroot/lib/libiptunnelcms.a(iptunnelcmsinit.o)
 .note.GNU-stack
                0x00000000        0x0 /home/z00250609/hybrid/5115_GPL/Hybrid_security_baseline/output/host/usr/arm-unknown-linux-uclibcgnueabi/sysroot/lib/libiptunnelcms.a(iptunnelcmsapi.o)
 .note.GNU-stack
                0x00000000        0x0 /home/z00250609/hybrid/5115_GPL/Hybrid_security_baseline/output/host/usr/arm-unknown-linux-uclibcgnueabi/sysroot/lib/libiptunnelcms.a(iptunnelcms.o)
 .note.GNU-stack
                0x00000000        0x0 /home/z00250609/hybrid/5115_GPL/Hybrid_security_baseline/output/host/usr/arm-unknown-linux-uclibcgnueabi/sysroot/lib/libiptunnelcms.a(tunnel6rd.o)
 .note.GNU-stack
                0x00000000        0x0 /home/z00250609/hybrid/5115_GPL/Hybrid_security_baseline/output/host/usr/arm-unknown-linux-uclibcgnueabi/sysroot/lib/libiptunnelcms.a(tunneldslite.o)
 .note.GNU-stack
                0x00000000        0x0 /home/z00250609/hybrid/5115_GPL/Hybrid_security_baseline/output/host/usr/arm-unknown-linux-uclibcgnueabi/sysroot/lib/liblannamecms.a(lannamecms.o)
 .note.GNU-stack
                0x00000000        0x0 /home/z00250609/hybrid/5115_GPL/Hybrid_security_baseline/output/host/usr/arm-unknown-linux-uclibcgnueabi/sysroot/lib/liblannamecms.a(lannamecmsmsgproc.o)
 .note.GNU-stack
                0x00000000        0x0 /home/z00250609/hybrid/5115_GPL/Hybrid_security_baseline/output/host/usr/arm-unknown-linux-uclibcgnueabi/sysroot/lib/libmldcms.a(mldcms.o)
 .note.GNU-stack
                0x00000000        0x0 /home/z00250609/hybrid/5115_GPL/Hybrid_security_baseline/output/host/usr/arm-unknown-linux-uclibcgnueabi/sysroot/lib/libmldcms.a(mldcmsmsgproc.o)
 .note.GNU-stack
                0x00000000        0x0 /home/z00250609/hybrid/5115_GPL/Hybrid_security_baseline/output/host/usr/arm-unknown-linux-uclibcgnueabi/sysroot/lib/libnatcms.a(natcmsmsgproc.o)
 .note.GNU-stack
                0x00000000        0x0 /home/z00250609/hybrid/5115_GPL/Hybrid_security_baseline/output/host/usr/arm-unknown-linux-uclibcgnueabi/sysroot/lib/libnatcms.a(natcmsinit.o)
 .note.GNU-stack
                0x00000000        0x0 /home/z00250609/hybrid/5115_GPL/Hybrid_security_baseline/output/host/usr/arm-unknown-linux-uclibcgnueabi/sysroot/lib/libnatcms.a(natcms.o)
 .note.GNU-stack
                0x00000000        0x0 /home/z00250609/hybrid/5115_GPL/Hybrid_security_baseline/output/host/usr/arm-unknown-linux-uclibcgnueabi/sysroot/lib/libnatcms.a(natutil.o)
 .note.GNU-stack
                0x00000000        0x0 /home/z00250609/hybrid/5115_GPL/Hybrid_security_baseline/output/host/usr/arm-unknown-linux-uclibcgnueabi/sysroot/lib/libnatcms.a(natdmz.o)
 .note.GNU-stack
                0x00000000        0x0 /home/z00250609/hybrid/5115_GPL/Hybrid_security_baseline/output/host/usr/arm-unknown-linux-uclibcgnueabi/sysroot/lib/libnatcms.a(natportmap.o)
 .note.GNU-stack
                0x00000000        0x0 /home/z00250609/hybrid/5115_GPL/Hybrid_security_baseline/output/host/usr/arm-unknown-linux-uclibcgnueabi/sysroot/lib/libnatcms.a(prttrgapi.o)
 .note.GNU-stack
                0x00000000        0x0 /home/z00250609/hybrid/5115_GPL/Hybrid_security_baseline/output/host/usr/arm-unknown-linux-uclibcgnueabi/sysroot/lib/libnatcms.a(prttrgutil.o)
 .note.GNU-stack
                0x00000000        0x0 /home/z00250609/hybrid/5115_GPL/Hybrid_security_baseline/output/host/usr/arm-unknown-linux-uclibcgnueabi/sysroot/lib/libnatcms.a(natconenat.o)
 .note.GNU-stack
                0x00000000        0x0 /home/z00250609/hybrid/5115_GPL/Hybrid_security_baseline/output/host/usr/arm-unknown-linux-uclibcgnueabi/sysroot/lib/libndiscms.a(wdsapi.o)
 .note.GNU-stack
                0x00000000        0x0 /home/z00250609/hybrid/5115_GPL/Hybrid_security_baseline/output/host/usr/arm-unknown-linux-uclibcgnueabi/sysroot/lib/libpppccms.a(pppcapi.o)
 .note.GNU-stack
                0x00000000        0x0 /home/z00250609/hybrid/5115_GPL/Hybrid_security_baseline/output/host/usr/arm-unknown-linux-uclibcgnueabi/sysroot/lib/libradvdcms.a(radvdcms.o)
 .note.GNU-stack
                0x00000000        0x0 /home/z00250609/hybrid/5115_GPL/Hybrid_security_baseline/output/host/usr/arm-unknown-linux-uclibcgnueabi/sysroot/lib/libradvdcms.a(radvdcmsinit.o)
 .note.GNU-stack
                0x00000000        0x0 /home/z00250609/hybrid/5115_GPL/Hybrid_security_baseline/output/host/usr/arm-unknown-linux-uclibcgnueabi/sysroot/lib/libradvdcms.a(radvdcmsmsgproc.o)
 .note.GNU-stack
                0x00000000        0x0 /home/z00250609/hybrid/5115_GPL/Hybrid_security_baseline/output/host/usr/arm-unknown-linux-uclibcgnueabi/sysroot/lib/libradvdcms.a(radvdcmsapi.o)
 .note.GNU-stack
                0x00000000        0x0 /home/z00250609/hybrid/5115_GPL/Hybrid_security_baseline/output/host/usr/arm-unknown-linux-uclibcgnueabi/sysroot/lib/libroute6cms.a(route6cms.o)
 .note.GNU-stack
                0x00000000        0x0 /home/z00250609/hybrid/5115_GPL/Hybrid_security_baseline/output/host/usr/arm-unknown-linux-uclibcgnueabi/sysroot/lib/libroute6cms.a(route6cmsinit.o)
 .note.GNU-stack
                0x00000000        0x0 /home/z00250609/hybrid/5115_GPL/Hybrid_security_baseline/output/host/usr/arm-unknown-linux-uclibcgnueabi/sysroot/lib/libroute6cms.a(route6cmsmsgproc.o)
 .note.GNU-stack
                0x00000000        0x0 /home/z00250609/hybrid/5115_GPL/Hybrid_security_baseline/output/host/usr/arm-unknown-linux-uclibcgnueabi/sysroot/lib/libroute6cms.a(route6cmsapi.o)
 .note.GNU-stack
                0x00000000        0x0 /home/z00250609/hybrid/5115_GPL/Hybrid_security_baseline/output/host/usr/arm-unknown-linux-uclibcgnueabi/sysroot/lib/libroutecms.a(routecmsmsgproc.o)
 .note.GNU-stack
                0x00000000        0x0 /home/z00250609/hybrid/5115_GPL/Hybrid_security_baseline/output/host/usr/arm-unknown-linux-uclibcgnueabi/sysroot/lib/libroutecms.a(routecmsinit.o)
 .note.GNU-stack
                0x00000000        0x0 /home/z00250609/hybrid/5115_GPL/Hybrid_security_baseline/output/host/usr/arm-unknown-linux-uclibcgnueabi/sysroot/lib/libroutecms.a(routecms.o)
 .note.GNU-stack
                0x00000000        0x0 /home/z00250609/hybrid/5115_GPL/Hybrid_security_baseline/output/host/usr/arm-unknown-linux-uclibcgnueabi/sysroot/lib/libroutecms.a(routedft.o)
 .note.GNU-stack
                0x00000000        0x0 /home/z00250609/hybrid/5115_GPL/Hybrid_security_baseline/output/host/usr/arm-unknown-linux-uclibcgnueabi/sysroot/lib/libroutecms.a(routestatic.o)
 .note.GNU-stack
                0x00000000        0x0 /home/z00250609/hybrid/5115_GPL/Hybrid_security_baseline/output/host/usr/arm-unknown-linux-uclibcgnueabi/sysroot/lib/libroutecms.a(routelist.o)
 .note.GNU-stack
                0x00000000        0x0 /home/z00250609/hybrid/5115_GPL/Hybrid_security_baseline/output/host/usr/arm-unknown-linux-uclibcgnueabi/sysroot/lib/libroutecms.a(rip.o)
 .note.GNU-stack
                0x00000000        0x0 /home/z00250609/hybrid/5115_GPL/Hybrid_security_baseline/output/host/usr/arm-unknown-linux-uclibcgnueabi/sysroot/lib/libroutecms.a(riplist.o)
 .note.GNU-stack
                0x00000000        0x0 /home/z00250609/hybrid/5115_GPL/Hybrid_security_baseline/output/host/usr/arm-unknown-linux-uclibcgnueabi/sysroot/lib/libsntpcms.a(sntpcms.o)
 .note.GNU-stack
                0x00000000        0x0 /home/z00250609/hybrid/5115_GPL/Hybrid_security_baseline/output/host/usr/arm-unknown-linux-uclibcgnueabi/sysroot/lib/libsntpcms.a(sntpcmsposixtime.o)
 .note.GNU-stack
                0x00000000        0x0 /home/z00250609/hybrid/5115_GPL/Hybrid_security_baseline/output/host/usr/arm-unknown-linux-uclibcgnueabi/sysroot/lib/libsntpcms.a(sntpcmsmsgproc.o)
 .note.GNU-stack
                0x00000000        0x0 /home/z00250609/hybrid/5115_GPL/Hybrid_security_baseline/output/host/usr/arm-unknown-linux-uclibcgnueabi/sysroot/lib/libwancms.a(wancmsmsgproc.o)
 .note.GNU-stack
                0x00000000        0x0 /home/z00250609/hybrid/5115_GPL/Hybrid_security_baseline/output/host/usr/arm-unknown-linux-uclibcgnueabi/sysroot/lib/libwancms.a(wancmsinit.o)
 .note.GNU-stack
                0x00000000        0x0 /home/z00250609/hybrid/5115_GPL/Hybrid_security_baseline/output/host/usr/arm-unknown-linux-uclibcgnueabi/sysroot/lib/libwancms.a(wancms.o)
 .note.GNU-stack
                0x00000000        0x0 /home/z00250609/hybrid/5115_GPL/Hybrid_security_baseline/output/host/usr/arm-unknown-linux-uclibcgnueabi/sysroot/lib/libwancms.a(wancmsutil.o)
 .note.GNU-stack
                0x00000000        0x0 /home/z00250609/hybrid/5115_GPL/Hybrid_security_baseline/output/host/usr/arm-unknown-linux-uclibcgnueabi/sysroot/lib/libwancms.a(wancmshookproc.o)
 .note.GNU-stack
                0x00000000        0x0 /home/z00250609/hybrid/5115_GPL/Hybrid_security_baseline/output/host/usr/arm-unknown-linux-uclibcgnueabi/sysroot/lib/libwancms.a(wancmscall.o)
 .note.GNU-stack
                0x00000000        0x0 /home/z00250609/hybrid/5115_GPL/Hybrid_security_baseline/output/host/usr/arm-unknown-linux-uclibcgnueabi/sysroot/lib/libwancms.a(wancmsget.o)
 .note.GNU-stack
                0x00000000        0x0 /home/z00250609/hybrid/5115_GPL/Hybrid_security_baseline/output/host/usr/arm-unknown-linux-uclibcgnueabi/sysroot/lib/libwancorecms.a(wancorecms.o)
 .note.GNU-stack
                0x00000000        0x0 /home/z00250609/hybrid/5115_GPL/Hybrid_security_baseline/output/host/usr/arm-unknown-linux-uclibcgnueabi/sysroot/lib/libwanumtscms.a(wucms.o)
 .note.GNU-stack
                0x00000000        0x0 /home/z00250609/hybrid/5115_GPL/Hybrid_security_baseline/output/host/usr/arm-unknown-linux-uclibcgnueabi/sysroot/lib/libwanumtscms.a(wucmsinit.o)
 .note.GNU-stack
                0x00000000        0x0 /home/z00250609/hybrid/5115_GPL/Hybrid_security_baseline/output/host/usr/arm-unknown-linux-uclibcgnueabi/sysroot/lib/libwanumtscms.a(wucmsmsgproc.o)
 .note.GNU-stack
                0x00000000        0x0 /home/z00250609/hybrid/5115_GPL/Hybrid_security_baseline/output/host/usr/arm-unknown-linux-uclibcgnueabi/sysroot/lib/libwanumtscms.a(wuprofile.o)
 .note.GNU-stack
                0x00000000        0x0 /home/z00250609/hybrid/5115_GPL/Hybrid_security_baseline/output/host/usr/arm-unknown-linux-uclibcgnueabi/sysroot/lib/libwanvlancms.a(wanvlancmsmsgproc.o)
 .note.GNU-stack
                0x00000000        0x0 /home/z00250609/hybrid/5115_GPL/Hybrid_security_baseline/output/host/usr/arm-unknown-linux-uclibcgnueabi/sysroot/lib/libwanvlancms.a(wanvlancmsinit.o)
 .note.GNU-stack
                0x00000000        0x0 /home/z00250609/hybrid/5115_GPL/Hybrid_security_baseline/output/host/usr/arm-unknown-linux-uclibcgnueabi/sysroot/lib/libwanvlancms.a(wanvlancms.o)
 .note.GNU-stack
                0x00000000        0x0 /opt/toolchain_hisi/arm-hsan-linux-uclibcgnueabi/bin/../lib/gcc/arm-hsan-linux-uclibcgnueabi/4.4.6/libgcc.a(_divsi3.o)
 .debug_frame   0x00000000       0x2c /opt/toolchain_hisi/arm-hsan-linux-uclibcgnueabi/bin/../lib/gcc/arm-hsan-linux-uclibcgnueabi/4.4.6/libgcc.a(_divsi3.o)
 .debug_line    0x00000000       0xc3 /opt/toolchain_hisi/arm-hsan-linux-uclibcgnueabi/bin/../lib/gcc/arm-hsan-linux-uclibcgnueabi/4.4.6/libgcc.a(_divsi3.o)
 .debug_info    0x00000000      0x103 /opt/toolchain_hisi/arm-hsan-linux-uclibcgnueabi/bin/../lib/gcc/arm-hsan-linux-uclibcgnueabi/4.4.6/libgcc.a(_divsi3.o)
 .debug_abbrev  0x00000000       0x14 /opt/toolchain_hisi/arm-hsan-linux-uclibcgnueabi/bin/../lib/gcc/arm-hsan-linux-uclibcgnueabi/4.4.6/libgcc.a(_divsi3.o)
 .debug_aranges
                0x00000000       0x20 /opt/toolchain_hisi/arm-hsan-linux-uclibcgnueabi/bin/../lib/gcc/arm-hsan-linux-uclibcgnueabi/4.4.6/libgcc.a(_divsi3.o)
 .note.GNU-stack
                0x00000000        0x0 /opt/toolchain_hisi/arm-hsan-linux-uclibcgnueabi/bin/../lib/gcc/arm-hsan-linux-uclibcgnueabi/4.4.6/libgcc.a(_arm_addsubdf3.o)
 .debug_line    0x00000000      0x195 /opt/toolchain_hisi/arm-hsan-linux-uclibcgnueabi/bin/../lib/gcc/arm-hsan-linux-uclibcgnueabi/4.4.6/libgcc.a(_arm_addsubdf3.o)
 .debug_info    0x00000000      0x102 /opt/toolchain_hisi/arm-hsan-linux-uclibcgnueabi/bin/../lib/gcc/arm-hsan-linux-uclibcgnueabi/4.4.6/libgcc.a(_arm_addsubdf3.o)
 .debug_abbrev  0x00000000       0x14 /opt/toolchain_hisi/arm-hsan-linux-uclibcgnueabi/bin/../lib/gcc/arm-hsan-linux-uclibcgnueabi/4.4.6/libgcc.a(_arm_addsubdf3.o)
 .debug_aranges
                0x00000000       0x20 /opt/toolchain_hisi/arm-hsan-linux-uclibcgnueabi/bin/../lib/gcc/arm-hsan-linux-uclibcgnueabi/4.4.6/libgcc.a(_arm_addsubdf3.o)
 .note.GNU-stack
                0x00000000        0x0 /opt/toolchain_hisi/arm-hsan-linux-uclibcgnueabi/bin/../lib/gcc/arm-hsan-linux-uclibcgnueabi/4.4.6/libgcc.a(_arm_muldivdf3.o)
 .debug_line    0x00000000      0x1ad /opt/toolchain_hisi/arm-hsan-linux-uclibcgnueabi/bin/../lib/gcc/arm-hsan-linux-uclibcgnueabi/4.4.6/libgcc.a(_arm_muldivdf3.o)
 .debug_info    0x00000000      0x102 /opt/toolchain_hisi/arm-hsan-linux-uclibcgnueabi/bin/../lib/gcc/arm-hsan-linux-uclibcgnueabi/4.4.6/libgcc.a(_arm_muldivdf3.o)
 .debug_abbrev  0x00000000       0x14 /opt/toolchain_hisi/arm-hsan-linux-uclibcgnueabi/bin/../lib/gcc/arm-hsan-linux-uclibcgnueabi/4.4.6/libgcc.a(_arm_muldivdf3.o)
 .debug_aranges
                0x00000000       0x20 /opt/toolchain_hisi/arm-hsan-linux-uclibcgnueabi/bin/../lib/gcc/arm-hsan-linux-uclibcgnueabi/4.4.6/libgcc.a(_arm_muldivdf3.o)
 .note.GNU-stack
                0x00000000        0x0 /opt/toolchain_hisi/arm-hsan-linux-uclibcgnueabi/bin/../lib/gcc/arm-hsan-linux-uclibcgnueabi/4.4.6/libgcc.a(_arm_fixdfsi.o)
 .debug_line    0x00000000       0xa5 /opt/toolchain_hisi/arm-hsan-linux-uclibcgnueabi/bin/../lib/gcc/arm-hsan-linux-uclibcgnueabi/4.4.6/libgcc.a(_arm_fixdfsi.o)
 .debug_info    0x00000000      0x102 /opt/toolchain_hisi/arm-hsan-linux-uclibcgnueabi/bin/../lib/gcc/arm-hsan-linux-uclibcgnueabi/4.4.6/libgcc.a(_arm_fixdfsi.o)
 .debug_abbrev  0x00000000       0x14 /opt/toolchain_hisi/arm-hsan-linux-uclibcgnueabi/bin/../lib/gcc/arm-hsan-linux-uclibcgnueabi/4.4.6/libgcc.a(_arm_fixdfsi.o)
 .debug_aranges
                0x00000000       0x20 /opt/toolchain_hisi/arm-hsan-linux-uclibcgnueabi/bin/../lib/gcc/arm-hsan-linux-uclibcgnueabi/4.4.6/libgcc.a(_arm_fixdfsi.o)
 .note.GNU-stack
                0x00000000        0x0 /opt/toolchain_hisi/arm-hsan-linux-uclibcgnueabi/bin/../lib/gcc/arm-hsan-linux-uclibcgnueabi/4.4.6/libgcc.a(_arm_fixunsdfsi.o)
 .debug_line    0x00000000       0xa3 /opt/toolchain_hisi/arm-hsan-linux-uclibcgnueabi/bin/../lib/gcc/arm-hsan-linux-uclibcgnueabi/4.4.6/libgcc.a(_arm_fixunsdfsi.o)
 .debug_info    0x00000000      0x102 /opt/toolchain_hisi/arm-hsan-linux-uclibcgnueabi/bin/../lib/gcc/arm-hsan-linux-uclibcgnueabi/4.4.6/libgcc.a(_arm_fixunsdfsi.o)
 .debug_abbrev  0x00000000       0x14 /opt/toolchain_hisi/arm-hsan-linux-uclibcgnueabi/bin/../lib/gcc/arm-hsan-linux-uclibcgnueabi/4.4.6/libgcc.a(_arm_fixunsdfsi.o)
 .debug_aranges
                0x00000000       0x20 /opt/toolchain_hisi/arm-hsan-linux-uclibcgnueabi/bin/../lib/gcc/arm-hsan-linux-uclibcgnueabi/4.4.6/libgcc.a(_arm_fixunsdfsi.o)
 .note.GNU-stack
                0x00000000        0x0 /opt/toolchain_hisi/arm-hsan-linux-uclibcgnueabi/bin/../lib/gcc/arm-hsan-linux-uclibcgnueabi/4.4.6/libgcc.a(_arm_addsubsf3.o)
 .debug_line    0x00000000      0x146 /opt/toolchain_hisi/arm-hsan-linux-uclibcgnueabi/bin/../lib/gcc/arm-hsan-linux-uclibcgnueabi/4.4.6/libgcc.a(_arm_addsubsf3.o)
 .debug_info    0x00000000      0x102 /opt/toolchain_hisi/arm-hsan-linux-uclibcgnueabi/bin/../lib/gcc/arm-hsan-linux-uclibcgnueabi/4.4.6/libgcc.a(_arm_addsubsf3.o)
 .debug_abbrev  0x00000000       0x14 /opt/toolchain_hisi/arm-hsan-linux-uclibcgnueabi/bin/../lib/gcc/arm-hsan-linux-uclibcgnueabi/4.4.6/libgcc.a(_arm_addsubsf3.o)
 .debug_aranges
                0x00000000       0x20 /opt/toolchain_hisi/arm-hsan-linux-uclibcgnueabi/bin/../lib/gcc/arm-hsan-linux-uclibcgnueabi/4.4.6/libgcc.a(_arm_addsubsf3.o)
 .note.GNU-stack
                0x00000000        0x0 /opt/toolchain_hisi/arm-hsan-linux-uclibcgnueabi/bin/../lib/gcc/arm-hsan-linux-uclibcgnueabi/4.4.6/libgcc.a(_dvmd_lnx.o)
 .debug_line    0x00000000       0x93 /opt/toolchain_hisi/arm-hsan-linux-uclibcgnueabi/bin/../lib/gcc/arm-hsan-linux-uclibcgnueabi/4.4.6/libgcc.a(_dvmd_lnx.o)
 .debug_info    0x00000000      0x103 /opt/toolchain_hisi/arm-hsan-linux-uclibcgnueabi/bin/../lib/gcc/arm-hsan-linux-uclibcgnueabi/4.4.6/libgcc.a(_dvmd_lnx.o)
 .debug_abbrev  0x00000000       0x14 /opt/toolchain_hisi/arm-hsan-linux-uclibcgnueabi/bin/../lib/gcc/arm-hsan-linux-uclibcgnueabi/4.4.6/libgcc.a(_dvmd_lnx.o)
 .debug_aranges
                0x00000000       0x20 /opt/toolchain_hisi/arm-hsan-linux-uclibcgnueabi/bin/../lib/gcc/arm-hsan-linux-uclibcgnueabi/4.4.6/libgcc.a(_dvmd_lnx.o)
 .note.GNU-stack
                0x00000000        0x0 /opt/toolchain_hisi/arm-hsan-linux-uclibcgnueabi/bin/../lib/gcc/arm-hsan-linux-uclibcgnueabi/4.4.6/crtend.o
 .note.GNU-stack
                0x00000000        0x0 /home/z00250609/hybrid/5115_GPL/Hybrid_security_baseline/output/host/usr/arm-unknown-linux-uclibcgnueabi/sysroot/usr/lib/crtn.o

Memory Configuration

Name             Origin             Length             Attributes
*default*        0x00000000         0xffffffff

Linker script and memory map

LOAD /home/z00250609/hybrid/5115_GPL/Hybrid_security_baseline/output/host/usr/arm-unknown-linux-uclibcgnueabi/sysroot/usr/lib/crt1.o
LOAD /home/z00250609/hybrid/5115_GPL/Hybrid_security_baseline/output/host/usr/arm-unknown-linux-uclibcgnueabi/sysroot/usr/lib/crti.o
LOAD /opt/toolchain_hisi/arm-hsan-linux-uclibcgnueabi/bin/../lib/gcc/arm-hsan-linux-uclibcgnueabi/4.4.6/crtbegin.o
LOAD /home/z00250609/hybrid/5115_GPL/Hybrid_security_baseline/output/package/atp/configuration/cmsmain/management.o
LOAD /home/z00250609/hybrid/5115_GPL/Hybrid_security_baseline/output/package/atp/configuration/cmsmain/cmsmonitor.o
LOAD /home/z00250609/hybrid/5115_GPL/Hybrid_security_baseline/output/package/atp/configuration/cmsmain/cmsinit.o
LOAD /home/z00250609/hybrid/5115_GPL/Hybrid_security_baseline/output/host/usr/arm-unknown-linux-uclibcgnueabi/sysroot/lib/libcmscore.a
LOAD /home/z00250609/hybrid/5115_GPL/Hybrid_security_baseline/output/host/usr/arm-unknown-linux-uclibcgnueabi/sysroot/lib/libledservicecms.a
LOAD /home/z00250609/hybrid/5115_GPL/Hybrid_security_baseline/output/host/usr/arm-unknown-linux-uclibcgnueabi/sysroot/lib/libtr143cms.a
LOAD /home/z00250609/hybrid/5115_GPL/Hybrid_security_baseline/output/host/usr/arm-unknown-linux-uclibcgnueabi/sysroot/lib/libclicms.a
LOAD /home/z00250609/hybrid/5115_GPL/Hybrid_security_baseline/output/host/usr/arm-unknown-linux-uclibcgnueabi/sysroot/lib/libcwmpcms.a
LOAD /home/z00250609/hybrid/5115_GPL/Hybrid_security_baseline/output/host/usr/arm-unknown-linux-uclibcgnueabi/sysroot/lib/libippingcms.a
LOAD /home/z00250609/hybrid/5115_GPL/Hybrid_security_baseline/output/host/usr/arm-unknown-linux-uclibcgnueabi/sysroot/lib/liblogcms.a
LOAD /home/z00250609/hybrid/5115_GPL/Hybrid_security_baseline/output/host/usr/arm-unknown-linux-uclibcgnueabi/sysroot/lib/libportmntcms.a
LOAD /home/z00250609/hybrid/5115_GPL/Hybrid_security_baseline/output/host/usr/arm-unknown-linux-uclibcgnueabi/sysroot/lib/libsyscfgcms.a
LOAD /home/z00250609/hybrid/5115_GPL/Hybrid_security_baseline/output/host/usr/arm-unknown-linux-uclibcgnueabi/sysroot/lib/libsysinfocms.a
LOAD /home/z00250609/hybrid/5115_GPL/Hybrid_security_baseline/output/host/usr/arm-unknown-linux-uclibcgnueabi/sysroot/lib/libtr111cms.a
LOAD /home/z00250609/hybrid/5115_GPL/Hybrid_security_baseline/output/host/usr/arm-unknown-linux-uclibcgnueabi/sysroot/lib/libtraceroutecms.a
LOAD /home/z00250609/hybrid/5115_GPL/Hybrid_security_baseline/output/host/usr/arm-unknown-linux-uclibcgnueabi/sysroot/lib/libupnpcms.a
LOAD /home/z00250609/hybrid/5115_GPL/Hybrid_security_baseline/output/host/usr/arm-unknown-linux-uclibcgnueabi/sysroot/lib/libwebcms.a
LOAD /home/z00250609/hybrid/5115_GPL/Hybrid_security_baseline/output/host/usr/arm-unknown-linux-uclibcgnueabi/sysroot/lib/libalgcms.a
LOAD /home/z00250609/hybrid/5115_GPL/Hybrid_security_baseline/output/host/usr/arm-unknown-linux-uclibcgnueabi/sysroot/lib/libbridgecms.a
LOAD /home/z00250609/hybrid/5115_GPL/Hybrid_security_baseline/output/host/usr/arm-unknown-linux-uclibcgnueabi/sysroot/lib/libipv6commoncms.a
LOAD /home/z00250609/hybrid/5115_GPL/Hybrid_security_baseline/output/host/usr/arm-unknown-linux-uclibcgnueabi/sysroot/lib/libddnscms.a
LOAD /home/z00250609/hybrid/5115_GPL/Hybrid_security_baseline/output/host/usr/arm-unknown-linux-uclibcgnueabi/sysroot/lib/libdhcp6ccms.a
LOAD /home/z00250609/hybrid/5115_GPL/Hybrid_security_baseline/output/host/usr/arm-unknown-linux-uclibcgnueabi/sysroot/lib/libdhcp6scms.a
LOAD /home/z00250609/hybrid/5115_GPL/Hybrid_security_baseline/output/host/usr/arm-unknown-linux-uclibcgnueabi/sysroot/lib/libdhcpccms.a
LOAD /home/z00250609/hybrid/5115_GPL/Hybrid_security_baseline/output/host/usr/arm-unknown-linux-uclibcgnueabi/sysroot/lib/libdhcpscms.a
LOAD /home/z00250609/hybrid/5115_GPL/Hybrid_security_baseline/output/host/usr/arm-unknown-linux-uclibcgnueabi/sysroot/lib/libdnscms.a
LOAD /home/z00250609/hybrid/5115_GPL/Hybrid_security_baseline/output/host/usr/arm-unknown-linux-uclibcgnueabi/sysroot/lib/liblanethcms.a
LOAD /home/z00250609/hybrid/5115_GPL/Hybrid_security_baseline/output/host/usr/arm-unknown-linux-uclibcgnueabi/sysroot/lib/libwanethcms.a
LOAD /home/z00250609/hybrid/5115_GPL/Hybrid_security_baseline/output/host/usr/arm-unknown-linux-uclibcgnueabi/sysroot/lib/libfirewallcms.a
LOAD /home/z00250609/hybrid/5115_GPL/Hybrid_security_baseline/output/host/usr/arm-unknown-linux-uclibcgnueabi/sysroot/lib/libipcheckcms.a
LOAD /home/z00250609/hybrid/5115_GPL/Hybrid_security_baseline/output/host/usr/arm-unknown-linux-uclibcgnueabi/sysroot/lib/libiptunnelcms.a
LOAD /home/z00250609/hybrid/5115_GPL/Hybrid_security_baseline/output/host/usr/arm-unknown-linux-uclibcgnueabi/sysroot/lib/liblannamecms.a
LOAD /home/z00250609/hybrid/5115_GPL/Hybrid_security_baseline/output/host/usr/arm-unknown-linux-uclibcgnueabi/sysroot/lib/libmldcms.a
LOAD /home/z00250609/hybrid/5115_GPL/Hybrid_security_baseline/output/host/usr/arm-unknown-linux-uclibcgnueabi/sysroot/lib/libnatcms.a
LOAD /home/z00250609/hybrid/5115_GPL/Hybrid_security_baseline/output/host/usr/arm-unknown-linux-uclibcgnueabi/sysroot/lib/libndiscms.a
LOAD /home/z00250609/hybrid/5115_GPL/Hybrid_security_baseline/output/host/usr/arm-unknown-linux-uclibcgnueabi/sysroot/lib/libpppccms.a
LOAD /home/z00250609/hybrid/5115_GPL/Hybrid_security_baseline/output/host/usr/arm-unknown-linux-uclibcgnueabi/sysroot/lib/libradvdcms.a
LOAD /home/z00250609/hybrid/5115_GPL/Hybrid_security_baseline/output/host/usr/arm-unknown-linux-uclibcgnueabi/sysroot/lib/libroute6cms.a
LOAD /home/z00250609/hybrid/5115_GPL/Hybrid_security_baseline/output/host/usr/arm-unknown-linux-uclibcgnueabi/sysroot/lib/libroutecms.a
LOAD /home/z00250609/hybrid/5115_GPL/Hybrid_security_baseline/output/host/usr/arm-unknown-linux-uclibcgnueabi/sysroot/lib/libsntpcms.a
LOAD /home/z00250609/hybrid/5115_GPL/Hybrid_security_baseline/output/host/usr/arm-unknown-linux-uclibcgnueabi/sysroot/lib/libwancms.a
LOAD /home/z00250609/hybrid/5115_GPL/Hybrid_security_baseline/output/host/usr/arm-unknown-linux-uclibcgnueabi/sysroot/lib/libwancorecms.a
LOAD /home/z00250609/hybrid/5115_GPL/Hybrid_security_baseline/output/host/usr/arm-unknown-linux-uclibcgnueabi/sysroot/lib/libwanumtscms.a
LOAD /home/z00250609/hybrid/5115_GPL/Hybrid_security_baseline/output/host/usr/arm-unknown-linux-uclibcgnueabi/sysroot/lib/libwanvlancms.a
LOAD /home/z00250609/hybrid/5115_GPL/Hybrid_security_baseline/output/host/usr/arm-unknown-linux-uclibcgnueabi/sysroot/lib/libhttpapi.so
LOAD /home/z00250609/hybrid/5115_GPL/Hybrid_security_baseline/output/host/usr/arm-unknown-linux-uclibcgnueabi/sysroot/lib/libcfmapi.so
LOAD /home/z00250609/hybrid/5115_GPL/Hybrid_security_baseline/output/host/usr/arm-unknown-linux-uclibcgnueabi/sysroot/lib/libmsgapi.so
LOAD /home/z00250609/hybrid/5115_GPL/Hybrid_security_baseline/output/host/usr/arm-unknown-linux-uclibcgnueabi/sysroot/lib/libxmlapi.so
LOAD /home/z00250609/hybrid/5115_GPL/Hybrid_security_baseline/output/host/usr/arm-unknown-linux-uclibcgnueabi/sysroot/lib/libbhalapi.so
LOAD /home/z00250609/hybrid/5115_GPL/Hybrid_security_baseline/output/host/usr/arm-unknown-linux-uclibcgnueabi/sysroot/lib/liblgplutil.so
LOAD /home/z00250609/hybrid/5115_GPL/Hybrid_security_baseline/output/host/usr/arm-unknown-linux-uclibcgnueabi/sysroot/usr/lib/libpthread.so
START GROUP
LOAD /opt/toolchain_hisi/arm-hsan-linux-uclibcgnueabi/bin/../lib/gcc/arm-hsan-linux-uclibcgnueabi/4.4.6/../../../../arm-hsan-linux-uclibcgnueabi/lib/libpthread.so.0
LOAD /home/z00250609/hybrid/5115_GPL/Hybrid_security_baseline/output/host/usr/arm-unknown-linux-uclibcgnueabi/sysroot/usr/lib/libpthread_nonshared.a
END GROUP
LOAD /home/z00250609/hybrid/5115_GPL/Hybrid_security_baseline/output/host/usr/arm-unknown-linux-uclibcgnueabi/sysroot/lib/libcrypto.so
LOAD /home/z00250609/hybrid/5115_GPL/Hybrid_security_baseline/output/host/usr/arm-unknown-linux-uclibcgnueabi/sysroot/lib/libz.so
LOAD /home/z00250609/hybrid/5115_GPL/Hybrid_security_baseline/output/host/usr/arm-unknown-linux-uclibcgnueabi/sysroot/lib/libatshared.so
LOAD /opt/toolchain_hisi/arm-hsan-linux-uclibcgnueabi/bin/../lib/gcc/arm-hsan-linux-uclibcgnueabi/4.4.6/libgcc.a
LOAD /opt/toolchain_hisi/arm-hsan-linux-uclibcgnueabi/bin/../lib/gcc/arm-hsan-linux-uclibcgnueabi/4.4.6/../../../../arm-hsan-linux-uclibcgnueabi/lib/libgcc_s.so
START GROUP
LOAD /opt/toolchain_hisi/arm-hsan-linux-uclibcgnueabi/bin/../lib/gcc/arm-hsan-linux-uclibcgnueabi/4.4.6/../../../../arm-hsan-linux-uclibcgnueabi/lib/libgcc_s.so.1
LOAD /opt/toolchain_hisi/arm-hsan-linux-uclibcgnueabi/bin/../lib/gcc/arm-hsan-linux-uclibcgnueabi/4.4.6/libgcc.a
END GROUP
LOAD /home/z00250609/hybrid/5115_GPL/Hybrid_security_baseline/output/host/usr/arm-unknown-linux-uclibcgnueabi/sysroot/usr/lib/libc.so
START GROUP
LOAD /opt/toolchain_hisi/arm-hsan-linux-uclibcgnueabi/bin/../lib/gcc/arm-hsan-linux-uclibcgnueabi/4.4.6/../../../../arm-hsan-linux-uclibcgnueabi/lib/libc.so.0
LOAD /home/z00250609/hybrid/5115_GPL/Hybrid_security_baseline/output/host/usr/arm-unknown-linux-uclibcgnueabi/sysroot/usr/lib/uclibc_nonshared.a
LOAD /opt/toolchain_hisi/arm-hsan-linux-uclibcgnueabi/bin/../lib/gcc/arm-hsan-linux-uclibcgnueabi/4.4.6/../../../../arm-hsan-linux-uclibcgnueabi/lib/ld-uClibc.so.0
END GROUP
LOAD /opt/toolchain_hisi/arm-hsan-linux-uclibcgnueabi/bin/../lib/gcc/arm-hsan-linux-uclibcgnueabi/4.4.6/libgcc.a
LOAD /opt/toolchain_hisi/arm-hsan-linux-uclibcgnueabi/bin/../lib/gcc/arm-hsan-linux-uclibcgnueabi/4.4.6/../../../../arm-hsan-linux-uclibcgnueabi/lib/libgcc_s.so
START GROUP
LOAD /opt/toolchain_hisi/arm-hsan-linux-uclibcgnueabi/bin/../lib/gcc/arm-hsan-linux-uclibcgnueabi/4.4.6/../../../../arm-hsan-linux-uclibcgnueabi/lib/libgcc_s.so.1
LOAD /opt/toolchain_hisi/arm-hsan-linux-uclibcgnueabi/bin/../lib/gcc/arm-hsan-linux-uclibcgnueabi/4.4.6/libgcc.a
END GROUP
LOAD /opt/toolchain_hisi/arm-hsan-linux-uclibcgnueabi/bin/../lib/gcc/arm-hsan-linux-uclibcgnueabi/4.4.6/crtend.o
LOAD /home/z00250609/hybrid/5115_GPL/Hybrid_security_baseline/output/host/usr/arm-unknown-linux-uclibcgnueabi/sysroot/usr/lib/crtn.o
                0x00008000                PROVIDE (__executable_start, 0x8000)
                0x000080f4                . = (0x8000 + SIZEOF_HEADERS)

.interp         0x000080f4       0x14
 *(.interp)
 .interp        0x000080f4       0x14 /home/z00250609/hybrid/5115_GPL/Hybrid_security_baseline/output/host/usr/arm-unknown-linux-uclibcgnueabi/sysroot/lib/libhttpapi.so

.note.gnu.build-id
 *(.note.gnu.build-id)

.hash           0x00008108      0x710
 *(.hash)
 .hash          0x00008108      0x710 /home/z00250609/hybrid/5115_GPL/Hybrid_security_baseline/output/host/usr/arm-unknown-linux-uclibcgnueabi/sysroot/lib/libhttpapi.so

.gnu.hash
 *(.gnu.hash)

.dynsym         0x00008818      0xfd0
 *(.dynsym)
 .dynsym        0x00008818      0xfd0 /home/z00250609/hybrid/5115_GPL/Hybrid_security_baseline/output/host/usr/arm-unknown-linux-uclibcgnueabi/sysroot/lib/libhttpapi.so

.dynstr         0x000097e8      0xfe7
 *(.dynstr)
 .dynstr        0x000097e8      0xfe7 /home/z00250609/hybrid/5115_GPL/Hybrid_security_baseline/output/host/usr/arm-unknown-linux-uclibcgnueabi/sysroot/lib/libhttpapi.so

.gnu.version    0x0000a7d0        0x0
 *(.gnu.version)
 .gnu.version   0x00000000        0x0 /home/z00250609/hybrid/5115_GPL/Hybrid_security_baseline/output/host/usr/arm-unknown-linux-uclibcgnueabi/sysroot/lib/libhttpapi.so

.gnu.version_d  0x0000a7d0        0x0
 *(.gnu.version_d)
 .gnu.version_d
                0x00000000        0x0 /home/z00250609/hybrid/5115_GPL/Hybrid_security_baseline/output/host/usr/arm-unknown-linux-uclibcgnueabi/sysroot/lib/libhttpapi.so

.gnu.version_r  0x0000a7d0        0x0
 *(.gnu.version_r)
 .gnu.version_r
                0x00000000        0x0 /home/z00250609/hybrid/5115_GPL/Hybrid_security_baseline/output/host/usr/arm-unknown-linux-uclibcgnueabi/sysroot/lib/libhttpapi.so

.rel.dyn        0x0000a7d0       0x18
 *(.rel.init)
 *(.rel.text .rel.text.* .rel.gnu.linkonce.t.*)
 *(.rel.fini)
 *(.rel.rodata .rel.rodata.* .rel.gnu.linkonce.r.*)
 *(.rel.data.rel.ro* .rel.gnu.linkonce.d.rel.ro.*)
 *(.rel.data .rel.data.* .rel.gnu.linkonce.d.*)
 *(.rel.tdata .rel.tdata.* .rel.gnu.linkonce.td.*)
 *(.rel.tbss .rel.tbss.* .rel.gnu.linkonce.tb.*)
 *(.rel.ctors)
 *(.rel.dtors)
 *(.rel.got)
 .rel.got       0x00000000        0x0 /home/z00250609/hybrid/5115_GPL/Hybrid_security_baseline/output/host/usr/arm-unknown-linux-uclibcgnueabi/sysroot/lib/libhttpapi.so
 *(.rel.bss .rel.bss.* .rel.gnu.linkonce.b.*)
 .rel.bss       0x0000a7d0       0x18 /home/z00250609/hybrid/5115_GPL/Hybrid_security_baseline/output/host/usr/arm-unknown-linux-uclibcgnueabi/sysroot/lib/libhttpapi.so
                0x0000a7e8                PROVIDE (__rel_iplt_start, .)
 *(.rel.iplt)
                0x0000a7e8                PROVIDE (__rel_iplt_end, .)
                0x0000a7e8                PROVIDE (__rela_iplt_start, .)
                0x0000a7e8                PROVIDE (__rela_iplt_end, .)

.rela.dyn       0x0000a7e8        0x0
 *(.rela.init)
 *(.rela.text .rela.text.* .rela.gnu.linkonce.t.*)
 *(.rela.fini)
 *(.rela.rodata .rela.rodata.* .rela.gnu.linkonce.r.*)
 *(.rela.data .rela.data.* .rela.gnu.linkonce.d.*)
 *(.rela.tdata .rela.tdata.* .rela.gnu.linkonce.td.*)
 *(.rela.tbss .rela.tbss.* .rela.gnu.linkonce.tb.*)
 *(.rela.ctors)
 *(.rela.dtors)
 *(.rela.got)
 *(.rela.bss .rela.bss.* .rela.gnu.linkonce.b.*)
                0x0000a7e8                PROVIDE (__rel_iplt_start, .)
                0x0000a7e8                PROVIDE (__rel_iplt_end, .)
                0x0000a7e8                PROVIDE (__rela_iplt_start, .)
 *(.rela.iplt)
                0x0000a7e8                PROVIDE (__rela_iplt_end, .)

.rel.plt        0x0000a7e8      0x760
 *(.rel.plt)
 .rel.plt       0x0000a7e8      0x760 /home/z00250609/hybrid/5115_GPL/Hybrid_security_baseline/output/host/usr/arm-unknown-linux-uclibcgnueabi/sysroot/lib/libhttpapi.so

.rela.plt
 *(.rela.plt)

.init           0x0000af48       0x10
 *(.init)
 .init          0x0000af48        0xc /home/z00250609/hybrid/5115_GPL/Hybrid_security_baseline/output/host/usr/arm-unknown-linux-uclibcgnueabi/sysroot/usr/lib/crti.o
                0x0000af48                _init
 .init          0x0000af54        0x4 /home/z00250609/hybrid/5115_GPL/Hybrid_security_baseline/output/host/usr/arm-unknown-linux-uclibcgnueabi/sysroot/usr/lib/crtn.o

.plt            0x0000af58      0xb24
 *(.plt)
 .plt           0x0000af58      0xb24 /home/z00250609/hybrid/5115_GPL/Hybrid_security_baseline/output/host/usr/arm-unknown-linux-uclibcgnueabi/sysroot/lib/libhttpapi.so
                0x0000af6c                ATP_MSG_SimpleBuilder
                0x0000af78                ATP_CFM_ExtDecryptedCfgFile
                0x0000af84                AT_CellInfo
                0x0000af90                ATP_UTIL_StrFileClose
                0x0000af9c                BSP_SYS_GetSWVersion
                0x0000afa8                rewind
                0x0000afb4                bind
                0x0000afc0                ATP_CFM_GetAttrOfCMO
                0x0000afcc                ATP_UTIL_ExecCmd_ByTime
                0x0000afd8                ATP_DBDomainToKeyListIgnorePrefix
                0x0000afe4                ATP_DBSave
                0x0000aff0                AT_ClipConfig
                0x0000affc                strftime
                0x0000b008                AT_ICCID
                0x0000b014                strtok_r
                0x0000b020                ATP_MSG_SendSimpleMsg
                0x0000b02c                ATP_GMSG_Reply
                0x0000b038                __errno_location
                0x0000b044                inet_aton
                0x0000b050                ATP_GMSG_Free
                0x0000b05c                ATP_UTIL_getaddrinfo
                0x0000b068                open
                0x0000b074                fwrite
                0x0000b080                ATP_GMSG_Builder
                0x0000b08c                system
                0x0000b098                ATP_UTIL_Base64Encode
                0x0000b0a4                ATP_MSG_Printf
                0x0000b0b0                usleep
                0x0000b0bc                memcpy
                0x0000b0c8                ATP_UTIL_StrTrim
                0x0000b0d4                uname
                0x0000b0e0                ATP_CFM_GetObjectFromGetMsg
                0x0000b0ec                sleep
                0x0000b0f8                ATP_GMSG_AppendNV
                0x0000b104                ATP_FLASH_ReadArea
                0x0000b110                sysinfo
                0x0000b11c                ATP_CFM_GetObjectFromSetOrAddMsgForAll
                0x0000b128                putchar
                0x0000b134                ATP_GMSG_GetValueByName
                0x0000b140                strcat
                0x0000b14c                ATP_UTIL_ListGetCount
                0x0000b158                remove
                0x0000b164                ATP_MSG_SendMsgData
                0x0000b170                ATP_CFM_FreeObjByName
                0x0000b17c                ATP_MSG_RegisterMsgProc
                0x0000b188                ATP_CFM_ResponseMsgRetCode
                0x0000b194                ATP_LOG_RtoToServer
                0x0000b1a0                getnameinfo
                0x0000b1ac                strcasecmp
                0x0000b1b8                freeaddrinfo
                0x0000b1c4                ATP_UTIL_TimerDel
                0x0000b1d0                strtoul
                0x0000b1dc                ATP_DBGetNumOfObjs
                0x0000b1e8                ATP_UTIL_ParseUrl
                0x0000b1f4                ATP_UTIL_GetSysTime
                0x0000b200                mkdir
                0x0000b20c                ATP_UTIL_SockBaseRegEvtProc
                0x0000b218                malloc
                0x0000b224                ATP_CFM_ResponseInstArrayMsg
                0x0000b230                ATP_DBSetCurrUser
                0x0000b23c                ATP_UTIL_RestartDynApp
                0x0000b248                strrchr
                0x0000b254                ATP_LOG_RecordItem
                0x0000b260                strncmp
                0x0000b26c                __uClibc_main
                0x0000b278                inet_pton
                0x0000b284                ATP_DBSetObj
                0x0000b290                ATP_SET_LED
                0x0000b29c                ATP_UTIL_ListFindItem
                0x0000b2a8                ATP_CFM_GetObjectFromSetOrAddMsgEx
                0x0000b2b4                ATP_CFM_ExtRestoreDft
                0x0000b2c0                ioctl
                0x0000b2cc                strlen
                0x0000b2d8                opendir
                0x0000b2e4                ATP_CFM_CopyObj
                0x0000b2f0                ATP_UTIL_SockBaseReg
                0x0000b2fc                stat
                0x0000b308                ATP_DBGetInstDepthOfOID
                0x0000b314                strtol
                0x0000b320                ATP_CFM_FreeObj
                0x0000b32c                ATP_CFM_CfgMsgAppendPara
                0x0000b338                ATP_FLASH_WriteArea
                0x0000b344                sendmsg
                0x0000b350                snprintf
                0x0000b35c                ATP_SYS_GetInfo
                0x0000b368                ATP_DBGetParaByName
                0x0000b374                ATP_DBGetPara
                0x0000b380                ATP_DBCheckFile
                0x0000b38c                ATP_CFM_CompareObj
                0x0000b398                ATP_UTIL_NotifierInit
                0x0000b3a4                ATP_NET_GetMacAddress
                0x0000b3b0                _exit
                0x0000b3bc                strncasecmp
                0x0000b3c8                ATP_CFM_InitResponseMsg
                0x0000b3d4                ATP_CFM_ChangeInstIdByNow
                0x0000b3e0                ATP_UTIL_ExecCmdNoHang
                0x0000b3ec                access
                0x0000b3f8                fdopen
                0x0000b404                ATP_DBGetObj
                0x0000b410                ATP_UTIL_GetVerFromFile
                0x0000b41c                getpid
                0x0000b428                ATP_UTIL_TimerAdd
                0x0000b434                ATP_UTIL_UpdateDynAppListenFd
                0x0000b440                ATP_UTIL_WriteBufToFile
                0x0000b44c                ATP_CFM_ResponseSetMsg
                0x0000b458                fclose
                0x0000b464                fread
                0x0000b470                AT_ChoseOperators
                0x0000b47c                strncat
                0x0000b488                fopen
                0x0000b494                ATP_MSG_Destroy
                0x0000b4a0                ATP_CFM_ErrorCode
                0x0000b4ac                ATP_DBGetObjectBySeqNum
                0x0000b4b8                ATP_MSG_SafeExitProcesses
                0x0000b4c4                ATP_DBGetObjByName
                0x0000b4d0                time
                0x0000b4dc                strtok
                0x0000b4e8                ATP_UTIL_GetAllLogLevel
                0x0000b4f4                ATP_DBGetDftObject
                0x0000b500                write
                0x0000b50c                ATP_UTIL_StrIdxArrayGetIdxByStr
                0x0000b518                ATP_CFM_CfgMsgAppendDiffPara
                0x0000b524                ATP_CFM_AppendErrorCode
                0x0000b530                closedir
                0x0000b53c                ATP_UTIL_GetInterfaceNameByMacAddr
                0x0000b548                ATP_DBPreGetObjInstID
                0x0000b554                ATP_UTIL_ParseUrlEx
                0x0000b560                ATP_UTIL_GetIfcStatInfo
                0x0000b56c                localtime
                0x0000b578                close
                0x0000b584                ATP_DBSetParaByName
                0x0000b590                ATP_DBKeyListToDomain
                0x0000b59c                ATP_FLASH_GetAreaSize
                0x0000b5a8                ATP_UTIL_UpdateDynAppStatus
                0x0000b5b4                ATP_UTIL_ForkProcessEx
                0x0000b5c0                ATP_CFM_SetHideBitsOfCMO
                0x0000b5cc                random
                0x0000b5d8                ATP_LOG_GetFilter
                0x0000b5e4                ATP_CFM_CfgMsgHeadBuilder
                0x0000b5f0                ATP_UTIL_GetMatchType
                0x0000b5fc                ATP_DEL_LED
                0x0000b608                fgets
                0x0000b614                sigaction
                0x0000b620                ATP_GMSG_GetHeadInfo
                0x0000b62c                ATP_MSG_GetMsgHead
                0x0000b638                sscanf
                0x0000b644                AT_MMGMM
                0x0000b650                ATP_GetWan2InterfaceName
                0x0000b65c                strncpy
                0x0000b668                ATP_CFM_MsgFree
                0x0000b674                ATP_MSG_SendAndRecv
                0x0000b680                fputs
                0x0000b68c                ATP_CFM_GetObjectFromDelMsg
                0x0000b698                ATP_CFM_ExtReboot
                0x0000b6a4                BSP_SYS_SoftRebootEx
                0x0000b6b0                ATP_CFM_SetObjStrValue
                0x0000b6bc                ATP_UTIL_ForkProcess
                0x0000b6c8                unlink
                0x0000b6d4                ATP_DBDomainToKeyList
                0x0000b6e0                AT_SysConfig
                0x0000b6ec                ATP_DBAddObj
                0x0000b6f8                memset
                0x0000b704                ATP_UTIL_Write_To_File
                0x0000b710                ATP_UTIL_ListDeleteAll
                0x0000b71c                inet_ntoa
                0x0000b728                if_nametoindex
                0x0000b734                ATP_CFM_FreeObjList
                0x0000b740                perror
                0x0000b74c                flock
                0x0000b758                ATP_UTIL_ListDeleteItem
                0x0000b764                ATP_UTIL_WaitForPid
                0x0000b770                fprintf
                0x0000b77c                ATP_UTIL_NotifierRegister
                0x0000b788                ATP_UTIL_GetIpv6LinkAddress
                0x0000b794                ATP_DBSetDftObject
                0x0000b7a0                ATP_UTIL_SockBaseStart
                0x0000b7ac                recvmsg
                0x0000b7b8                ATP_DBInit
                0x0000b7c4                ATP_NET_ReleaseMacAddress
                0x0000b7d0                inet_addr
                0x0000b7dc                ATP_UTIL_ListAppend
                0x0000b7e8                ATP_UTIL_StrFileOpenEx
                0x0000b7f4                abort
                0x0000b800                ATP_UTIL_StrIdxArrayGetStrByIdx
                0x0000b80c                memcmp
                0x0000b818                sigemptyset
                0x0000b824                sprintf
                0x0000b830                ATP_UTIL_NotifierUnRegister
                0x0000b83c                ATP_LOG_SetFilter
                0x0000b848                ATP_UTIL_DecryptWebData
                0x0000b854                socket
                0x0000b860                ATP_DBGetCurrUser
                0x0000b86c                ATP_CFM_ResponseGetMsg
                0x0000b878                ATP_UTIL_FilePrintf
                0x0000b884                rand
                0x0000b890                ATP_DBDelObj
                0x0000b89c                exit
                0x0000b8a8                ATP_LOG_Enable
                0x0000b8b4                ATP_CFM_ExtImportEncryptedCfgFile
                0x0000b8c0                raise
                0x0000b8cc                strstr
                0x0000b8d8                strcmp
                0x0000b8e4                __libc_current_sigrtmin
                0x0000b8f0                waitpid
                0x0000b8fc                ATP_LOG_KLogPrintf
                0x0000b908                ATP_UTIL_EncryptWEBdata
                0x0000b914                ATP_DBSetPara
                0x0000b920                ATP_LOG_Query
                0x0000b92c                ATP_UTIL_ValidatePort
                0x0000b938                free
                0x0000b944                atoi
                0x0000b950                readdir
                0x0000b95c                ATP_CFM_GetObjectFromOtherMsg
                0x0000b968                strchr
                0x0000b974                ATP_MSG_RecvWithType
                0x0000b980                ATP_UTIL_NotifierDoNotify
                0x0000b98c                strerror
                0x0000b998                srand
                0x0000b9a4                printf
                0x0000b9b0                strdup
                0x0000b9bc                puts
                0x0000b9c8                ATP_UTIL_CstrMatch
                0x0000b9d4                fscanf
                0x0000b9e0                ATP_MSG_Init
                0x0000b9ec                ATP_UTIL_TimerChgPeriod
                0x0000b9f8                inet_ntop
                0x0000ba04                ATP_UTIL_GetPid
                0x0000ba10                strcpy
                0x0000ba1c                ATP_UTIL_Base64Decode
                0x0000ba28                kill
                0x0000ba34                AT_AntennaConfig
                0x0000ba40                getpgid
                0x0000ba4c                ATP_UTIL_ForkProcessFull
                0x0000ba58                ATP_CFM_ExtExportEncryptedCfgFile
                0x0000ba64                ATP_UTIL_ReadFileToBuf
                0x0000ba70                ATP_MSG_Send

.iplt
 *(.iplt)

.text           0x0000ba7c    0x5e8f0
 *(.text.unlikely .text.*_unlikely)
 *(.text.exit .text.exit.*)
 *(.text.startup .text.startup.*)
 *(.text.hot .text.hot.*)
 *(.text .stub .text.* .gnu.linkonce.t.*)
 .text          0x0000ba7c       0x3c /home/z00250609/hybrid/5115_GPL/Hybrid_security_baseline/output/host/usr/arm-unknown-linux-uclibcgnueabi/sysroot/usr/lib/crt1.o
                0x0000ba7c                _start
 .text          0x0000bab8       0x3c /home/z00250609/hybrid/5115_GPL/Hybrid_security_baseline/output/host/usr/arm-unknown-linux-uclibcgnueabi/sysroot/usr/lib/crti.o
                0x0000bab8                _call_via_r0
                0x0000babc                _call_via_r1
                0x0000bac0                _call_via_r2
                0x0000bac4                _call_via_r3
                0x0000bac8                _call_via_r4
                0x0000bacc                _call_via_r5
                0x0000bad0                _call_via_r6
                0x0000bad4                _call_via_r7
                0x0000bad8                _call_via_r8
                0x0000badc                _call_via_r9
                0x0000bae0                _call_via_sl
                0x0000bae4                _call_via_fp
                0x0000bae8                _call_via_ip
                0x0000baec                _call_via_sp
                0x0000baf0                _call_via_lr
 .text          0x0000baf4       0x50 /opt/toolchain_hisi/arm-hsan-linux-uclibcgnueabi/bin/../lib/gcc/arm-hsan-linux-uclibcgnueabi/4.4.6/crtbegin.o
 .text          0x0000bb44      0x148 /home/z00250609/hybrid/5115_GPL/Hybrid_security_baseline/output/package/atp/configuration/cmsmain/management.o
                0x0000bb44                main
 .text          0x0000bc8c      0x310 /home/z00250609/hybrid/5115_GPL/Hybrid_security_baseline/output/package/atp/configuration/cmsmain/cmsmonitor.o
                0x0000bc8c                ATP_CMS_MonitorCreate
 .text          0x0000bf9c       0x70 /home/z00250609/hybrid/5115_GPL/Hybrid_security_baseline/output/package/atp/configuration/cmsmain/cmsinit.o
                0x0000bf9c                ATP_CMS_Init
 .text          0x0000c00c     0x14a4 /home/z00250609/hybrid/5115_GPL/Hybrid_security_baseline/output/host/usr/arm-unknown-linux-uclibcgnueabi/sysroot/lib/libcmscore.a(cmsmsgproc.o)
                0x0000c00c                ATP_CMS_DoMsgProc
                0x0000c05c                ATP_CMS_DoGMsgProc
                0x0000c0c4                ATP_CMS_UnRegGMsgProc
                0x0000c0e4                ATP_CMS_UnRegMsgProc
                0x0000c104                ATP_CMS_RegMsgProc
                0x0000c268                ATP_CMS_RegGMsgProc
                0x0000c338                ATP_CMS_DelMsgProc
                0x0000c580                ATP_CMS_CwmpSessionEndMsgProc
                0x0000c5a4                ATP_CMS_GetInstMsgProc
                0x0000c6f8                ATP_CMS_GetMsgProc
                0x0000c830                ATP_CMS_GetObj
                0x0000c99c                ATP_CMS_AddSetMsgProc
                0x0000d340                ATP_CMS_RegSetMsgHook
                0x0000d358                ATP_CMS_RegSetMsgHookEx
                0x0000d370                ATP_CMS_RegCwmpEndSessionHook
                0x0000d388                CmsInitDbForSafe
                0x0000d480                ATP_CMS_RegMObj
                0x0000d490                ATP_CMS_RegSObj
                0x0000d4a0                ATP_CMS_RegGetObj
 .text          0x0000d4b0     0x1758 /home/z00250609/hybrid/5115_GPL/Hybrid_security_baseline/output/host/usr/arm-unknown-linux-uclibcgnueabi/sysroot/lib/libcmscore.a(cmsutil.o)
                0x0000d4b0                ATP_UTIL_CheckNum
                0x0000d50c                ATP_UTIL_ValidateNumberRange
                0x0000d52c                ATP_UTIL_ValidateBroadcastIp
                0x0000d678                ATP_UTIL_CompareIpv6Address
                0x0000d6d8                ATP_STATUS_ChangeNotify
                0x0000d728                ATP_UTIL_ValidateNumberAlpha
                0x0000d780                ATP_UTIL_ValidateDomainNameEx
                0x0000d850                ATP_UTIL_ValidateLength
                0x0000d888                ATP_UTIL_ValidateNumber
                0x0000d8f0                ATP_UTIL_ValidateThreeNumberEx
                0x0000daf8                ATP_UTIL_ValidateMCastIpAddress
                0x0000db00                ATP_UTIL_ValidateHostIpAddress
                0x0000db08                ATP_UTIL_ValidateRange
                0x0000db50                ATP_UTIL_ValidateIpv6Address
                0x0000dba0                ATP_UTIL_ValidateIpv6AddressEx
                0x0000dc6c                ATP_UTIL_Ipv6AddressFilter
                0x0000dd70                ATP_UTIL_IsGlobalIpv6Address
                0x0000de00                ATP_UTIL_IsIpFormat
                0x0000de98                ATP_UTIL_ValidateDnsOrHostAddress
                0x0000dec8                ATP_UTIL_IsIpv4Format
                0x0000def0                ATP_UTIL_ValidateIpAddressOrDomainNameEx
                0x0000dfbc                ATP_UTIL_ValidateIpAddressOrDomainName
                0x0000e09c                ATP_UTIL_IsIpv4FormatRepair
                0x0000e148                ATP_STATUS_DestroyAllNotify
                0x0000e168                ATP_STATUS_RegNotifyProc
                0x0000e1bc                ATP_UTIL_IsModuleInserted
                0x0000e260                ATP_UTIL_InsertModule
                0x0000e2d8                ATP_UTIL_GetInterfaceNameById
                0x0000e3a0                ATP_UTIL_IpAddrSplit
                0x0000e488                ATP_UTIL_QosValidateSubnetMask
                0x0000e5dc                ATP_UTIL_ValidateSubnetMask
                0x0000e748                ATP_UTIL_ValidateTime
                0x0000e84c                ATP_UTIL_ValidateDomainName
                0x0000e9b8                ATP_UTIL_ValidateMacAddress
                0x0000ead4                ATP_UTIL_ValidateIpAddress
 .text          0x0000ec08      0x198 /home/z00250609/hybrid/5115_GPL/Hybrid_security_baseline/output/host/usr/arm-unknown-linux-uclibcgnueabi/sysroot/lib/libcmscore.a(cmsinitapi.o)
                0x0000ec08                ATP_CMS_DoAfterModuleInit
                0x0000ec8c                ATP_CMS_AddAfterCmsInitCallback
                0x0000ecf0                ATP_CMS_UpdateDynAppListenFd
 .text          0x0000eda0       0xb0 /home/z00250609/hybrid/5115_GPL/Hybrid_security_baseline/output/host/usr/arm-unknown-linux-uclibcgnueabi/sysroot/lib/libcmscore.a(cmssigqueue.o)
                0x0000eda0                ATP_CMS_SigRtSigInit
 .text          0x0000ee50      0x368 /home/z00250609/hybrid/5115_GPL/Hybrid_security_baseline/output/host/usr/arm-unknown-linux-uclibcgnueabi/sysroot/lib/libledservicecms.a(ledserviceini.o)
                0x0000f194                ATP_BUTTON_Restore
 .text          0x0000f1b8     0x2134 /home/z00250609/hybrid/5115_GPL/Hybrid_security_baseline/output/host/usr/arm-unknown-linux-uclibcgnueabi/sysroot/lib/libtr143cms.a(tr143cmsmsgproc.o)
                0x0000f234                ATP_TR143_SaveUdpEchoDiagRecord
                0x0000f458                ATP_TR143_UploadDiagGet
                0x0000f510                ATP_TR143_DownloadDiagGet
                0x0000f614                ATP_TR143_UploadDiagSet
                0x0000f7b4                ATP_TR143_DownloadDiagSet
                0x0000ff24                ATP_TR143_UploadDiagCheck
                0x00010114                ATP_TR143_DownloadDiagCheck
                0x00010464                ATP_TR143_UdpEchoCheck
                0x00010870                ATP_TR143_Init
                0x000108a4                ATP_TR143_UdpEchoSet
 .text          0x000112ec      0x140 /home/z00250609/hybrid/5115_GPL/Hybrid_security_baseline/output/host/usr/arm-unknown-linux-uclibcgnueabi/sysroot/lib/libclicms.a(clicmsmsgproc.o)
                0x000113e4                ATP_CLI_UserInfoAddSetMsgProc
 .text          0x0001142c     0x1148 /home/z00250609/hybrid/5115_GPL/Hybrid_security_baseline/output/host/usr/arm-unknown-linux-uclibcgnueabi/sysroot/lib/libcwmpcms.a(cwmpcmsmsgproc.o)
                0x00011984                ATP_CWMP_GetConnectStateMsgProc
                0x00012180                ATP_CWMP_GetConnectWANMsgProc
                0x000121e4                ATP_Cwmp_Changed_NotifyRegister
                0x00012234                ValidUserName
 .text          0x00012574       0xd0 /home/z00250609/hybrid/5115_GPL/Hybrid_security_baseline/output/host/usr/arm-unknown-linux-uclibcgnueabi/sysroot/lib/libcwmpcms.a(cwmpcms.o)
                0x00012574                CwmpTakeEffectProc
 .text          0x00012644      0xf78 /home/z00250609/hybrid/5115_GPL/Hybrid_security_baseline/output/host/usr/arm-unknown-linux-uclibcgnueabi/sysroot/lib/libippingcms.a(ippingcmsmsgproc.o)
                0x00012814                ATP_IPPing_GetMsgProc
                0x00012920                ATP_IPPing_SetMsgProc
                0x00013284                ATP_IPPing_ParaCheck
 .text          0x000135bc      0x168 /home/z00250609/hybrid/5115_GPL/Hybrid_security_baseline/output/host/usr/arm-unknown-linux-uclibcgnueabi/sysroot/lib/liblogcms.a(logcms.o)
                0x000135bc                logMergeLogLevel
 .text          0x00013724      0x2fc /home/z00250609/hybrid/5115_GPL/Hybrid_security_baseline/output/host/usr/arm-unknown-linux-uclibcgnueabi/sysroot/lib/liblogcms.a(logcmsinit.o)
                0x0001378c                ATP_LOG_Init
 .text          0x00013a20      0x3a4 /home/z00250609/hybrid/5115_GPL/Hybrid_security_baseline/output/host/usr/arm-unknown-linux-uclibcgnueabi/sysroot/lib/liblogcms.a(logcmsmsgproc.o)
                0x00013a94                ATP_LOG_SetMsgProc
                0x00013c3c                ATP_LOG_ParaCheck
 .text          0x00013dc4      0x280 /home/z00250609/hybrid/5115_GPL/Hybrid_security_baseline/output/host/usr/arm-unknown-linux-uclibcgnueabi/sysroot/lib/libportmntcms.a(portmntcms.o)
                0x00013dc4                PortListItemCompareSubscribeInfoProc
                0x00013df0                CreateItem
                0x00013e3c                DeletePortRange
                0x00013eac                DeletePort
                0x00013eb4                ValidatePort
                0x00013f94                RegistPortRange
                0x00013fe8                RegistPort
                0x00013ff0                PortListItemCompareSubscribeInfoProcSame
 .text          0x00014044        0x8 /home/z00250609/hybrid/5115_GPL/Hybrid_security_baseline/output/host/usr/arm-unknown-linux-uclibcgnueabi/sysroot/lib/libsyscfgcms.a(syscfginit.o)
                0x00014044                ATP_SYSCFG_Init
 .text          0x0001404c        0x4 /home/z00250609/hybrid/5115_GPL/Hybrid_security_baseline/output/host/usr/arm-unknown-linux-uclibcgnueabi/sysroot/lib/libsyscfgcms.a(syscfgcmsmsgproc.o)
 .text          0x00014050        0x0 /home/z00250609/hybrid/5115_GPL/Hybrid_security_baseline/output/host/usr/arm-unknown-linux-uclibcgnueabi/sysroot/lib/libsyscfgcms.a(syscfgcms.o)
 .text          0x00014050      0x2e8 /home/z00250609/hybrid/5115_GPL/Hybrid_security_baseline/output/host/usr/arm-unknown-linux-uclibcgnueabi/sysroot/lib/libsysinfocms.a(sysinfoinit.o)
                0x00014050                SysGetSerialNumber
                0x00014098                ATP_SYS_DeviceInfoInit
 .text          0x00014338      0xb8c /home/z00250609/hybrid/5115_GPL/Hybrid_security_baseline/output/host/usr/arm-unknown-linux-uclibcgnueabi/sysroot/lib/libsysinfocms.a(sysinfocmsmsgproc.o)
                0x000143c0                ATP_SYS_DeviceConfigSet
                0x000144b4                ATP_SYS_DeviceConfigCheck
                0x000145f4                ATP_SYS_DeviceConfigGet
                0x00014660                ATP_SYS_DevInfoModemGet
                0x00014b60                ATP_SYS_DeviceInfoGet
                0x00014d7c                ATP_SYS_DeviceInfoSet
                0x00014de4                ATP_SYS_DeviceInfoCheck
 .text          0x00014ec4      0x154 /home/z00250609/hybrid/5115_GPL/Hybrid_security_baseline/output/host/usr/arm-unknown-linux-uclibcgnueabi/sysroot/lib/libsysinfocms.a(sysinfocms.o)
                0x00014ec4                SysGetUpTime
                0x00014ee4                ATP_IS_ValidateSubCode
                0x00014f40                ATP_SYS_GetDecodeBase64String
                0x00014f9c                ATP_SYS_GetEncodeBase64File
 .text          0x00015018     0x1734 /home/z00250609/hybrid/5115_GPL/Hybrid_security_baseline/output/host/usr/arm-unknown-linux-uclibcgnueabi/sysroot/lib/libtr111cms.a(tr111cmsmsgproc.o)
                0x00015018                ATP_TR111Part1_ParaCheck
                0x000155e4                ATP_TR111Part2_ParaCheck
                0x0001580c                TR111ParseOption125
                0x00015924                ATP_CFM_NotifyWithLimit
                0x00016200                ATP_CWMP_TR111StartMsgProc
                0x000163c0                ATP_TR111_StuncDetectedMsgProc
                0x00016530                ATP_CFM_NotifyChangeTimer
                0x0001658c                ATP_TR111Part2_SetMsgProc
                0x00016714                ATP_TR111Part1_SetMsgProc
 .text          0x0001674c      0x144 /home/z00250609/hybrid/5115_GPL/Hybrid_security_baseline/output/host/usr/arm-unknown-linux-uclibcgnueabi/sysroot/lib/libtr111cms.a(tr111cms.o)
                0x000167f4                NotifyDoRealMsg
 .text          0x00016890     0x1180 /home/z00250609/hybrid/5115_GPL/Hybrid_security_baseline/output/host/usr/arm-unknown-linux-uclibcgnueabi/sysroot/lib/libtraceroutecms.a(traceroutecmsmsgproc.o)
                0x00016890                ATP_TraceRouteHopsInstNumGetMsgProc
                0x00016930                ATP_TraceRouteHops_GetMsgProc
                0x000169b4                ATP_TraceRoute_GetMsgProc
                0x00016ad4                ATP_HopsArray_Allocate
                0x00016c08                ATP_TraceRoute_ParaCheck
                0x00016f78                getIpByIntfname
                0x0001730c                TRoute_Result_Analysis
                0x00017610                ATP_HopsArray_Destroy
                0x0001766c                ATP_TraceRoute_SetMsgProc
 .text          0x00017a10      0x588 /home/z00250609/hybrid/5115_GPL/Hybrid_security_baseline/output/host/usr/arm-unknown-linux-uclibcgnueabi/sysroot/lib/libupnpcms.a(upnpcms.o)
                0x00017dc8                ATP_UPNP_SendRenewMsg
                0x00017e3c                UpnpRestart
                0x00017e88                ATP_UPNP_SetMsgProc
 .text          0x00017f98      0x2cc /home/z00250609/hybrid/5115_GPL/Hybrid_security_baseline/output/host/usr/arm-unknown-linux-uclibcgnueabi/sysroot/lib/libwebcms.a(webcmsmsgproc.o)
                0x000181f4                ATP_WEB_UserInfoAddSetMsgProc
 .text          0x00018264     0x127c /home/z00250609/hybrid/5115_GPL/Hybrid_security_baseline/output/host/usr/arm-unknown-linux-uclibcgnueabi/sysroot/lib/libalgcms.a(algapi.o)
                0x00018264                AlgSipPortFilter
                0x0001833c                AlgRedirectPPPProxySipPkt
                0x000183c4                ATP_ALG_SipSig
                0x0001846c                AlgSipStart
                0x00018638                ATP_ALG_SipStart
                0x00018788                ATP_UTIL_ParseStrInfo
                0x00018850                AlgSipGetConfValue
                0x00018914                AlgSipStop
                0x00018aa8                ATP_ALG_UnInit
                0x00018b9c                AlgSipReset
                0x00018dbc                ATP_ALG_SipClear
                0x00018e44                ATP_ALG_SetCfgInfo
                0x00019094                ATP_ALG_SipStop
                0x00019184                ATP_ALG_Check
                0x00019308                ATP_ALG_Init
 .text          0x000194e0     0x34e8 /home/z00250609/hybrid/5115_GPL/Hybrid_security_baseline/output/host/usr/arm-unknown-linux-uclibcgnueabi/sysroot/lib/libbridgecms.a(bridgecms.o)
                0x000194e0                BridgeGetFilterNum
                0x00019518                BridgeGetBridgeNum
                0x00019550                BridgeGetAvailabeInterfaceNum
                0x00019588                BridgeGetBridgeInstIdByBridgeKey
                0x00019690                ATP_BRIDGE_GetBridgeInstIdByBridgeKey
                0x00019694                BridgeGetBridgeKeyByInstId
                0x00019710                ATP_BRIDGE_GetBridgeKeyByLANInstId
                0x00019714                BridgeGetAIFByInterfacePath
                0x0001989c                BridgeGetAIFByInterfaceName
                0x00019a0c                BridgeGetAIFByFilterInterface
                0x00019bb8                BridgeGetWANAIFByBridgeKey
                0x00019d54                ATP_BRIDGE_GetAvailableWanPathByBridgeKey
                0x00019da0                BridgeFilterCheckDuplicated
                0x00019ef8                BridgeDhcpOptionFilterCheckInterface
                0x0001a054                BridgeFilterGetBridgeKeyByInterfaceKey
                0x0001a17c                ATP_BRIDGE_GetBridgeKeyByWanPath
                0x0001a1a8                ATP_BRIDGE_GetBridgeKeyByInterfacePath
                0x0001a228                ATP_BRIDGE_GetBridgeIntfNameByInterfacePath
                0x0001a284                ATP_BRIDGE_GetBridgeKeyByInterfaceName
                0x0001a304                ATP_BRIDGE_GetBridgeIntfNameByInterfaceName
                0x0001a360                ATP_BRIDGE_EnableIgmpSnooping
                0x0001a3e0                BridgeUnSetup
                0x0001a578                BridgeCreateBr
                0x0001a5f4                ATP_BRIDGE_Down_ByInstId
                0x0001a660                ATP_BRIDGE_GetIPByBridgeKey
                0x0001a82c                BridgeSetup
                0x0001a98c                ATP_BRIDGE_GetIPAddrMaskByInterfacePath
                0x0001aa10                ATP_BRIDGE_SetupIP
                0x0001ab08                BridgeUpdateAIFInterfaceReference
                0x0001ac4c                BridgeAddAIFToDb
                0x0001afa4                BridgeFilterCopyDhcpOptionFilterWithInterfaceName
                0x0001b068                BridgeDelFilterToDb
                0x0001b2a0                BridgeAddFilterToDb
                0x0001b4f8                BridgeDelAIFToDb
                0x0001b630                ATP_BRIDGE_Update_WAN_LAN_Interface_without_Activate
                0x0001b8dc                BridgeFilterCheckDhcpOption
                0x0001bbe8                BridgeAddDelIf
                0x0001bd54                ATP_BRIDGE_Update_WAN_LAN_Interface
                0x0001c03c                BridgeDelFilterByBridgeKey
                0x0001c140                BridgeSetNullFilterByBridgeKey
                0x0001c24c                BridgeFilterDelfromOldBr_ThenAddtoNewBr_ByBridgeKey
                0x0001c3f0                BridgeDhcpOptionFilterDelInterface
                0x0001c4e0                BridgeDelFilterByInterfaceRef
                0x0001c5f4                BridgeDhcpOptionFilterMoveInterface
                0x0001c8c4                ATP_BRIDGE_SetupIP_ByInstId
 .text          0x0001c9c8       0x1c /home/z00250609/hybrid/5115_GPL/Hybrid_security_baseline/output/host/usr/arm-unknown-linux-uclibcgnueabi/sysroot/lib/libbridgecms.a(bridgecmsinit.o)
                0x0001c9c8                ATP_BRIDGE_Init
 .text          0x0001c9e4     0x14d4 /home/z00250609/hybrid/5115_GPL/Hybrid_security_baseline/output/host/usr/arm-unknown-linux-uclibcgnueabi/sysroot/lib/libbridgecms.a(bridgecmsmsgproc.o)
                0x0001c9e4                AddToDhcpOptionList
                0x0001d728                BridgeBindChgDoNotify
                0x0001d750                BridgeInitBridgeDoNotify
                0x0001d778                BridgeAddRoutedWANFilterDoNotify
                0x0001d7a0                BridgeDelRoutedWANFilterDoNotify
                0x0001dab0                UpdateDhcpOptionListAndRegister
                0x0001dc88                ATP_BridgeBindChg_NotifyRegister
                0x0001dcd8                ATP_BridgeInitBridge_NotifyRegister
                0x0001dd28                ATP_BridgeAddBridge_NotifyRegister
                0x0001dd78                ATP_BridgeDelBridge_NotifyRegister
                0x0001ddc8                ATP_BridgeBeforeDelBridge_NotifyRegister
                0x0001de18                ATP_BridgeAddRoutedWANFilter_NotifyRegister
                0x0001de68                ATP_BridgeDelRoutedWANFilter_NotifyRegister
 .text          0x0001deb8     0x1374 /home/z00250609/hybrid/5115_GPL/Hybrid_security_baseline/output/host/usr/arm-unknown-linux-uclibcgnueabi/sysroot/lib/libipv6commoncms.a(ipv6commoncms.o)
                0x0001deb8                ATP_IPV6COMMON_CheckHex
                0x0001df10                ATP_UTIL_UnlockFile
                0x0001df48                ATP_UTIL_LockFile
                0x0001dff0                ATP_IPV6COMMON_CtlGeneratePrefix
                0x0001e440                ATP_IPV6COMMON_TransformStrToFullIPv6Address
                0x0001e570                ATP_IPV6COMMON_CheckIPv6Address
                0x0001e6d8                ATP_IPV6COMMON_CtlSetLocalCfg
                0x0001e9fc                ATP_IPV6COMMON_CtlDeleteLocalCfg
                0x0001ed68                ATP_IPV6COMMON_CtlCheckLocalCfg
                0x0001ee7c                ATP_IPV6COMMON_GetInterfaceIPv6AddressDetail
                0x0001f208                ATP_IPV6COMMON_GetInterfaceIPv6Address
 .text          0x0001f22c      0x658 /home/z00250609/hybrid/5115_GPL/Hybrid_security_baseline/output/host/usr/arm-unknown-linux-uclibcgnueabi/sysroot/lib/libipv6commoncms.a(ipv6commoncmsproc.o)
                0x0001f394                WanIpv6NotifyLan
                0x0001f7f8                WanIpv6NotifyLanForNotify
                0x0001f7fc                ATP_IPV6COMMON_IPv6HostCfgInfoGetMsgProc
 .text          0x0001f884      0xecc /home/z00250609/hybrid/5115_GPL/Hybrid_security_baseline/output/host/usr/arm-unknown-linux-uclibcgnueabi/sysroot/lib/libddnscms.a(ddnscms.o)
                0x0001f884                DDNSFindEntry
                0x0001f8c4                DDNSEffCheck
                0x0001f950                DDNSCheckEntryByWanPath
                0x0001f994                DDNSGetEntryNum
                0x0001f9bc                DDNSStopService
                0x0001fa84                DDNSStartService
                0x0001fc74                DDNSValidNode
                0x0001fd88                DDNSVaildProtocol
                0x0001fde4                DDNSVaildHostName
                0x0001fe5c                DDNSVaildUserName
                0x0001fed0                DDNSVaildDomain
                0x0001ffac                DDNSDelEntry
                0x00020018                DDNSDelMsgProc
                0x00020078                DDNSRemoveEntries
                0x000201e8                DDNSRemoveRules
                0x00020204                DDNSAddEntry
                0x00020298                DDNSSetEntry
                0x000202f0                DDNSSetMsgProc
                0x0002049c                DDNSGetParaFromDB
                0x00020600                DDNSCheck
 .text          0x00020750       0x30 /home/z00250609/hybrid/5115_GPL/Hybrid_security_baseline/output/host/usr/arm-unknown-linux-uclibcgnueabi/sysroot/lib/libddnscms.a(ddnscmsinit.o)
                0x00020750                ATP_DDNS_UnInit
                0x0002076c                ATP_DDNS_Init
 .text          0x00020780       0x90 /home/z00250609/hybrid/5115_GPL/Hybrid_security_baseline/output/host/usr/arm-unknown-linux-uclibcgnueabi/sysroot/lib/libddnscms.a(ddnscmsmsgproc.o)
                0x000207a0                ATP_DDNS_DelMsgProc
                0x000207b0                ATP_DDNS_AddSetMsgProc
                0x000207e4                ATP_DDNS_Check
 .text          0x00020810       0xc8 /home/z00250609/hybrid/5115_GPL/Hybrid_security_baseline/output/host/usr/arm-unknown-linux-uclibcgnueabi/sysroot/lib/libddnscms.a(ddnscmsapi.o)
                0x00020858                ATP_DDNS_RemoveRules
                0x00020878                ATP_DDNS_StopService
                0x000208a8                ATP_DDNS_StartService
 .text          0x000208d8      0x53c /home/z00250609/hybrid/5115_GPL/Hybrid_security_baseline/output/host/usr/arm-unknown-linux-uclibcgnueabi/sysroot/lib/libdhcp6ccms.a(dhcp6ccms.o)
                0x00020ab4                ATP_DHCP6C_Stop
                0x00020bc0                ATP_DHCP6C_Start
 .text          0x00020e14        0x0 /home/z00250609/hybrid/5115_GPL/Hybrid_security_baseline/output/host/usr/arm-unknown-linux-uclibcgnueabi/sysroot/lib/libdhcp6ccms.a(dhcp6ccmsmsgproc.o)
 .text          0x00020e14     0x1bbc /home/z00250609/hybrid/5115_GPL/Hybrid_security_baseline/output/host/usr/arm-unknown-linux-uclibcgnueabi/sysroot/lib/libdhcp6scms.a(dhcp6scms.o)
                0x00020e70                Dhcp6sCtlCheckTime
                0x00020ef8                Dhcp6sCtlCheckPrefixLength
                0x00020f34                Dhcp6sCtlCheckDomainName
                0x0002104c                Dhcp6sCtlGenerateIPPool
                0x000212a8                Dhcp6sCtlServerStart
                0x0002138c                Dhcp6sCtlServerStop
                0x00021640                Dhcp6sCtlServerRestart
                0x000216c4                Dhcp6sCtlCheckDir
                0x00021734                Dhcp6sCtlAnalyseFile
                0x000217d0                Dhcp6sCtlGenerateConfigOption
                0x00021c24                Dhcp6sCtlProcess
                0x00021ccc                Dhcp6sCtlCheckDNSServer
                0x00021d58                DHCP6sCtlCopyDNSServerToList
                0x00021e64                Dhcp6sCtlCfgDnsServer
                0x00021fd4                Dhcp6sCtlDnsServer
                0x00022044                Dhcp6sCtlCheckPrefix
                0x00022104                Dhcp6sCtlNormalCfgMode
                0x00022440                Dhcp6sCtlCfgInterface
                0x000226b8                Dhcp6sCtlPrefix
                0x000227d4                Dhcp6sCmsInit
 .text          0x000229d0       0x40 /home/z00250609/hybrid/5115_GPL/Hybrid_security_baseline/output/host/usr/arm-unknown-linux-uclibcgnueabi/sysroot/lib/libdhcp6scms.a(dhcp6scmsinit.o)
                0x000229d0                ATP_DHCP6S_Init
 .text          0x00022a10      0x4a0 /home/z00250609/hybrid/5115_GPL/Hybrid_security_baseline/output/host/usr/arm-unknown-linux-uclibcgnueabi/sysroot/lib/libdhcp6scms.a(dhcp6scmsmsgproc.o)
 .text          0x00022eb0      0x284 /home/z00250609/hybrid/5115_GPL/Hybrid_security_baseline/output/host/usr/arm-unknown-linux-uclibcgnueabi/sysroot/lib/libdhcp6scms.a(dhcp6scmsapi.o)
                0x00022eb0                ATP_DHCPV6_SERVER_LanHostCfgUseParameterFromWAN
 .text          0x00023134        0x0 /home/z00250609/hybrid/5115_GPL/Hybrid_security_baseline/output/host/usr/arm-unknown-linux-uclibcgnueabi/sysroot/lib/libdhcpccms.a(dhcpccmsmsgproc.o)
 .text          0x00023134       0x70 /home/z00250609/hybrid/5115_GPL/Hybrid_security_baseline/output/host/usr/arm-unknown-linux-uclibcgnueabi/sysroot/lib/libdhcpccms.a(dhcpccmsinit.o)
                0x00023134                ATP_DHCP_CLIENT_UnInit
                0x0002316c                ATP_DHCP_CLIENT_Init
 .text          0x000231a4      0x48c /home/z00250609/hybrid/5115_GPL/Hybrid_security_baseline/output/host/usr/arm-unknown-linux-uclibcgnueabi/sysroot/lib/libdhcpccms.a(dhcpccms.o)
                0x000231a4                DhcpccmsGetPid
                0x00023230                DhcpccmsBridgeUnInit
                0x000232c4                DhcpccmsBridgeInit
                0x00023398                DhcpccmsIpoeUnInit
                0x0002352c                DhcpccmsIpoeInit
 .text          0x00023630     0x1768 /home/z00250609/hybrid/5115_GPL/Hybrid_security_baseline/output/host/usr/arm-unknown-linux-uclibcgnueabi/sysroot/lib/libdhcpscms.a(lanapi.o)
                0x00023630                ATP_LAN_GetOptionByTag
                0x00023700                ATP_LAN_GetBridgeKeyByLanPath
                0x000237d4                ATP_LAN_GetBrIdByLanId
                0x000237d8                ATP_LAN_SetSpoofDownInfo
                0x0002389c                ATP_LAN_GetAddrMask
                0x0002392c                ATP_LAN_SetSpoofUpInfo
                0x00023ab4                LANPortPhysicalStatusChange
                0x00023bc0                ATP_LAN_SetDhcpSpoofRoute
                0x00023d0c                ATP_LAN_RemoveSpoofWAN
                0x00023e80                ATP_LAN_GetLANDeviceInfo
                0x00023f1c                ATP_LAN_GetIPAddrMaskFromDB
                0x000240c4                ATP_CheckIPAddressDuplicated
                0x00024280                ATP_LAN_DelLANIFByInterfaceName
                0x00024410                ATP_LAN_AddLANDeviceObj
                0x0002445c                ATP_LAN_AddLANIF2LDVByInterfaceName_LDVInst
                0x000245b4                ATP_LAN_Del_Recover_LANIF2LDV1_ByLDVInst
                0x00024718                ATP_LAN_Set_LANHostConfigManagement
                0x00024b34                ATP_LAN_GetPathByInterfaceName
                0x00024d0c                ATP_LAN_GetIndexByName
 .text          0x00024d98      0x8a4 /home/z00250609/hybrid/5115_GPL/Hybrid_security_baseline/output/host/usr/arm-unknown-linux-uclibcgnueabi/sysroot/lib/libdhcpscms.a(lanutil.o)
                0x00024d98                DhcpsSetAllowedMACAddr
                0x00024d9c                DhcpsValidateMacList
                0x00024e3c                DhcpsValidateDomainName
                0x00024ebc                DhcpsValidateAssConnWan
                0x00024fec                DhcpsValidateUAllctdWan
                0x00025064                DhcpsGetInterfacePath
                0x000251f4                DhcpsValidateCommaIPStr
                0x0002528c                DhcpsCheckAddr
                0x000253f8                isPoolIpAddrValid
                0x000255f0                CmsSendMsg2Dest
                0x00025608                CmsSendMsgProc
                0x00025624                DhcpsRestart
 .text          0x0002563c      0x220 /home/z00250609/hybrid/5115_GPL/Hybrid_security_baseline/output/host/usr/arm-unknown-linux-uclibcgnueabi/sysroot/lib/libdhcpscms.a(dhcpscmsinit.o)
                0x0002563c                LanSetUp
                0x000257e8                ATP_LAN_Init
 .text          0x0002585c      0x38c /home/z00250609/hybrid/5115_GPL/Hybrid_security_baseline/output/host/usr/arm-unknown-linux-uclibcgnueabi/sysroot/lib/libdhcpscms.a(dhcpscmsnotifymngr.o)
                0x00025934                DHCPSCMS_RecvDhpcsInit
                0x00025948                ATP_DHCPSCMS_OptionDoNotify
                0x00025a6c                ATP_DHCPSCMS_OptionUpdate
                0x00025af0                ATP_DHCPSCMS_OptionUnRegister
                0x00025b64                ATP_DHCPSCMS_OptionRegister
 .text          0x00025be8      0x304 /home/z00250609/hybrid/5115_GPL/Hybrid_security_baseline/output/host/usr/arm-unknown-linux-uclibcgnueabi/sysroot/lib/libdhcpscms.a(dhcpscmsmsgproc.o)
                0x00025bfc                DhcpSrvEnableChangedDoNotify
                0x00025c24                LanSrvNonBr0IPChangedDoNotify
                0x00025c4c                LanSrvIPChangedDoNotify
                0x00025c74                ATP_DhcpSrv_EnableChanged_NotifyRegister
                0x00025cc4                ATP_LAN_SrvNonBr0IPChanged_NotifyRegister
                0x00025d14                ATP_LAN_SrvIPChanged_NotifyRegister
 .text          0x00025eec     0x3db0 /home/z00250609/hybrid/5115_GPL/Hybrid_security_baseline/output/host/usr/arm-unknown-linux-uclibcgnueabi/sysroot/lib/libdhcpscms.a(dhcpscms.o)
                0x00025eec                ATP_UTIL_ValidateIpSameSubNet
                0x00025f5c                ATP_LDEV_LANDeviceCheckProc
                0x00025f64                ATP_LDEV_LANDeviceDelMsgProc
                0x00025f78                ATP_DHCP_SERVER_DelPoolOptionMsgProc
                0x00025fc0                ATP_DHCP_SERVER_DelPoolStaticAddrMsgProc
                0x00026008                ATP_DHCP_SERVER_DelOptionMsgProc
                0x00026050                ATP_DHCP_SERVER_DelStaticAddrMsgProc
                0x00026098                ATP_LDEV_LANDeviceAddSetMsgProc
                0x000260c0                ATP_LAN_DelIpInterfaceMsgProc
                0x0002615c                ATP_DHCP_SERVER_DelServingPoolMsgProc
                0x00026274                isOptionExistedInMainPool
                0x00026338                isOptionExistedInSubPool
                0x00026400                isStaticAddrExistedInMainPool
                0x00026520                isStaticAddrExistedInSubPool
                0x0002676c                isStaticAddrInCurPool
                0x000268c8                ATP_LAN_SetIpInterfaceMsgProc
                0x00026fd4                ATP_DHCP_SERVER_AddPoolOptionMsgProc
                0x00027090                ATP_DHCP_SERVER_AddPoolStaticAddrMsgProc
                0x000271ac                ATP_DHCP_SERVER_AddOptionMsgProc
                0x00027268                ATP_DHCP_SERVER_AddStaticAddrMsgProc
                0x00027384                ATP_DHCP_SERVER_AddServingPoolMsgProc
                0x000276b4                ATP_DHCP_SERVER_LanHostCfgMngSetObjProc
                0x00027cd4                ATP_DHCP_SERVER_AddPoolOptionCheckProc
                0x00027ea8                ATP_DHCP_SERVER_AddOptionCheckProc
                0x00028074                isIPInterfaceExistedInLAN
                0x000281bc                ATP_LAN_SetIpInterfaceCheckProc
                0x00028504                ATP_DHCP_SERVER_AddPoolStaticAddrCheckProc
                0x00028800                ATP_DHCP_SERVER_AddServingPoolCheckProc
                0x00029034                isStaticAddrInMainPool
                0x00029144                ATP_DHCP_SERVER_AddStaticAddrCheckProc
                0x00029450                isIPAddrExistedInLAN
                0x0002959c                ATP_DHCP_SERVER_LanHostCfgMngCheckProc
 .text          0x00029c9c      0x264 /home/z00250609/hybrid/5115_GPL/Hybrid_security_baseline/output/host/usr/arm-unknown-linux-uclibcgnueabi/sysroot/lib/libdnscms.a(dnscmsinit.o)
                0x00029db8                ATP_DNSCMS_Init
                0x00029e30                DnscmsSetServer
 .text          0x00029f00      0xc84 /home/z00250609/hybrid/5115_GPL/Hybrid_security_baseline/output/host/usr/arm-unknown-linux-uclibcgnueabi/sysroot/lib/libdnscms.a(dnscms.o)
                0x00029f00                ATP_DNSCMS_PPPTrigerChange2OnDemand
                0x00029f30                ATP_DNSCMS_FlushFilter
                0x00029f54                ATP_DNSCMS_SetMinTTL
                0x00029f78                ATP_DNSCMS_FlushResident
                0x00029f9c                ATP_DNSCMS_FlushRedirect
                0x0002a3c0                DnscmsWanDownProc
                0x0002a8d4                DnscmsWanUpProc
                0x0002aa7c                ATP_DNSCMS_DeleteFilter
                0x0002aaa8                ATP_DNSCMS_AppendFilter
                0x0002aad4                ATP_DNSCMS_DeleteResident
                0x0002ab00                ATP_DNSCMS_AppendResident
                0x0002ab2c                ATP_DNSCMS_DeleteRedirect
                0x0002ab58                ATP_DNSCMS_AppendRedirect
 .text          0x0002ab84      0x340 /home/z00250609/hybrid/5115_GPL/Hybrid_security_baseline/output/host/usr/arm-unknown-linux-uclibcgnueabi/sysroot/lib/liblanethcms.a(ethcms.o)
                0x0002ab84                EthEnableVport
                0x0002acb4                EthGetCfgFromDB
 .text          0x0002aec4      0xc2c /home/z00250609/hybrid/5115_GPL/Hybrid_security_baseline/output/host/usr/arm-unknown-linux-uclibcgnueabi/sysroot/lib/liblanethcms.a(ethapi.o)
                0x0002aec4                ATP_ETH_UnInit
                0x0002b174                ATP_ETH_GetNextInfo
                0x0002b1f0                ATP_ETH_ValidateDuplex
                0x0002b254                ATP_ETH_ValidateSpeed
                0x0002b2d0                ATP_ETH_GetInterfacePortNum
                0x0002b47c                ATP_ETH_GetInterfaceAlias
                0x0002b538                ATP_ETH_GetInterface
                0x0002b5f0                ATP_ETH_GetCfg
                0x0002b658                ATP_ETH_UpdateCfg
                0x0002b894                ATP_ETH_Init
 .text          0x0002baf0      0x5a0 /home/z00250609/hybrid/5115_GPL/Hybrid_security_baseline/output/host/usr/arm-unknown-linux-uclibcgnueabi/sysroot/lib/libwanethcms.a(wecms.o)
                0x0002baf0                WeDestoryInterface
                0x0002bb0c                WeGetIndexByInstId
                0x0002bb64                WeCreateInterface
                0x0002bb9c                WeGetDuplex
                0x0002bcc4                WeGetBitRate
                0x0002be18                WeGetMacAddr
                0x0002bf10                WeDefaultConfig
                0x0002bf38                WeGetDb
                0x0002c020                WeAllocIndex
 .text          0x0002c090      0x5f4 /home/z00250609/hybrid/5115_GPL/Hybrid_security_baseline/output/host/usr/arm-unknown-linux-uclibcgnueabi/sysroot/lib/libwanethcms.a(wecmsinit.o)
                0x0002c090                ATP_WE_Status
                0x0002c0a0                ATP_WE_GetConnNum
                0x0002c104                ATP_WE_GetInterface
                0x0002c198                ATP_WE_GetPhysicalStatus
                0x0002c21c                ATP_WE_GetName
                0x0002c2d8                ATP_WE_GetLinkStatus
                0x0002c318                ATP_WE_UnInit
                0x0002c378                ATP_WE_Init
 .text          0x0002c684      0x7c4 /home/z00250609/hybrid/5115_GPL/Hybrid_security_baseline/output/host/usr/arm-unknown-linux-uclibcgnueabi/sysroot/lib/libwanethcms.a(wecmsmsgproc.o)
                0x0002cbe4                ATP_WE_WanConnDevDelMsgProc
                0x0002cc6c                ATP_WE_WanConnDevAddMsgProc
                0x0002cd34                ATP_WE_Monitor
 .text          0x0002ce48      0x110 /home/z00250609/hybrid/5115_GPL/Hybrid_security_baseline/output/host/usr/arm-unknown-linux-uclibcgnueabi/sysroot/lib/libfirewallcms.a(firewallapi.o)
                0x0002ce48                ATP_FIREWALL_ServiceFtp
                0x0002ce50                ATP_FIREWALL_GetEnable
                0x0002ce68                ATP_FIREWALL_ServiceIpExt
                0x0002ce80                ATP_FIREWALL_ServiceSipAlg
                0x0002ce98                ATP_FIREWALL_LanChange
                0x0002ceb0                ATP_FIREWALL_WanClear
                0x0002cec0                ATP_FIREWALL_Ipv6WanAllowMcastNs
                0x0002ced0                ATP_IPV6_MSS_AdjustStop
                0x0002cee0                ATP_IPV6_MSS_AdjustStart
                0x0002cef0                ATP_FIREWALL_WanStop6
                0x0002cf00                ATP_FIREWALL_WanStart6
                0x0002cf10                ATP_FIREWALL_WanStop
                0x0002cf20                ATP_FIREWALL_WanStart
                0x0002cf30                ATP_FIREWALL_UnInit
                0x0002cf44                ATP_FIREWALL_Init
 .text          0x0002cf58     0x243c /home/z00250609/hybrid/5115_GPL/Hybrid_security_baseline/output/host/usr/arm-unknown-linux-uclibcgnueabi/sysroot/lib/libfirewallcms.a(firewallcmsmsgproc.o)
                0x0002d07c                ATP_FIREWALL_AclDelMsgProc
                0x0002d0b4                ATP_FIREWALL_AclAddSetMsgProc
                0x0002d3f4                ATP_FIREWALL_AclCheck
                0x0002d7bc                ATP_FIREWALL_DosAttackSetMsgProc
                0x0002d844                ATP_FIREWALL_DosAttackCheck
                0x0002d920                ATP_FIREWALL_AppFilterDelMsgProc
                0x0002d958                ATP_FIREWALL_AppFilterAddSetMsgProc
                0x0002da8c                ATP_FIREWALL_AppFilterCheck
                0x0002dcac                ATP_FIREWALL_UrlFilterDelMsgProc
                0x0002dce4                ATP_FIREWALL_UrlFilterAddSetMsgProc
                0x0002de80                ATP_FIREWALL_UrlFilterCheck
                0x0002dfe8                ATP_FIREWALL_IpFilterDelMsgProc
                0x0002e020                ATP_FIREWALL_IpFilterAddSetMsgProc
                0x0002e32c                ATP_FIREWALL_IpFilterCheck
                0x0002e8a4                ATP_FIREWALL_MacFilterDelMsgProc
                0x0002e8dc                ATP_FIREWALL_MacFilterAddSetMsgProc
                0x0002ec18                ATP_FIREWALL_MacFilterCheck
                0x0002ef34                ATP_FIREWALL_SetCurrLevelCheck
                0x0002f070                ATP_FIREWALL_SetCurrLevelSetMsgProc
 .text          0x0002f394      0x610 /home/z00250609/hybrid/5115_GPL/Hybrid_security_baseline/output/host/usr/arm-unknown-linux-uclibcgnueabi/sysroot/lib/libfirewallcms.a(firewallutil.o)
                0x0002f394                FireWallAddLevel
                0x0002f3e4                FireWallGetLevelByObjIndex
                0x0002f42c                FireWallGetIndexByLevel
                0x0002f450                FireWallPriorityInit
                0x0002f478                FireWallInsertPriority
                0x0002f4a8                FireWallSortPriority
                0x0002f570                FireWallGetPriorityByIndex
                0x0002f590                FireWallDelLevel
                0x0002f614                FireWallValidateMacAddress
                0x0002f704                FireWallJudgePermitSet
                0x0002f75c                FireWallSetLevelRight
                0x0002f7bc                FireWallSetLevelName
                0x0002f844                FireWallGetLevelByName
                0x0002f8b4                FireWallNameValidate
                0x0002f93c                FireWallPrintLevel
 .text          0x0002f9a4      0xd34 /home/z00250609/hybrid/5115_GPL/Hybrid_security_baseline/output/host/usr/arm-unknown-linux-uclibcgnueabi/sysroot/lib/libfirewallcms.a(firewallconfig.o)
                0x0002f9a4                FireWallForIP6tables
                0x0002fb6c                FireWallSyncToDb
                0x0002fba4                FireWallLanChange
                0x0002fbb4                FireWallWanClear
                0x0002fbd4                FireWallIpv6AllowWanMcastNs
                0x0002fbf4                FireWallIPv6MssStop
                0x0002fc14                FireWallIPv6MssStart
                0x0002fc34                FireWallWanStop6
                0x0002fc54                FireWallWanStart6
                0x0002fc74                FireWallWanStop
                0x0002fc94                FireWallWanStart
                0x0002fcb4                FireWallUnInit
                0x0002fce8                FireWallLevelChange
                0x0002ffbc                FireWallReadCurrLevel
                0x000300bc                FireWallReadAllLevel
                0x000301c4                FireWallSetUpBigRules
                0x00030568                FireWallInit
 .text          0x000306d8     0x199c /home/z00250609/hybrid/5115_GPL/Hybrid_security_baseline/output/host/usr/arm-unknown-linux-uclibcgnueabi/sysroot/lib/libfirewallcms.a(firewallservice.o)
                0x000306d8                FireWallServiceEffect6
                0x00030848                FireWallServiceEffect
                0x00030928                FireWallServiceIpExt
                0x000309ac                FireWallServiceSipAlgEffect
                0x00030acc                FireWallServiceFtpEffect
                0x00030ba8                FireWallServiceStop6
                0x00030d14                FireWallServiceStart6
                0x00030ef0                IPV6MssStop
                0x000311d0                IPV6MssStart
                0x000314a0                FireWallServiceIpv6AllowWanMcastNs
                0x00031764                FireWallServiceStop
                0x00031c84                FireWallServiceStart
 .text          0x00032074      0x144 /home/z00250609/hybrid/5115_GPL/Hybrid_security_baseline/output/host/usr/arm-unknown-linux-uclibcgnueabi/sysroot/lib/libfirewallcms.a(firewalllist.o)
                0x00032074                FireWallListGetHeader
                0x00032140                FireWallListRemove
 .text          0x000321b8     0x200c /home/z00250609/hybrid/5115_GPL/Hybrid_security_baseline/output/host/usr/arm-unknown-linux-uclibcgnueabi/sysroot/lib/libfirewallcms.a(macflt.o)
                0x000321b8                MacfltFindNode
                0x000321dc                MacfltFindPriority
                0x00032214                FireWallMacfltUnInit
                0x0003221c                FireWallMacfltAdddefaultRules
                0x00032400                FireWallMacfltLanIPChange
                0x000326c4                FireWallMacfltDelRule
                0x00032bd0                FireWallMacfltInit
                0x00032fac                MacfltSaveDB
                0x000330cc                MacfltValidateTime
                0x00033d14                FireWallMacfltEnable
                0x00033df0                FireWallMacfltListDisable
                0x00033e7c                MacfltSetRuleRun
                0x00033fb8                FireWallMacfltDisable
                0x00034038                MacfltSetRule
                0x00034144                MacfltDelRule
 .text          0x000341c4      0xf58 /home/z00250609/hybrid/5115_GPL/Hybrid_security_baseline/output/host/usr/arm-unknown-linux-uclibcgnueabi/sysroot/lib/libfirewallcms.a(urlflt.o)
                0x000341c4                UrlfltFindNode
                0x000341e8                UrlfltFindPriority
                0x00034220                UrlfltUpdatePriority
                0x00034280                FireWallUrlfltUnInit
                0x000347dc                FireWallUrlfltEnable
                0x000348b8                FireWallUrlfltListDisable
                0x0003493c                FireWallUrlfltDisable
                0x000349bc                UrlfltDelRule
                0x00034ab8                UrlfltSetRuleRun
                0x00034bc8                UrlfltSetRule
                0x00034ce4                FireWallUrlfltInit
 .text          0x0003511c     0x2b2c /home/z00250609/hybrid/5115_GPL/Hybrid_security_baseline/output/host/usr/arm-unknown-linux-uclibcgnueabi/sysroot/lib/libfirewallcms.a(ipflt.o)
                0x0003511c                IpfltFindPriority
                0x00035154                IpfltFindNode
                0x00035178                FireWallIpfltUnInit
                0x000358f8                FireWallIpfltStopByWan6
                0x00035968                FireWallIpfltStartByWan6
                0x00036130                FireWallIpfltStopByWan
                0x000361b8                IpfltDelRule
                0x000362ac                FireWallIpfltClearByWan
                0x0003635c                FireWallIpfltDisableArr
                0x00036438                FireWallIpfltDisable
                0x00036508                FireWallIpfltDelRule
                0x0003654c                FireWallIpfltEnable
                0x00036654                FireWallIpfltStartByWan
                0x00037730                FireWallIpfltInit
                0x00037758                IpfltSaveDB
                0x00037a7c                IpfltSetRuleRun
                0x00037b78                IpfltSetRule
 .text          0x00037c48     0x19fc /home/z00250609/hybrid/5115_GPL/Hybrid_security_baseline/output/host/usr/arm-unknown-linux-uclibcgnueabi/sysroot/lib/libfirewallcms.a(appflt.o)
                0x00037c48                AppfltFindNode
                0x00037c6c                FireWallAppfltUnInit
                0x00037c74                ATP_FIREWALL_AppFilterCheckDuplication
                0x00037d14                AppfltPortCheck
                0x00038cc0                FireWallAppfltEnable
                0x00038d40                FireWallAppfltDisable
                0x00038dc0                FireWallAppfltDelRule
                0x00038e04                AppfltDelRule
                0x00038f24                AppfltSetRule
                0x0003933c                FireWallAppfltInit
 .text          0x00039644      0x2f0 /home/z00250609/hybrid/5115_GPL/Hybrid_security_baseline/output/host/usr/arm-unknown-linux-uclibcgnueabi/sysroot/lib/libfirewallcms.a(dosattack.o)
                0x00039644                DosattackDisable
                0x00039710                DosattackEnable
                0x00039874                ATP_DosattackInit
 .text          0x00039934     0x1a34 /home/z00250609/hybrid/5115_GPL/Hybrid_security_baseline/output/host/usr/arm-unknown-linux-uclibcgnueabi/sysroot/lib/libfirewallcms.a(acl.o)
                0x00039934                AclFindNode
                0x00039958                AclCreatAclChain
                0x00039a7c                AclUsePort
                0x00039ae0                AclSaveDB
                0x00039bb0                AclDelAllRule
                0x00039d1c                AclDefaultRule
                0x0003a170                Acl_SetWanportPing
                0x0003a26c                AclEffect
                0x0003a940                AclPortNumChange
                0x0003aa54                AclSetRule
                0x0003ab44                AclDelRule
                0x0003abb8                AclDisable
                0x0003ac0c                ATP_ACL_UnInit
                0x0003ac34                AclEnable
                0x0003acd8                ATP_ACL_Init
                0x0003b310                FireWallAclSaveDefaultRule
 .text          0x0003b368       0xf0 /home/z00250609/hybrid/5115_GPL/Hybrid_security_baseline/output/host/usr/arm-unknown-linux-uclibcgnueabi/sysroot/lib/libfirewallcms.a(aclex.o)
                0x0003b368                PortNumChangeForAllLevels
                0x0003b420                EffectRulesForAllLevels
 .text          0x0003b458      0x19c /home/z00250609/hybrid/5115_GPL/Hybrid_security_baseline/output/host/usr/arm-unknown-linux-uclibcgnueabi/sysroot/lib/libipcheckcms.a(ipcheckcms.o)
                0x0003b458                ATP_IPCHECK_HostDelMsgProc
                0x0003b460                ATP_IPCHECK_HostCheckMsgProc
                0x0003b4b0                ATP_IPCHECK_HostSetMsgProc
                0x0003b540                ATP_IPCHECK_HostGetMsgProc
 .text          0x0003b5f4       0x20 /home/z00250609/hybrid/5115_GPL/Hybrid_security_baseline/output/host/usr/arm-unknown-linux-uclibcgnueabi/sysroot/lib/libipcheckcms.a(ipcheckcmsinit.o)
                0x0003b5f4                ATP_IPCHECK_Init
 .text          0x0003b614      0x258 /home/z00250609/hybrid/5115_GPL/Hybrid_security_baseline/output/host/usr/arm-unknown-linux-uclibcgnueabi/sysroot/lib/libipcheckcms.a(ipcheckcmsmsgproc.o)
                0x0003b748                IpcheckHostInfoUpdateDoNotify
                0x0003b770                IPCHECKCMS_RecvHostStatusChange
                0x0003b7cc                ATP_IPCHECK_HostRemove_NotifyRegister
                0x0003b81c                ATP_IPCHECK_HostInfoUpdate_NotifyRegister
 .text          0x0003b86c      0x900 /home/z00250609/hybrid/5115_GPL/Hybrid_security_baseline/output/host/usr/arm-unknown-linux-uclibcgnueabi/sysroot/lib/libiptunnelcms.a(iptunnelcmsinit.o)
                0x0003b86c                ATP_IPTunnel_UnInit
                0x0003b874                IpTunnel6in4CheckMsgProc
                0x0003b87c                IpTunnel4in6CheckMsgProc
                0x0003ba4c                IpTunnel4in6DelMsgProc
                0x0003bac0                IpTunnel6in4DelMsgProc
                0x0003bb34                IpTunnel4in6AddSetMsgProc
                0x0003bda0                IpTunnel4in6GetMsgProc
                0x0003be0c                IpTunnel6in4GetMsgProc
                0x0003be9c                IpTunnel6in4AddSetMsgProc
                0x0003c158                ATP_IPTunnel_Init
 .text          0x0003c16c      0x41c /home/z00250609/hybrid/5115_GPL/Hybrid_security_baseline/output/host/usr/arm-unknown-linux-uclibcgnueabi/sysroot/lib/libiptunnelcms.a(iptunnelcmsapi.o)
                0x0003c16c                ATP_IPTunnel_GetInstanceHeader
                0x0003c17c                ATP_IPTunnel_IsExistActivated6in4Tunnel
                0x0003c218                ATP_IPTunnel_GetInstanceByPath
                0x0003c25c                ATP_IPTunnel_GetInstanceByWanPath
                0x0003c2a0                ATP_IPTunnel_GetTunnelAlias
                0x0003c2f8                ATP_IPTunnel_ConfClear
                0x0003c308                ATP_IPTunnel_Start
                0x0003c358                ATP_IPTunnel_Stop
                0x0003c3a8                IpTunnelBrDelProcNotifierDoNotify
                0x0003c3d0                IpTunnelBrAddProcNotifierDoNotify
                0x0003c3f8                IpTunnelDownNotifierDoNotify
                0x0003c420                IpTunnelUpNotifierDoNotify
                0x0003c448                ATP_IPTunnel_BrDelProc_NotifyRegister
                0x0003c498                ATP_IPTunnel_BrAddProc_NotifyRegister
                0x0003c4e8                ATP_IPTunnel_Down_NotifyRegister
                0x0003c538                ATP_IPTunnel_Up_NotifyRegister
 .text          0x0003c588      0xbb4 /home/z00250609/hybrid/5115_GPL/Hybrid_security_baseline/output/host/usr/arm-unknown-linux-uclibcgnueabi/sysroot/lib/libiptunnelcms.a(iptunnelcms.o)
                0x0003c588                IpTunnelGetInstance
                0x0003c5b4                IpTunnelRegisterMechanism
                0x0003c600                IpTunnelReadDnsProbeInfo
                0x0003c698                IpTunnelNotifyLan
                0x0003c778                IpTunnelValidateWanPath
                0x0003c9b4                IpTunnelGetMechanismOps
                0x0003c9f8                IpTunnelStop
                0x0003ca58                IpTunnelStart
                0x0003cab8                IpTunnelKillDns
                0x0003cb18                IpTunnelDelInstance
                0x0003cb8c                IpTunnelDelConfFromDB
                0x0003cc54                IpTunnelAddInstance
                0x0003ce04                IpTunnelParamTo4in6
                0x0003ceb4                IpTunnelParamTo6in4
                0x0003cf9c                IpTunnelConfGetDB
                0x0003d0e4                IpTunnelConfInit
 .text          0x0003d13c      0xdb8 /home/z00250609/hybrid/5115_GPL/Hybrid_security_baseline/output/host/usr/arm-unknown-linux-uclibcgnueabi/sysroot/lib/libiptunnelcms.a(tunnel6rd.o)
                0x0003d13c                TunnelValidateIpv6Prefix
                0x0003d1a8                TunnelValidateIpv4Endpoint
                0x0003d204                TunnelValidate6in4Conf
                0x0003d400                Tunnel6rdRouteBind
                0x0003d514                Tunnel6rdStop
                0x0003d610                Tunnel6rdStart
                0x0003ded8                Tunnel6rdInit
 .text          0x0003def4      0x558 /home/z00250609/hybrid/5115_GPL/Hybrid_security_baseline/output/host/usr/arm-unknown-linux-uclibcgnueabi/sysroot/lib/libiptunnelcms.a(tunneldslite.o)
                0x0003def4                TunnelValidate4in6Conf
                0x0003dfe0                TunnelDsliteRouteBind
                0x0003e068                TunnelDsliteStop
                0x0003e134                TunnelDsliteStart
                0x0003e430                TunnelDsliteInit
 .text          0x0003e44c      0x8dc /home/z00250609/hybrid/5115_GPL/Hybrid_security_baseline/output/host/usr/arm-unknown-linux-uclibcgnueabi/sysroot/lib/liblannamecms.a(lannamecms.o)
                0x0003e66c                ATP_LANNAME_UnInit
                0x0003e848                LannameDelMsgProc
                0x0003e8d8                LannameAddSetMsgProc
                0x0003e9bc                LannameCheckMsgProc
                0x0003ea10                LannameSetDomainSearch
                0x0003eb68                ATP_LANNAME_SetLocalHost
                0x0003eb7c                ATP_LANNAME_SetDomainSearch
                0x0003eb90                LannameLanInfoChangeProc
                0x0003ec3c                ATP_LANNAME_Init
 .text          0x0003ed28       0x34 /home/z00250609/hybrid/5115_GPL/Hybrid_security_baseline/output/host/usr/arm-unknown-linux-uclibcgnueabi/sysroot/lib/liblannamecms.a(lannamecmsmsgproc.o)
 .text          0x0003ed5c      0x68c /home/z00250609/hybrid/5115_GPL/Hybrid_security_baseline/output/host/usr/arm-unknown-linux-uclibcgnueabi/sysroot/lib/libmldcms.a(mldcms.o)
                0x0003ed5c                ATP_MLD_UnInit
                0x0003ed64                ATP_MLD_EnableSnooping
                0x0003edc8                ATP_MLD_SetSnoopingEnable
                0x0003ee44                ATP_MLD_ProxyClear
                0x0003ef3c                ATP_MLD_ParaCheck
                0x0003efd8                ATP_MLD_ProxyReset
                0x0003f230                ATP_MLD_SetProxyInfo
                0x0003f2d0                ATP_MLD_Init
 .text          0x0003f3e8       0x94 /home/z00250609/hybrid/5115_GPL/Hybrid_security_baseline/output/host/usr/arm-unknown-linux-uclibcgnueabi/sysroot/lib/libmldcms.a(mldcmsmsgproc.o)
 .text          0x0003f47c      0xb74 /home/z00250609/hybrid/5115_GPL/Hybrid_security_baseline/output/host/usr/arm-unknown-linux-uclibcgnueabi/sysroot/lib/libnatcms.a(natcmsmsgproc.o)
                0x0003f6f4                NatPortMappingProcessUPnP
                0x0003f964                ATP_NAT_PORTMAPPING_UPNP_MSG_Process
                0x0003f9e4                ATP_NAT_PORTMAPPING_WEB_MSG_Process
                0x0003faa4                ATP_NAT_DMZCheck
                0x0003fac4                ATP_NAT_DmzAddSetMsgProc
                0x0003faf0                ATP_NAT_PortMapMsgProc
                0x0003fb24                ATP_NAT_PortMapDelMsgProc
                0x0003fb34                ATP_NAT_PortMapCheck
                0x0003fb54                ATP_NAT_PMGetNodeNums
                0x0003fb7c                ATP_NAT_CTclean
                0x0003fbd4                ATP_NAT_WanClear
                0x0003fc1c                ATP_NAT_WanStop
                0x0003fdf0                ATP_NAT_WanStart
 .text          0x0003fff0       0x30 /home/z00250609/hybrid/5115_GPL/Hybrid_security_baseline/output/host/usr/arm-unknown-linux-uclibcgnueabi/sysroot/lib/libnatcms.a(natcmsinit.o)
                0x0003fff0                ATP_NAT_Other_Init
                0x0004000c                ATP_NAT_Init
 .text          0x00040020      0x668 /home/z00250609/hybrid/5115_GPL/Hybrid_security_baseline/output/host/usr/arm-unknown-linux-uclibcgnueabi/sysroot/lib/libnatcms.a(natcms.o)
                0x00040020                ATP_NAT_ServiceIgmp
                0x00040158                ATP_NAT_ChgFtpPort
                0x00040168                ATP_NAT_ChgTelnetPort
                0x00040178                ATP_NAT_LanChange
                0x00040234                ATP_NAT_LoadModule
 .text          0x00040688      0x4fc /home/z00250609/hybrid/5115_GPL/Hybrid_security_baseline/output/host/usr/arm-unknown-linux-uclibcgnueabi/sysroot/lib/libnatcms.a(natutil.o)
                0x00040688                NatGetLeftMostOneBits
                0x000406dc                NatValidConeNatType
                0x00040700                NatKeyListToDomain
                0x0004075c                NatDelFromDB
                0x0004076c                NatGetLeftMostOneBitsInMask
                0x00040888                NatExec
                0x00040898                NatGetWanPathById
                0x00040944                NatIpNeedModify
                0x000409c8                CheckIpWithLocalIp
                0x00040af8                NatPortValidDescription
 .text          0x00040b84      0xbe8 /home/z00250609/hybrid/5115_GPL/Hybrid_security_baseline/output/host/usr/arm-unknown-linux-uclibcgnueabi/sysroot/lib/libnatcms.a(natdmz.o)
                0x00040b84                NatDMZCheck
                0x00040ec8                NatDmzClearByWan
                0x00040ff4                NatDmzUnInit
                0x00041028                NatDmzAdd
                0x000410ac                NatDmzEffect
                0x000412d8                NatDmzStopByWan
                0x00041328                NatDmzStartByWan
                0x00041374                NatDmzSet
                0x00041448                NatDmzSetMsgProc
                0x000415b4                NatDmzGetDb
                0x00041758                NatDmzInit
 .text          0x0004176c     0x1ff0 /home/z00250609/hybrid/5115_GPL/Hybrid_security_baseline/output/host/usr/arm-unknown-linux-uclibcgnueabi/sysroot/lib/libnatcms.a(natportmap.o)
                0x0004176c                NatPortMapGetNodeNumsAll
                0x00041794                NatPortMapExtPortValidate
                0x000418f4                NatPortMapGetNodeNums
                0x00041d64                NatPortMapCheck
                0x00042140                NatCheckHTTPSRuleSet
                0x00042244                NatPortMapComposeValidate
                0x0004230c                NatPortMapClearByWan
                0x00042438                NatPortMapUnInit
                0x0004246c                NatPortMapChgFtpPort
                0x00042574                NatPortMapChgTelnetPort
                0x0004267c                NatPortMapIptblCmd
                0x0004291c                NatPortMapEffect
                0x00042cf4                NatPortMapStopByWan
                0x00042d48                NatPortMapStartByWan
                0x00042da8                NatPortMapDel
                0x00042e5c                NatPortMapDelMsgProc
                0x00042ec8                NatPortMapSet
                0x00042ff8                NatPortMapSetMsgProc
                0x000433f8                NatPortMapAdd
                0x00043488                NatPortMapGetDb
                0x00043744                NatPortMapInit
 .text          0x0004375c       0xec /home/z00250609/hybrid/5115_GPL/Hybrid_security_baseline/output/host/usr/arm-unknown-linux-uclibcgnueabi/sysroot/lib/libnatcms.a(prttrgapi.o)
                0x0004375c                ATP_PT_WanRuleStop
                0x00043770                ATP_PT_WanRuleStart
                0x0004379c                ATP_PT_WanRuleClear
                0x000437bc                ATP_PT_DelMsgProc
                0x000437cc                ATP_PT_AddSetMsgProc
                0x00043800                ATP_PT_PTCheck
                0x00043820                ATP_PT_UnInit
                0x00043834                ATP_PT_Init
 .text          0x00043848     0x16fc /home/z00250609/hybrid/5115_GPL/Hybrid_security_baseline/output/host/usr/arm-unknown-linux-uclibcgnueabi/sysroot/lib/libnatcms.a(prttrgutil.o)
                0x00043848                PTGetEntryNum
                0x00043870                PTCheckFilterPort
                0x0004391c                PTFindEntry
                0x00043980                PTValidPortSum
                0x00043ad8                PTFindSameName
                0x00043b58                PTValidProto
                0x00043ce4                PTCheck
                0x00043da8                PTSyncToDb
                0x00043dc0                PTSetRule
                0x00044028                PTStopRule
                0x00044030                PTRulesClear
                0x00044164                PTRulesStop
                0x000441b4                PTStartRule
                0x000441bc                PTKeyListToDomain
                0x00044218                PTCheckWan
                0x00044278                PTValidAllParam
                0x00044648                PTGetWanStatus
                0x000446c0                PTEffCheck
                0x00044708                PTRulesStart
                0x00044768                PTRemoveEntries
                0x000447bc                PTDelEntry
                0x00044858                PTDelMsgProc
                0x000448f8                PTAddEntry
                0x000449c0                PTGetParaFromDB
                0x00044c48                PTSetEntry
                0x00044cfc                PTSetMsgProc
 .text          0x00044f44      0x1a4 /home/z00250609/hybrid/5115_GPL/Hybrid_security_baseline/output/host/usr/arm-unknown-linux-uclibcgnueabi/sysroot/lib/libnatcms.a(natconenat.o)
                0x00044f44                NatAllConeNatStart
                0x00044fac                NatAllConeNatStop
 .text          0x000450e8      0xe98 /home/z00250609/hybrid/5115_GPL/Hybrid_security_baseline/output/host/usr/arm-unknown-linux-uclibcgnueabi/sysroot/lib/libndiscms.a(wdsapi.o)
                0x000450e8                atp_qmi_api_get_version
                0x000450f4                atp_qmi_set_trigger
                0x00045194                atp_qmi_stop
                0x00045570                atp_qmi_start
                0x000458f4                atp_qmi_config
 .text          0x00045f80      0xda0 /home/z00250609/hybrid/5115_GPL/Hybrid_security_baseline/output/host/usr/arm-unknown-linux-uclibcgnueabi/sysroot/lib/libpppccms.a(pppcapi.o)
                0x00045f80                ATP_PPPC_SetTrigger
                0x00046018                ATP_PPPC_Config
                0x000466ac                PppcDestroyFiles
                0x00046720                ATP_PPPC_Stop
                0x00046828                PppcCreateFiles
                0x00046c70                ATP_PPPC_Start
 .text          0x00046d20     0x3178 /home/z00250609/hybrid/5115_GPL/Hybrid_security_baseline/output/host/usr/arm-unknown-linux-uclibcgnueabi/sysroot/lib/libradvdcms.a(radvdcms.o)
                0x00046e40                RadvdCtlCheckTime
                0x00046ec4                RadvdCtlCheckPrefixLength
                0x00046f64                ChangeBr0LinkLocalAddr
                0x00047034                RadvdCtlStop
                0x000472f4                RadvdCtlStart
                0x000473f0                RadvdCtlReConfig
                0x000475b0                RadvdCtlMtuCfg
                0x0004765c                RadvdCtlRAIntervalCfg
                0x000477d0                RadvdCtlSaveCurrentCfg
                0x00047830                RadvdCtlGenerateFlagCfg
                0x00047904                RadvdCtlSetFlag
                0x000479b8                RadvdCtlPrefixCfg
                0x00047e1c                RadvdCtlCheckPrefix
                0x00047e94                RadvdULACtlSetLocalCfg
                0x00048094                RadvdULACtlDeleteLocalCfg
                0x0004828c                RadvdULACtlCheckLocalCfg
                0x00048394                RadvdCtlCheckDir
                0x000483e0                RadvdCtlGenerateCfgFile
                0x00048ae8                RadvdCtlWANCfgMode
                0x00048be0                RadvdInit
                0x00048c40                RadvdParameterCfg
                0x00048ee8                RadvdGetCfg
                0x00049344                RadvdULACtlNormalCfgMode
                0x00049644                RadvdCtlNormalCfgMode
                0x0004983c                RadvdCtlCfgInterface
                0x00049bd4                RadvdCmsInit
 .text          0x00049e98       0x8c /home/z00250609/hybrid/5115_GPL/Hybrid_security_baseline/output/host/usr/arm-unknown-linux-uclibcgnueabi/sysroot/lib/libradvdcms.a(radvdcmsinit.o)
                0x00049e98                ATP_RADVD_Init
 .text          0x00049f24      0x654 /home/z00250609/hybrid/5115_GPL/Hybrid_security_baseline/output/host/usr/arm-unknown-linux-uclibcgnueabi/sysroot/lib/libradvdcms.a(radvdcmsmsgproc.o)
                0x0004a3ec                ATP_RADVD_FAKE
 .text          0x0004a578      0x3f4 /home/z00250609/hybrid/5115_GPL/Hybrid_security_baseline/output/host/usr/arm-unknown-linux-uclibcgnueabi/sysroot/lib/libradvdcms.a(radvdcmsapi.o)
                0x0004a578                ATP_RADVD_ReconfigRadvdPro
                0x0004a75c                ATP_RADVD_UseParameterFromWAN
 .text          0x0004a96c     0x2484 /home/z00250609/hybrid/5115_GPL/Hybrid_security_baseline/output/host/usr/arm-unknown-linux-uclibcgnueabi/sysroot/lib/libroute6cms.a(route6cms.o)
                0x0004a96c                Route6SrcIpDelPolicyRoute
                0x0004ab78                DelPolicyRouteForLan
                0x0004aca0                Route6DelPolicyRoute
                0x0004ad9c                Route6TableForLan
                0x0004b020                Route6SrcIpAddPolicyRoute
                0x0004b3d0                Route6AddPolicyRoute
                0x0004b948                ROUTE6CMS_DelDftRoute
                0x0004b950                ROUTE6CMS_AddDftRoute
                0x0004bfd4                ROUTE6CMS_StopByWan
                0x0004c090                ROUTE6CMS_StartByWan
                0x0004c14c                ROUTE6CMS_ClearByWan
                0x0004c274                ROUTE6CMS_DelMsgProc
                0x0004c3cc                ROUTE6CMS_UnInit
                0x0004c5e4                ROUTE6CMS_Check
                0x0004c980                ROUTE6CMS_SetMsgProc
                0x0004cb2c                ROUTE6CMS_GetMsgProc
                0x0004cc0c                ROUTE6CMS_Init
 .text          0x0004cdf0       0x44 /home/z00250609/hybrid/5115_GPL/Hybrid_security_baseline/output/host/usr/arm-unknown-linux-uclibcgnueabi/sysroot/lib/libroute6cms.a(route6cmsinit.o)
                0x0004ce10                ATP_ROUTE6CMS_Init
 .text          0x0004ce34       0xf8 /home/z00250609/hybrid/5115_GPL/Hybrid_security_baseline/output/host/usr/arm-unknown-linux-uclibcgnueabi/sysroot/lib/libroute6cms.a(route6cmsmsgproc.o)
 .text          0x0004cf2c      0xb88 /home/z00250609/hybrid/5115_GPL/Hybrid_security_baseline/output/host/usr/arm-unknown-linux-uclibcgnueabi/sysroot/lib/libroute6cms.a(route6cmsapi.o)
                0x0004cf84                ATP_Route6_DelPolicyRoute
                0x0004d39c                ATP_Route6_TableRestart
                0x0004d3e4                ATP_Route6_SupplementDftRouteInMRT
                0x0004d56c                ATP_Route6_DelPortBind
                0x0004d67c                ATP_Route6_AddPortBind
                0x0004d818                ATP_Route6_AddPolicyRoute
                0x0004d92c                AddDelL2BPolicyRoute
                0x0004daa0                AddDelL2BPolicyRouteEx
 .text          0x0004dab4     0x156c /home/z00250609/hybrid/5115_GPL/Hybrid_security_baseline/output/host/usr/arm-unknown-linux-uclibcgnueabi/sysroot/lib/libroutecms.a(routecmsmsgproc.o)
                0x0004dab4                ATP_ROUTE_RipCheckMsgProc
                0x0004dbcc                ATP_ROUTE_RipInterfaceDelMsgProc
                0x0004dce8                ATP_ROUTE_RipInterfaceAddSetMsgProc
                0x0004e05c                ATP_ROUTE_RipSetMsgProc
                0x0004e094                ATP_ROUTE_GetMsgProc
                0x0004e0f8                ATP_ROUTE_DelMsgProc
                0x0004e190                ATP_ROUTE_AddSetMsgProc
                0x0004e6a0                ATP_ROUTE_CheckMsgProc
                0x0004ecc8                ATP_ROUTE_DefaultSetMsgProc
                0x0004eea0                ATP_ROUTE_DefaultCheckMsgProc
                0x0004f000                ATP_ROUTE_RipInit
                0x0004f010                ATP_ROUTE_Init
 .text          0x0004f020      0x148 /home/z00250609/hybrid/5115_GPL/Hybrid_security_baseline/output/host/usr/arm-unknown-linux-uclibcgnueabi/sysroot/lib/libroutecms.a(routecmsinit.o)
                0x0004f020                RouteUnInit
                0x0004f128                RouteInit
 .text          0x0004f168      0xfa8 /home/z00250609/hybrid/5115_GPL/Hybrid_security_baseline/output/host/usr/arm-unknown-linux-uclibcgnueabi/sysroot/lib/libroutecms.a(routecms.o)
                0x0004f19c                ATP_ROUTE_GetDftGtwy
                0x0004f1ac                ATP_UNBIND_PolicyRouteBySrcIp
                0x0004f1bc                ATP_BIND_PolicyRouteBySrcIp
                0x0004f1d4                ATP_ROUTE_LanChanged
                0x0004f1f4                ATP_ROUTE_RipSetProc
                0x0004f32c                ATP_ROUTE_AddRipInfoToDB
                0x0004f614                ATP_ROUTE_RipDelProc
                0x0004f638                ATP_ROUTE_DelRipInfoToDB
                0x0004f824                ATP_ROUTE_StopRip
                0x0004f834                ATP_ROUTE_StartRip
                0x0004f844                DeleteRipProc
                0x0004f8a0                UpdateRipProc
                0x0004f8fc                ATP_BIND_RouteDevBrBind
                0x0004f914                ATP_ROUTE_Clear
                0x0004f9bc                ATP_ROUTE_Stop
                0x0004f9dc                ATP_ROUTE_Setup
                0x0004f9fc                ATP_ROUTE_ADD_DftPoliceRoute
                0x0004fb48                ATP_ROUTE_ADD_WanDftPoliceRoute
                0x0004fc74                ATP_ROUTE_SupplementDftRouteInMRT
                0x0004fd78                ATP_ROUTE_DEL_DftPoliceRouteWithSupplement
                0x0004fdf8                ATP_ROUTE_BY_WANSTOP
                0x0004ffc8                ATP_ROUTE_BY_WANCLEAR
                0x00050038                ATP_ROUTE_BY_WANSTART
 .text          0x00050110     0x19a4 /home/z00250609/hybrid/5115_GPL/Hybrid_security_baseline/output/host/usr/arm-unknown-linux-uclibcgnueabi/sysroot/lib/libroutecms.a(routedft.o)
                0x00050110                RouteDftGetGlobal
                0x00050150                RouteDftSetGlobal
                0x0005018c                RouteFindDftPolicyRouteUsed
                0x000501a4                PoliceRoutingBindBrSpecialDev
                0x000503ec                Route_BIND_Init
                0x00050490                PoliceRoutingBindLanRouteInTable
                0x0005066c                PoliceRoutingUnBindSrcIpRuleDevGw
                0x00050778                RouteDelDftPolicyRouteBySrcIp
                0x0005088c                PoliceRoutingBindSrcIpRuleDevGw
                0x00050b50                RouteAddDftPolicyRouteBySrcIp
                0x00050ba0                PoliceRoutingBindFmarkRuleDevGw
                0x00050f40                RouteADDDefaultPoliceRouting
                0x00050f70                RouteCmdErrMsg
                0x00051038                RouteIsDftPath
                0x000510a4                RouteGetDftGtwy
                0x0005140c                RouteHasAnyDefaultGateway
                0x0005154c                RouteDelAllDft
                0x000515a4                RouteGetDefaultGatewayFromDb
                0x000516e8                RouteSetStaticDefaultGateway
                0x0005192c                RouteSetAutoDefaultGateway
 .text          0x00051ab4     0x18fc /home/z00250609/hybrid/5115_GPL/Hybrid_security_baseline/output/host/usr/arm-unknown-linux-uclibcgnueabi/sysroot/lib/libroutecms.a(routestatic.o)
                0x00051d04                PolicyRoute_StaticRouteDelete
                0x000521a4                PolicyRoute_StaticRouteAdd
                0x00052434                RouteRemoveCfg
                0x00052478                RouteGetCfgNext
                0x00052540                RouteFindCfgNode
                0x000525f8                RouteAddCfg
                0x00052768                RouteDeleteCfg
                0x000527e0                RouteExisted
                0x000529bc                RouteClear
                0x00052af0                ATP_UTIL_GetDefaultRouteInterfaceName
                0x00052c6c                RouteSetup
                0x0005310c                RouteStop
 .text          0x000533b0      0x750 /home/z00250609/hybrid/5115_GPL/Hybrid_security_baseline/output/host/usr/arm-unknown-linux-uclibcgnueabi/sysroot/lib/libroutecms.a(routelist.o)
                0x000533b0                RouteListGetNext
                0x000533c8                RouteListLanInitEffect
                0x00053640                RouteListRelease
                0x00053670                RouteStaticWriteCfg
                0x00053738                RouteListRemove
                0x000537c0                RouteListDeleteNode
                0x0005382c                RouteListAddByCopy
                0x000538a0                RouteListInit
 .text          0x00053b00      0xb78 /home/z00250609/hybrid/5115_GPL/Hybrid_security_baseline/output/host/usr/arm-unknown-linux-uclibcgnueabi/sysroot/lib/libroutecms.a(rip.o)
                0x00053b00                RipValidateRipOperation
                0x00053b58                RipValidateRipProtocol
                0x00053be0                RipGetOperation
                0x00053c0c                RipGetProtocol
                0x00053c8c                RouteRemoveRipIfc
                0x00053c9c                RouteAddRipIfc
                0x00053cac                RouteGetRipIfc
                0x00053cbc                RipDeleteRoute
                0x00053f74                RipRun
                0x0005421c                RipRemoveIpTableRule
                0x000543d0                RipStop
                0x000544c8                RipStart
                0x0005460c                RipRelease
                0x0005461c                RipInit
 .text          0x00054678      0x214 /home/z00250609/hybrid/5115_GPL/Hybrid_security_baseline/output/host/usr/arm-unknown-linux-uclibcgnueabi/sysroot/lib/libroutecms.a(riplist.o)
                0x00054678                RipListAdd
                0x000546d4                RipListGet
                0x0005470c                RipListFind
                0x00054754                RipListStore
                0x000547b4                RipListSet
                0x000547b8                RipListRemove
                0x0005484c                RipListRelease
 .text          0x0005488c      0xbac /home/z00250609/hybrid/5115_GPL/Hybrid_security_baseline/output/host/usr/arm-unknown-linux-uclibcgnueabi/sysroot/lib/libsntpcms.a(sntpcms.o)
                0x00054a18                SntpStripString
                0x00054aec                SntpGetDhcpcOption42
                0x00054d68                SntpReadStatus
                0x00054e04                ATP_SNTP_GetStatus
                0x00054e08                SntpServerRestart
                0x00055430                ATP_SNTP_Init
 .text          0x00055438      0x6d4 /home/z00250609/hybrid/5115_GPL/Hybrid_security_baseline/output/host/usr/arm-unknown-linux-uclibcgnueabi/sysroot/lib/libsntpcms.a(sntpcmsposixtime.o)
                0x00055894                ParseTimeZone
 .text          0x00055b0c      0x754 /home/z00250609/hybrid/5115_GPL/Hybrid_security_baseline/output/host/usr/arm-unknown-linux-uclibcgnueabi/sysroot/lib/libsntpcms.a(sntpcmsmsgproc.o)
                0x00056154                SntpNotifyProcDoNotify
                0x00056210                ATP_SntpNotifyProc_NotifyRegister
 .text          0x00056260     0x4d68 /home/z00250609/hybrid/5115_GPL/Hybrid_security_baseline/output/host/usr/arm-unknown-linux-uclibcgnueabi/sysroot/lib/libwancms.a(wancmsmsgproc.o)
                0x000565c4                ATP_WAN_Get_Interface
                0x000565d4                ATP_WAN_GetInstanceHeader
                0x000565e4                ATP_WAN_GetUMTSWan
                0x000568d8                ATP_WAN_GetNext
                0x0005693c                ATP_WAN_SetDialNum
                0x00056964                ATP_WAN_SetApn
                0x0005698c                ATP_WAN_GetWanByIp
                0x000569ec                ATP_WAN_GetWanPathByIp
                0x00056a54                ATP_WAN_GetInstanceByRefPath
                0x00056a9c                ATP_WAN_Judge_Connected_Ipv6
                0x00056ac8                ATP_WAN_Judge_Connected
                0x00056af4                ATP_WAN_Is_Same_Path
                0x00056b2c                ATP_WAN_GetPathByInterface
                0x00056ba0                ATP_WAN_GetStatistics
                0x00057770                ATP_WAN_GetFirstInternetWan
                0x000577b4                ATP_WAN_Contain_Servicelist
                0x00057908                X_UpdateSETTING_SetMsgProc
                0x00057990                ATP_WAN_GetIp6Enable
                0x000579c4                ATP_WAN_GetInstList
                0x00057a24                ATP_WAN_GetInstanceByPath
                0x00057af4                ATP_WAN_GetInstIdByPath
                0x00057b70                ATP_WAN_ValidatePath
                0x00057b94                ATP_WAN_GetGateWay
                0x00057bf4                ATP_WAN_GetMask
                0x00057c54                ATP_WAN_GetIpAddr
                0x00057cb4                ATP_WAN_GetInterface
                0x00057d94                ATP_WAN_GetNatEnable
                0x00057dd4                ATP_WAN_GetIpMtu
                0x00057e58                ATP_WAN_GetProtocol
                0x00057e98                IPV6Init
                0x00057f6c                ATP_WAN_GetACSInfo
                0x000580ac                ATP_WAN_GetWanDevInstIdByWanType
                0x0005819c                ATP_WAN_GetDeviceType
                0x0005842c                ATP_WAN_ConnectionType
                0x000584a0                ATP_WAN_DisplayDebug
                0x000584b0                ATP_WAN_GetDns
                0x000585a0                ATP_WAN_GetStatus6ByInterface
                0x0005860c                ATP_WAN_GetStatus6
                0x00058654                ATP_WAN_GetStatus
                0x0005869c                ATP_WAN_GetServiceList
                0x0005877c                ATP_WAN_GetConnType
                0x0005885c                ATP_WAN_ValidWanWithoutNat
                0x000588cc                ATP_WAN_ValidWan
                0x00058964                ATP_WAN_GetConnInterfaceAlias
                0x000589d8                WanCompensateConfig
                0x00058ea8                ATP_WAN_PPP_DelayEffect
                0x00059034                ATP_WAN_IP_DelayEffect
                0x00059228                WanDelDb
                0x00059274                WanGetNat
                0x0005a728                WanGetDb
 .text          0x0005afc8      0xb20 /home/z00250609/hybrid/5115_GPL/Hybrid_security_baseline/output/host/usr/arm-unknown-linux-uclibcgnueabi/sysroot/lib/libwancms.a(wancmsinit.o)
                0x0005afc8                WanDebugInfo
                0x0005b924                ATP_WAN_UnInit
                0x0005b9b4                ATP_WAN_Init
 .text          0x0005bae8     0x59dc /home/z00250609/hybrid/5115_GPL/Hybrid_security_baseline/output/host/usr/arm-unknown-linux-uclibcgnueabi/sysroot/lib/libwancms.a(wancms.o)
                0x0005bae8                WanBridgeStop
                0x0005baec                WanBridgeUnInit
                0x0005baf0                DEBUG_WAN_INFO
                0x0005baf4                ATP_Wan_IsOnDemandTrigger
                0x0005bb20                WanUpTimeStop
                0x0005bb60                ATP_WAN_StatOverCntReset
                0x0005bb7c                clear_net_stats
                0x0005bc10                ATP_Wan_ConnStatReset
                0x0005bca4                ATP_Wan_ClearIpv6GW
                0x0005bd08                ATP_WAN_StatOverCheck
                0x0005be2c                isRedirectionYet
                0x0005bea0                IsProfileFailed
                0x0005bf30                WanRemoveRedirection
                0x0005c0b0                WanProcRemoveRedirection
                0x0005c21c                WanOnlineUpdateSetRedirection
                0x0005c2a4                WanOnlineUpdateRemoveRedirection
                0x0005c320                WanSetRedirection
                0x0005c4a8                WanProcSetRedirection
                0x0005c560                WanSetDialTrigger
                0x0005c604                WanStaticStop
                0x0005c69c                WanIpv6UpdateInfo
                0x0005ccdc                WanIpv6UpdateProcess
                0x0005cd10                WanIpv6StaticStart
                0x0005cdc4                GetCheckFotaVersionPeriod
                0x0005cdf0                GetCheckFotaTimerByClient
                0x0005ce70                FotaCheckNewVersion
                0x0005d084                WanIpv6StaticStop
                0x0005d130                WanIpv6DownProcess
                0x0005d234                WanIpv6AddrDetectionTimer
                0x0005d460                DisableCheckFotaVersionTimer
                0x0005d498                start_check_fota_timer
                0x0005d544                ATP_WAN_SetStaticIPoEInfo
                0x0005d760                WanStaticStart
                0x0005d824                WanUpdateInfo
                0x0005dbcc                WanDownProcess
                0x0005dd4c                WanUpTimeStart
                0x0005dd70                WanIpv6UpProcess
                0x0005de48                WanIpv6StatusChanged
                0x0005e0d0                WanUpProcess
                0x0005e234                WanStatusChanged
                0x0005e40c                ATP_WAN_Monitor
                0x0005e610                WanGetLinkType
                0x0005e650                WanGetPhysicalStatus
                0x0005e6a8                WanGetActionConn
                0x0005e700                WanGetLinkStatus
                0x0005e758                ATP_WAN_GMsgProc
                0x0005ea84                ATP_WAN_ManualDial
                0x0005ebfc                WanBridgeStart
                0x0005ec48                WanBridgeInit
                0x0005ec4c                ATP_WAN_LinkChanged
                0x0005f138                WanConfigProcess
                0x0005f148                WanGetLinkName
                0x0005f1ac                ATP_WAN_GetLinkName
                0x0005f1b0                WanCompensateName
                0x0005f29c                WanGetLinkInterface
                0x0005f308                WanInitInfo
                0x0005f598                WanClientStop
                0x0005f698                WanRouteUnInit
                0x0005f69c                WanClientStart
                0x0005ff50                WanRouteInit
                0x0005ff54                WanCreateInterfaceFile
                0x000601b4                WanStartL3Inf
                0x00060498                WanStopL3Inf
                0x000605c4                WanRelationClear
                0x000605dc                ATP_WAN_Clear
                0x000606a0                ATP_WAN_VlanClear
                0x00060758                WanUnInit
                0x0006084c                WanSingleStop
                0x00060944                ATP_WAN_ConnectionUnInit
                0x00060968                ATP_WAN_Stop
                0x000609d8                ATP_WAN_VlanStop
                0x00060ac4                WanInit
                0x00060d70                syncCurrProfileListDel
                0x00061108                syncCurrProfileList
                0x000613d4                ATP_WAN_ConnectionInit
                0x000613f8                ATP_WAN_Start
                0x00061468                ATP_WAN_VlanStart
 .text          0x000614c4     0x244c /home/z00250609/hybrid/5115_GPL/Hybrid_security_baseline/output/host/usr/arm-unknown-linux-uclibcgnueabi/sysroot/lib/libwancms.a(wancmsutil.o)
                0x000614c4                WanGetInstanceById
                0x00061520                WanAllocIndex
                0x00061570                WanValidateNatType
                0x00061580                WanValidateProxyNum
                0x00061594                WanValidateSpecification
                0x00061620                WanValidateIdleTime
                0x00061640                WanValidateDisconnTime
                0x0006164c                WanValidateMtuSize
                0x00061688                WanValidateMruSize
                0x000616a0                WanValidateIpv6PrefixLen
                0x000616b0                WanValidateIpType
                0x000616c0                WanComparePrefix
                0x000617dc                WanValidateIpv6Dns
                0x00061890                WanValidateIpv6GatewayAddr
                0x000618cc                WanValidateIpv6Addr
                0x00061994                WanGetStatus
                0x00061a64                WanValidateIpv6AddrType
                0x00061ad4                WanValidateTrigger
                0x00061b44                WanValidateRouteProtocol
                0x00061bcc                WanValidateAddrType
                0x00061c24                WanValidatePppConnType
                0x00061cac                WanValidateIpConnType
                0x00061d1c                WanValidateApn
                0x00061d98                WanValidateSpecialChar
                0x00061df8                WanValidateDialNum
                0x00061e30                WanValidatePppoeSrvName
                0x00061e68                WanValidatePppoeAcName
                0x00061ea0                WanValidatePppPasswd
                0x00061ed8                WanValidatePppUser
                0x00061f10                WanValidateName
                0x00061f48                WanValidateAuth
                0x00062004                WanValidateRouteProtocolAndWan
                0x00062098                WanValidateMask
                0x000620cc                WanValidateLowerLayer
                0x00062154                WanValidateMacAddr
                0x00062188                WanValidateDnsServers
                0x0006223c                WanValidateIpAddr
                0x00062270                WanValidateIpAddrWithsubmask
                0x000623dc                WanValidateConfig
                0x000627e4                WanGetInstanceByPath
                0x000629d8                WanValidateServiceList
                0x00062b18                WanValidateCustomizedChar
                0x00062c68                WanDestroyFiles
                0x00062cd4                WanCreateFiles
                0x000631d0                WanGetRealStatus
                0x000632e8                WanGetPid
                0x00063370                WanGetPppAuthProtocol
                0x000633f4                WanGetTime
                0x00063414                WanGetLastConnErr
                0x00063514                WanGetMacAddress
                0x000635cc                WanGet6BytesMacAddress
                0x00063650                WanRemoveInstance
                0x000636e0                WanAddInstance
 .text          0x00063910      0xbac /home/z00250609/hybrid/5115_GPL/Hybrid_security_baseline/output/host/usr/arm-unknown-linux-uclibcgnueabi/sysroot/lib/libwancms.a(wancmshookproc.o)
                0x00063910                WanHookProcInit
                0x00063aac                WanPostIPV6InitNotifierDoNotify
                0x00063acc                WanLinkChangeNotifierDoNotify
                0x00063af4                WanIpv4ConnectFailNotifierDoNotify
                0x00063b1c                WanIpv4ConnectingNotifierDoNotify
                0x00063b44                WanSingleStopNotifierDoNotify
                0x00063b6c                WanConnEndAddSetMsgProNotifierDoNotify
                0x00063b94                WanRelationClearNotifierDoNotify
                0x00063bbc                WanbridgeWANDownNotifierDoNotify
                0x00063be4                WanbridgeWANUpNotifierDoNotify
                0x00063c0c                WanPostWanUNInitNotifierDoNotify
                0x00063c34                WanPreWanUNInitNotifierDoNotify
                0x00063c5c                WanPostWanInitNotifierDoNotify
                0x00063c84                WanConfigProcessNotifierDoNotify
                0x00063ca4                WanPostUNInitNotifierDoNotify
                0x00063cc4                WanPreUNInitNotifierDoNotify
                0x00063ce4                WanPostInitNotifierDoNotify
                0x00063d04                WanPreInitNotifierDoNotify
                0x00063d24                ATP_WAN_PostIPV6Init_NotifyRegister
                0x00063d74                ATP_WAN_WanLinkChange_NotifyRegister
                0x00063dc4                ATP_WAN_WanIpv4ConnectFail_NotifyRegister
                0x00063e14                ATP_WAN_WanIpv4Connecting_NotifyRegister
                0x00063e64                ATP_WAN_WanSingleStop_NotifyRegister
                0x00063eb4                ATP_WAN_WanConnEndAddSetMsgPro_NotifyRegister
                0x00063f04                ATP_WAN_WanRelationClear_NotifyRegister
                0x00063f54                ATP_WAN_DHCPSpoofedWANDown_NotifyRegister
                0x00063fa4                ATP_WAN_bridgeWANDown_NotifyRegister
                0x00063ff4                ATP_WAN_DHCPSpoofedWANUp_NotifyRegister
                0x00064044                ATP_WAN_bridgeWANUp_NotifyRegister
                0x00064094                ATP_WAN_PostWanUNInit_NotifyRegister
                0x000640e4                ATP_WAN_PreWanUNInit_NotifyRegister
                0x00064134                ATP_WAN_PostWanInit_NotifyRegister
                0x00064184                ATP_WAN_WanConfigProcess_NotifyRegister
                0x000641d4                ATP_WAN_PostUNInit_NotifyRegister
                0x00064224                ATP_WAN_PreUNInit_NotifyRegister
                0x00064274                ATP_WAN_PostInit_NotifyRegister
                0x000642c4                ATP_WAN_PreInit_NotifyRegister
                0x00064314                WanDHCPSpoofedWANDownNotifierDoNotify
                0x000643c0                WanDHCPSpoofedWANUpNotifierDoNotify
 .text          0x000644bc        0x0 /home/z00250609/hybrid/5115_GPL/Hybrid_security_baseline/output/host/usr/arm-unknown-linux-uclibcgnueabi/sysroot/lib/libwancms.a(wancmscall.o)
 .text          0x000644bc      0x774 /home/z00250609/hybrid/5115_GPL/Hybrid_security_baseline/output/host/usr/arm-unknown-linux-uclibcgnueabi/sysroot/lib/libwancms.a(wancmsget.o)
                0x000644bc                ATP_WAN_GetWanNext
                0x000644c8                ATP_WAN_GetWanCmo
                0x000644ec                ATP_WAN_GetWanIndex
                0x00064510                ATP_WAN_GetWanEnable
                0x00064534                ATP_WAN_GetWanDnsOverride
                0x00064558                ATP_WAN_GetWanDnsEnabled
                0x0006457c                ATP_WAN_GetWanMaxMtuSize
                0x000645a0                ATP_WAN_GetWanIpv4Enable
                0x000645c4                ATP_WAN_GetWanIpv6Enable
                0x000645e8                ATP_WAN_GetWanIpv6MTUFlag
                0x0006460c                ATP_WAN_GetWanIpv6DnsEnabled
                0x00064630                ATP_WAN_GetWanIpv6DnsOverride
                0x00064654                ATP_WAN_GetWanIpv6RaPrefixLen
                0x00064678                ATP_WAN_GetWanIpv6PrefixLength
                0x0006469c                ATP_WAN_GetWanIpv6RaPrefix
                0x000646e0                ATP_WAN_GetWanIpv6Addr
                0x00064724                ATP_WAN_GetWanIpv6DnsServers
                0x00064768                ATP_WAN_GetWanIpv6DynamicDns
                0x000647ac                ATP_WAN_GetWanIpv6GateWay
                0x000647f0                ATP_WAN_GetWanIpv6AddrType
                0x00064834                ATP_WAN_GetWanIpv6DynamicGateWay
                0x00064878                ATP_WAN_GetWanIpv6PrefixList
                0x000648bc                ATP_WAN_GetWanIpv6Connstatus
                0x00064900                ATP_WAN_GetWanConnType
                0x00064944                ATP_WAN_GetWanDnsServers
                0x00064988                ATP_WAN_GetWanDynamicDns
                0x000649cc                ATP_WAN_GetWanGateWay
                0x00064a10                ATP_WAN_GetWanPath
                0x00064a54                ATP_WAN_GetWanConnstatus
                0x00064a98                ATP_WAN_GetWanTunnelIfcName
                0x00064adc                ATP_WAN_GetWanInterface
                0x00064b20                ATP_WAN_GetWanIpAddr
                0x00064b64                ATP_WAN_GetWanAddrType
                0x00064ba8                ATP_WAN_GetWanServiceList
                0x00064bec                ATP_WAN_GetWanConnTrigger
 .text          0x00064c30      0x6bc /home/z00250609/hybrid/5115_GPL/Hybrid_security_baseline/output/host/usr/arm-unknown-linux-uclibcgnueabi/sysroot/lib/libwancorecms.a(wancorecms.o)
                0x00064c30                WanIpv6ConnectFailNotifierDoNotify
                0x00064c58                WanIpv6ConnectingNotifierDoNotify
                0x00064c80                WanPreWanIpv6UpdateInfoNotifierDoNotify
                0x00064ca8                WanIpv6UpdateProcessNotifierDoNotify
                0x00064cd0                WanIpv6DownProcessNotifierDoNotify
                0x00064cf8                WanIpv6UpProcessNotifierDoNotify
                0x00064d20                WanIpv6UpdateInfoNotifierDoNotify
                0x00064d48                WanPreWanUpdateInfoNotifierDoNotify
                0x00064d70                WanUpdateInfoNotifierDoNotify
                0x00064d98                WanRoutedWANDownNotifierDoNotify
                0x00064dc0                WanPreRoutedWANDownNotifierDoNotify
                0x00064de8                WanRoutedWANUpNotifierDoNotify
                0x00064e10                WanIpv6ConnectFailNotifyInit
                0x00064e34                ATP_WAN_WanIpv6ConnectFail_NotifyRegister
                0x00064e74                WanIpv6ConnectingNotifyInit
                0x00064e9c                ATP_WAN_WanIpv6Connecting_NotifyRegister
                0x00064edc                WanPreWanIpv6UpdateInfoNotifyInit
                0x00064f04                ATP_WAN_PreWanIpv6UpdateInfo_NotifyRegister
                0x00064f44                WanIpv6UpdateProcessNotifyInit
                0x00064f6c                ATP_WAN_WanIpv6UpdateProcess_NotifyRegister
                0x00064fac                WanIpv6DownProcessNotifyInit
                0x00064fd4                ATP_WAN_WanIpv6DownProcess_NotifyRegister
                0x00065014                WanIpv6UpProcessNotifyInit
                0x0006503c                ATP_WAN_WanIpv6UpProcess_NotifyRegister
                0x0006507c                WanIpv6UpdateInfoNotifyInit
                0x000650a4                ATP_WAN_WanIpv6UpdateInfo_NotifyRegister
                0x000650e4                WanPreWanUpdateInfoNotifyInit
                0x0006510c                ATP_WAN_PreWanUpdateInfo_NotifyRegister
                0x0006514c                WanUpdateInfoNotifyInit
                0x00065174                ATP_WAN_WanUpdateInfo_NotifyRegister
                0x000651b4                WanRoutedWANDownNotifyInit
                0x000651dc                ATP_WAN_RoutedWANDown_NotifyRegister
                0x0006521c                WanRoutedPreWANDownNotifyInit
                0x00065244                ATP_WAN_PreRoutedWANDown_NotifyRegister
                0x00065284                WanRoutedWANUpNotifyInit
                0x000652ac                ATP_WAN_RoutedWANUp_NotifyRegister
 .text          0x000652ec       0x58 /home/z00250609/hybrid/5115_GPL/Hybrid_security_baseline/output/host/usr/arm-unknown-linux-uclibcgnueabi/sysroot/lib/libwanumtscms.a(wucms.o)
                0x000652ec                WuGetIndexByInstId
                0x00065328                WuDestoryInterface
 .text          0x00065344      0x58c /home/z00250609/hybrid/5115_GPL/Hybrid_security_baseline/output/host/usr/arm-unknown-linux-uclibcgnueabi/sysroot/lib/libwanumtscms.a(wucmsinit.o)
                0x00065344                ATP_WU_UnInit
                0x0006534c                ATP_WU_GetConnNum
                0x000653ac                ATP_WU_CheckProfile
                0x000653f8                ATP_WU_WanConnDevDelMsgProc
                0x0006548c                ATP_WU_GetName
                0x00065534                ATP_WU_GetInterface
                0x000655b0                ATP_WU_GetPhysicalStatus
                0x00065698                ATP_WU_WanConnDevAddMsgProc
                0x0006574c                ATP_WU_GetLinkStatus
                0x000657ac                ATP_WU_Init
 .text          0x000658d0     0x29a0 /home/z00250609/hybrid/5115_GPL/Hybrid_security_baseline/output/host/usr/arm-unknown-linux-uclibcgnueabi/sysroot/lib/libwanumtscms.a(wucmsmsgproc.o)
                0x00065fc4                ATP_WE_WanUmtsproFileDelMsgProc
                0x00066060                ATP_WE_WanUmtsproFileAddSetMsgProc
                0x00066294                ATP_WU_WanUmtsProfileGetMsgProc
                0x0006641c                ATP_WU_WanUmtsStatusGetMsgProc
                0x00066488                ATP_WU_Monitor
 .text          0x00068270      0xa50 /home/z00250609/hybrid/5115_GPL/Hybrid_security_baseline/output/host/usr/arm-unknown-linux-uclibcgnueabi/sysroot/lib/libwanumtscms.a(wuprofile.o)
                0x00068270                WuProfileGet
                0x000682ac                WuGetProfileEntryNums
                0x000682d4                WanValidateIdleMtu
                0x000682e8                WuProfileCheckDailmodeValue
                0x0006834c                WuProfileCheckAuthProtocol
                0x000683c8                WuProfileCheckStrValue
                0x00068404                WuProfileCheckValue
                0x00068460                WuProfileCheckDialNumValue
                0x00068494                WuProfileRemove
                0x00068510                WuProfileUnInit
                0x0006853c                WuProfileCheckAPNValue
                0x00068734                WuProfileCheckAPNALLValue
                0x00068768                WuProfileCheckIpAddressValue
                0x00068798                WuProfileCheckPassWordValue
                0x000687c4                WuProfileCheckUserNameValue
                0x000687f0                WuProfileCheckProfileNameValue
                0x00068830                Wu_ProfileParaCheck
                0x00068a08                WuProfileSet
                0x00068aac                WuProfileInit
                0x00068c48                WuGetProfileByName
 .text          0x00068cc0      0x5d8 /home/z00250609/hybrid/5115_GPL/Hybrid_security_baseline/output/host/usr/arm-unknown-linux-uclibcgnueabi/sysroot/lib/libwanvlancms.a(wanvlancmsmsgproc.o)
                0x00068d40                ATP_VLANCONF_GetInstance
                0x00068dd8                ATP_VLANCONF_GetLinkName
                0x00068f5c                VlanConfigCompensateInfo
                0x00069168                VlanConfigGetMsgProc
                0x000691a8                VlanConfigGetDB
                0x00069284                ATP_VLANCONF_Init
 .text          0x00069298        0x0 /home/z00250609/hybrid/5115_GPL/Hybrid_security_baseline/output/host/usr/arm-unknown-linux-uclibcgnueabi/sysroot/lib/libwanvlancms.a(wanvlancmsinit.o)
 .text          0x00069298      0x368 /home/z00250609/hybrid/5115_GPL/Hybrid_security_baseline/output/host/usr/arm-unknown-linux-uclibcgnueabi/sysroot/lib/libwanvlancms.a(wanvlancms.o)
                0x00069298                VlanConfigGetInstance
                0x000692c4                VlanConfigDelInstance
                0x00069324                VlanConfigAddInstance
                0x000693a8                VlanConfigDelFromDB
                0x000693f0                ATP_VLANCONF_Clear
                0x000694c8                VlanConfigGetLinkName
                0x000694d8                VlanConfigWcdPathToInstId
 .text          0x00069600      0x144 /opt/toolchain_hisi/arm-hsan-linux-uclibcgnueabi/bin/../lib/gcc/arm-hsan-linux-uclibcgnueabi/4.4.6/libgcc.a(_divsi3.o)
                0x00069600                __divsi3
                0x00069600                __aeabi_idiv
                0x0006972c                __aeabi_idivmod
 .text          0x00069744      0x41c /opt/toolchain_hisi/arm-hsan-linux-uclibcgnueabi/bin/../lib/gcc/arm-hsan-linux-uclibcgnueabi/4.4.6/libgcc.a(_arm_addsubdf3.o)
                0x00069744                __aeabi_drsub
                0x0006974c                __subdf3
                0x0006974c                __aeabi_dsub
                0x00069750                __adddf3
                0x00069750                __aeabi_dadd
                0x00069a60                __aeabi_ui2d
                0x00069a60                __floatunsidf
                0x00069a84                __floatsidf
                0x00069a84                __aeabi_i2d
                0x00069aac                __aeabi_f2d
                0x00069aac                __extendsfdf2
                0x00069aec                __floatundidf
                0x00069aec                __aeabi_ul2d
                0x00069b00                __floatdidf
                0x00069b00                __aeabi_l2d
 .text          0x00069b60      0x49c /opt/toolchain_hisi/arm-hsan-linux-uclibcgnueabi/bin/../lib/gcc/arm-hsan-linux-uclibcgnueabi/4.4.6/libgcc.a(_arm_muldivdf3.o)
                0x00069b60                __muldf3
                0x00069b60                __aeabi_dmul
                0x00069df0                __divdf3
                0x00069df0                __aeabi_ddiv
 .text          0x00069ffc       0x5c /opt/toolchain_hisi/arm-hsan-linux-uclibcgnueabi/bin/../lib/gcc/arm-hsan-linux-uclibcgnueabi/4.4.6/libgcc.a(_arm_fixdfsi.o)
                0x00069ffc                __fixdfsi
                0x00069ffc                __aeabi_d2iz
 .text          0x0006a058       0x54 /opt/toolchain_hisi/arm-hsan-linux-uclibcgnueabi/bin/../lib/gcc/arm-hsan-linux-uclibcgnueabi/4.4.6/libgcc.a(_arm_fixunsdfsi.o)
                0x0006a058                __fixunsdfsi
                0x0006a058                __aeabi_d2uiz
 .text          0x0006a0ac      0x2ac /opt/toolchain_hisi/arm-hsan-linux-uclibcgnueabi/bin/../lib/gcc/arm-hsan-linux-uclibcgnueabi/4.4.6/libgcc.a(_arm_addsubsf3.o)
                0x0006a0ac                __aeabi_frsub
                0x0006a0b4                __subsf3
                0x0006a0b4                __aeabi_fsub
                0x0006a0b8                __aeabi_fadd
                0x0006a0b8                __addsf3
                0x0006a274                __aeabi_ui2f
                0x0006a274                __floatunsisf
                0x0006a27c                __floatsisf
                0x0006a27c                __aeabi_i2f
                0x0006a29c                __aeabi_ul2f
                0x0006a29c                __floatundisf
                0x0006a2ac                __aeabi_l2f
                0x0006a2ac                __floatdisf
 .text          0x0006a358       0x14 /opt/toolchain_hisi/arm-hsan-linux-uclibcgnueabi/bin/../lib/gcc/arm-hsan-linux-uclibcgnueabi/4.4.6/libgcc.a(_dvmd_lnx.o)
                0x0006a358                __div0
 .text          0x0006a36c        0x0 /opt/toolchain_hisi/arm-hsan-linux-uclibcgnueabi/bin/../lib/gcc/arm-hsan-linux-uclibcgnueabi/4.4.6/crtend.o
 .text          0x0006a36c        0x0 /home/z00250609/hybrid/5115_GPL/Hybrid_security_baseline/output/host/usr/arm-unknown-linux-uclibcgnueabi/sysroot/usr/lib/crtn.o
 *(.gnu.warning)
 *(.glue_7t)
 .glue_7t       0x00000000        0x0 linker stubs
 *(.glue_7)
 .glue_7        0x00000000        0x0 linker stubs
 *(.vfp11_veneer)
 .vfp11_veneer  0x00000000        0x0 linker stubs
 *(.v4_bx)
 .v4_bx         0x00000000        0x0 linker stubs

.fini           0x0006a36c       0x10
 *(.fini)
 .fini          0x0006a36c        0xc /home/z00250609/hybrid/5115_GPL/Hybrid_security_baseline/output/host/usr/arm-unknown-linux-uclibcgnueabi/sysroot/usr/lib/crti.o
                0x0006a36c                _fini
 .fini          0x0006a378        0x4 /home/z00250609/hybrid/5115_GPL/Hybrid_security_baseline/output/host/usr/arm-unknown-linux-uclibcgnueabi/sysroot/usr/lib/crtn.o
                0x0006a37c                PROVIDE (__etext, .)
                0x0006a37c                PROVIDE (_etext, .)
                0x0006a37c                PROVIDE (etext, .)

.rodata         0x0006a37c    0x1106a
 *(.rodata .rodata.* .gnu.linkonce.r.*)
 .rodata.str1.1
                0x0006a37c       0x3a /home/z00250609/hybrid/5115_GPL/Hybrid_security_baseline/output/package/atp/configuration/cmsmain/management.o
 .rodata.str1.1
                0x0006a3b6       0xa8 /home/z00250609/hybrid/5115_GPL/Hybrid_security_baseline/output/package/atp/configuration/cmsmain/cmsmonitor.o
 *fill*         0x0006a45e        0x2 00
 .rodata        0x0006a460       0x4c /home/z00250609/hybrid/5115_GPL/Hybrid_security_baseline/output/package/atp/configuration/cmsmain/cmsinit.o
 .rodata.str1.1
                0x0006a4ac       0x2b /home/z00250609/hybrid/5115_GPL/Hybrid_security_baseline/output/package/atp/configuration/cmsmain/cmsinit.o
 .rodata.str1.1
                0x0006a4d7      0x1ca /home/z00250609/hybrid/5115_GPL/Hybrid_security_baseline/output/host/usr/arm-unknown-linux-uclibcgnueabi/sysroot/lib/libcmscore.a(cmsmsgproc.o)
                                0x1da (size before relaxing)
 *fill*         0x0006a6a1        0x3 00
 .rodata        0x0006a6a4       0x20 /home/z00250609/hybrid/5115_GPL/Hybrid_security_baseline/output/host/usr/arm-unknown-linux-uclibcgnueabi/sysroot/lib/libcmscore.a(cmsutil.o)
 .rodata.str1.1
                0x0006a6c4      0x467 /home/z00250609/hybrid/5115_GPL/Hybrid_security_baseline/output/host/usr/arm-unknown-linux-uclibcgnueabi/sysroot/lib/libcmscore.a(cmsutil.o)
                                0x49b (size before relaxing)
 .rodata.str1.1
                0x0006ab2b       0x5a /home/z00250609/hybrid/5115_GPL/Hybrid_security_baseline/output/host/usr/arm-unknown-linux-uclibcgnueabi/sysroot/lib/libledservicecms.a(ledserviceini.o)
 *fill*         0x0006ab85        0x3 00
 .rodata        0x0006ab88       0x28 /home/z00250609/hybrid/5115_GPL/Hybrid_security_baseline/output/host/usr/arm-unknown-linux-uclibcgnueabi/sysroot/lib/libtr143cms.a(tr143cmsmsgproc.o)
 .rodata.str1.1
                0x0006abb0      0x473 /home/z00250609/hybrid/5115_GPL/Hybrid_security_baseline/output/host/usr/arm-unknown-linux-uclibcgnueabi/sysroot/lib/libtr143cms.a(tr143cmsmsgproc.o)
                                0x489 (size before relaxing)
 *fill*         0x0006b023        0x1 00
 .rodata        0x0006b024       0x10 /home/z00250609/hybrid/5115_GPL/Hybrid_security_baseline/output/host/usr/arm-unknown-linux-uclibcgnueabi/sysroot/lib/libclicms.a(clicmsmsgproc.o)
 .rodata.str1.1
                0x0006b034       0x34 /home/z00250609/hybrid/5115_GPL/Hybrid_security_baseline/output/host/usr/arm-unknown-linux-uclibcgnueabi/sysroot/lib/libclicms.a(clicmsmsgproc.o)
 .rodata        0x0006b068       0x2c /home/z00250609/hybrid/5115_GPL/Hybrid_security_baseline/output/host/usr/arm-unknown-linux-uclibcgnueabi/sysroot/lib/libcwmpcms.a(cwmpcmsmsgproc.o)
 .rodata.str1.1
                0x0006b094      0x14f /home/z00250609/hybrid/5115_GPL/Hybrid_security_baseline/output/host/usr/arm-unknown-linux-uclibcgnueabi/sysroot/lib/libcwmpcms.a(cwmpcmsmsgproc.o)
                                0x162 (size before relaxing)
 .rodata.str1.1
                0x0006b1e3       0x32 /home/z00250609/hybrid/5115_GPL/Hybrid_security_baseline/output/host/usr/arm-unknown-linux-uclibcgnueabi/sysroot/lib/libcwmpcms.a(cwmpcms.o)
                                 0x5f (size before relaxing)
 *fill*         0x0006b215        0x3 00
 .rodata        0x0006b218       0x10 /home/z00250609/hybrid/5115_GPL/Hybrid_security_baseline/output/host/usr/arm-unknown-linux-uclibcgnueabi/sysroot/lib/libippingcms.a(ippingcmsmsgproc.o)
 .rodata.str1.1
                0x0006b228       0xfa /home/z00250609/hybrid/5115_GPL/Hybrid_security_baseline/output/host/usr/arm-unknown-linux-uclibcgnueabi/sysroot/lib/libippingcms.a(ippingcmsmsgproc.o)
                                0x151 (size before relaxing)
 .rodata.str1.1
                0x0006b322       0x42 /home/z00250609/hybrid/5115_GPL/Hybrid_security_baseline/output/host/usr/arm-unknown-linux-uclibcgnueabi/sysroot/lib/liblogcms.a(logcms.o)
 .rodata.str1.1
                0x0006b364        0xa /home/z00250609/hybrid/5115_GPL/Hybrid_security_baseline/output/host/usr/arm-unknown-linux-uclibcgnueabi/sysroot/lib/liblogcms.a(logcmsinit.o)
                                 0x1b (size before relaxing)
 *fill*         0x0006b36e        0x2 00
 .rodata        0x0006b370        0x8 /home/z00250609/hybrid/5115_GPL/Hybrid_security_baseline/output/host/usr/arm-unknown-linux-uclibcgnueabi/sysroot/lib/liblogcms.a(logcmsmsgproc.o)
 .rodata.str1.1
                0x0006b378       0x26 /home/z00250609/hybrid/5115_GPL/Hybrid_security_baseline/output/host/usr/arm-unknown-linux-uclibcgnueabi/sysroot/lib/liblogcms.a(logcmsmsgproc.o)
                                 0x30 (size before relaxing)
 *fill*         0x0006b39e        0x2 00
 .rodata        0x0006b3a0        0x4 /home/z00250609/hybrid/5115_GPL/Hybrid_security_baseline/output/host/usr/arm-unknown-linux-uclibcgnueabi/sysroot/lib/libsysinfocms.a(sysinfoinit.o)
 .rodata.str1.1
                0x0006b3a4       0xc9 /home/z00250609/hybrid/5115_GPL/Hybrid_security_baseline/output/host/usr/arm-unknown-linux-uclibcgnueabi/sysroot/lib/libsysinfocms.a(sysinfoinit.o)
                                 0xcd (size before relaxing)
 *fill*         0x0006b46d        0x3 00
 .rodata        0x0006b470      0x194 /home/z00250609/hybrid/5115_GPL/Hybrid_security_baseline/output/host/usr/arm-unknown-linux-uclibcgnueabi/sysroot/lib/libsysinfocms.a(sysinfocmsmsgproc.o)
 .rodata.str1.1
                0x0006b604      0x243 /home/z00250609/hybrid/5115_GPL/Hybrid_security_baseline/output/host/usr/arm-unknown-linux-uclibcgnueabi/sysroot/lib/libsysinfocms.a(sysinfocmsmsgproc.o)
                                0x29e (size before relaxing)
 .rodata.str1.1
                0x0006b847        0xc /home/z00250609/hybrid/5115_GPL/Hybrid_security_baseline/output/host/usr/arm-unknown-linux-uclibcgnueabi/sysroot/lib/libsysinfocms.a(sysinfocms.o)
 *fill*         0x0006b853        0x1 00
 .rodata        0x0006b854        0x8 /home/z00250609/hybrid/5115_GPL/Hybrid_security_baseline/output/host/usr/arm-unknown-linux-uclibcgnueabi/sysroot/lib/libtr111cms.a(tr111cmsmsgproc.o)
                0x0006b854                m_stMDGetObj
 .rodata.str1.1
                0x0006b85c      0x1c6 /home/z00250609/hybrid/5115_GPL/Hybrid_security_baseline/output/host/usr/arm-unknown-linux-uclibcgnueabi/sysroot/lib/libtr111cms.a(tr111cmsmsgproc.o)
                                0x206 (size before relaxing)
 *fill*         0x0006ba22        0x2 00
 .rodata        0x0006ba24       0x18 /home/z00250609/hybrid/5115_GPL/Hybrid_security_baseline/output/host/usr/arm-unknown-linux-uclibcgnueabi/sysroot/lib/libtraceroutecms.a(traceroutecmsmsgproc.o)
 .rodata.str1.1
                0x0006ba3c      0x12c /home/z00250609/hybrid/5115_GPL/Hybrid_security_baseline/output/host/usr/arm-unknown-linux-uclibcgnueabi/sysroot/lib/libtraceroutecms.a(traceroutecmsmsgproc.o)
                                0x1b0 (size before relaxing)
 .rodata        0x0006bb68        0x8 /home/z00250609/hybrid/5115_GPL/Hybrid_security_baseline/output/host/usr/arm-unknown-linux-uclibcgnueabi/sysroot/lib/libupnpcms.a(upnpcms.o)
 .rodata.str1.1
                0x0006bb70      0x103 /home/z00250609/hybrid/5115_GPL/Hybrid_security_baseline/output/host/usr/arm-unknown-linux-uclibcgnueabi/sysroot/lib/libupnpcms.a(upnpcms.o)
                                0x11b (size before relaxing)
 *fill*         0x0006bc73        0x1 00
 .rodata        0x0006bc74       0x18 /home/z00250609/hybrid/5115_GPL/Hybrid_security_baseline/output/host/usr/arm-unknown-linux-uclibcgnueabi/sysroot/lib/libwebcms.a(webcmsmsgproc.o)
 .rodata.str1.1
                0x0006bc8c       0x63 /home/z00250609/hybrid/5115_GPL/Hybrid_security_baseline/output/host/usr/arm-unknown-linux-uclibcgnueabi/sysroot/lib/libwebcms.a(webcmsmsgproc.o)
 *fill*         0x0006bcef        0x1 00
 .rodata        0x0006bcf0       0x70 /home/z00250609/hybrid/5115_GPL/Hybrid_security_baseline/output/host/usr/arm-unknown-linux-uclibcgnueabi/sysroot/lib/libalgcms.a(algapi.o)
                0x0006bcf0                local_port_map
 .rodata.str1.1
                0x0006bd60      0x358 /home/z00250609/hybrid/5115_GPL/Hybrid_security_baseline/output/host/usr/arm-unknown-linux-uclibcgnueabi/sysroot/lib/libalgcms.a(algapi.o)
                                0x367 (size before relaxing)
 .rodata.str1.1
                0x0006c0b8      0x1d2 /home/z00250609/hybrid/5115_GPL/Hybrid_security_baseline/output/host/usr/arm-unknown-linux-uclibcgnueabi/sysroot/lib/libbridgecms.a(bridgecms.o)
                                0x1ff (size before relaxing)
 *fill*         0x0006c28a        0x2 00
 .rodata        0x0006c28c       0x38 /home/z00250609/hybrid/5115_GPL/Hybrid_security_baseline/output/host/usr/arm-unknown-linux-uclibcgnueabi/sysroot/lib/libbridgecms.a(bridgecmsmsgproc.o)
 .rodata.str1.1
                0x0006c2c4       0xc3 /home/z00250609/hybrid/5115_GPL/Hybrid_security_baseline/output/host/usr/arm-unknown-linux-uclibcgnueabi/sysroot/lib/libbridgecms.a(bridgecmsmsgproc.o)
                                0x115 (size before relaxing)
 .rodata.str1.1
                0x0006c387      0x677 /home/z00250609/hybrid/5115_GPL/Hybrid_security_baseline/output/host/usr/arm-unknown-linux-uclibcgnueabi/sysroot/lib/libipv6commoncms.a(ipv6commoncms.o)
                                0x685 (size before relaxing)
 *fill*         0x0006c9fe        0x2 00
 .rodata        0x0006ca00       0x10 /home/z00250609/hybrid/5115_GPL/Hybrid_security_baseline/output/host/usr/arm-unknown-linux-uclibcgnueabi/sysroot/lib/libipv6commoncms.a(ipv6commoncmsproc.o)
 .rodata.str1.1
                0x0006ca10      0x178 /home/z00250609/hybrid/5115_GPL/Hybrid_security_baseline/output/host/usr/arm-unknown-linux-uclibcgnueabi/sysroot/lib/libipv6commoncms.a(ipv6commoncmsproc.o)
                                0x1b7 (size before relaxing)
 .rodata        0x0006cb88       0x30 /home/z00250609/hybrid/5115_GPL/Hybrid_security_baseline/output/host/usr/arm-unknown-linux-uclibcgnueabi/sysroot/lib/libddnscms.a(ddnscms.o)
 .rodata.str1.1
                0x0006cbb8      0x15f /home/z00250609/hybrid/5115_GPL/Hybrid_security_baseline/output/host/usr/arm-unknown-linux-uclibcgnueabi/sysroot/lib/libddnscms.a(ddnscms.o)
                                0x17e (size before relaxing)
 *fill*         0x0006cd17        0x1 00
 .rodata        0x0006cd18       0x10 /home/z00250609/hybrid/5115_GPL/Hybrid_security_baseline/output/host/usr/arm-unknown-linux-uclibcgnueabi/sysroot/lib/libddnscms.a(ddnscmsmsgproc.o)
 .rodata.str1.1
                0x0006cd28       0x36 /home/z00250609/hybrid/5115_GPL/Hybrid_security_baseline/output/host/usr/arm-unknown-linux-uclibcgnueabi/sysroot/lib/libddnscms.a(ddnscmsmsgproc.o)
 .rodata.str1.1
                0x0006cd5e       0xe3 /home/z00250609/hybrid/5115_GPL/Hybrid_security_baseline/output/host/usr/arm-unknown-linux-uclibcgnueabi/sysroot/lib/libdhcp6ccms.a(dhcp6ccms.o)
                                0x10b (size before relaxing)
 *fill*         0x0006ce41        0x3 00
 .rodata        0x0006ce44       0x1c /home/z00250609/hybrid/5115_GPL/Hybrid_security_baseline/output/host/usr/arm-unknown-linux-uclibcgnueabi/sysroot/lib/libdhcp6scms.a(dhcp6scms.o)
 .rodata.str1.1
                0x0006ce60      0xab7 /home/z00250609/hybrid/5115_GPL/Hybrid_security_baseline/output/host/usr/arm-unknown-linux-uclibcgnueabi/sysroot/lib/libdhcp6scms.a(dhcp6scms.o)
                                0xbbc (size before relaxing)
 .rodata.str1.1
                0x0006d917       0x2b /home/z00250609/hybrid/5115_GPL/Hybrid_security_baseline/output/host/usr/arm-unknown-linux-uclibcgnueabi/sysroot/lib/libdhcp6scms.a(dhcp6scmsinit.o)
                                 0x44 (size before relaxing)
 *fill*         0x0006d942        0x2 00
 .rodata        0x0006d944        0x8 /home/z00250609/hybrid/5115_GPL/Hybrid_security_baseline/output/host/usr/arm-unknown-linux-uclibcgnueabi/sysroot/lib/libdhcp6scms.a(dhcp6scmsmsgproc.o)
 .rodata.str1.1
                0x0006d94c       0xca /home/z00250609/hybrid/5115_GPL/Hybrid_security_baseline/output/host/usr/arm-unknown-linux-uclibcgnueabi/sysroot/lib/libdhcp6scms.a(dhcp6scmsmsgproc.o)
                                0x1ff (size before relaxing)
 .rodata.str1.1
                0x0006da16       0x4c /home/z00250609/hybrid/5115_GPL/Hybrid_security_baseline/output/host/usr/arm-unknown-linux-uclibcgnueabi/sysroot/lib/libdhcp6scms.a(dhcp6scmsapi.o)
                                 0x65 (size before relaxing)
 .rodata.str1.1
                0x0006da62       0x46 /home/z00250609/hybrid/5115_GPL/Hybrid_security_baseline/output/host/usr/arm-unknown-linux-uclibcgnueabi/sysroot/lib/libdhcpccms.a(dhcpccms.o)
                                 0xcc (size before relaxing)
 .rodata        0x0006daa8        0xc /home/z00250609/hybrid/5115_GPL/Hybrid_security_baseline/output/host/usr/arm-unknown-linux-uclibcgnueabi/sysroot/lib/libdhcpscms.a(lanapi.o)
 .rodata.str1.1
                0x0006dab4      0x103 /home/z00250609/hybrid/5115_GPL/Hybrid_security_baseline/output/host/usr/arm-unknown-linux-uclibcgnueabi/sysroot/lib/libdhcpscms.a(lanapi.o)
                                0x133 (size before relaxing)
 .rodata.str1.1
                0x0006dbb7      0x20c /home/z00250609/hybrid/5115_GPL/Hybrid_security_baseline/output/host/usr/arm-unknown-linux-uclibcgnueabi/sysroot/lib/libdhcpscms.a(lanutil.o)
                                0x235 (size before relaxing)
 .rodata.str1.1
                0x0006ddc3       0x68 /home/z00250609/hybrid/5115_GPL/Hybrid_security_baseline/output/host/usr/arm-unknown-linux-uclibcgnueabi/sysroot/lib/libdhcpscms.a(dhcpscmsinit.o)
                                 0x9e (size before relaxing)
 .rodata.str1.1
                0x00000000        0x6 /home/z00250609/hybrid/5115_GPL/Hybrid_security_baseline/output/host/usr/arm-unknown-linux-uclibcgnueabi/sysroot/lib/libdhcpscms.a(dhcpscmsnotifymngr.o)
 *fill*         0x0006de2b        0x1 00
 .rodata        0x0006de2c       0x78 /home/z00250609/hybrid/5115_GPL/Hybrid_security_baseline/output/host/usr/arm-unknown-linux-uclibcgnueabi/sysroot/lib/libdhcpscms.a(dhcpscmsmsgproc.o)
 .rodata.str1.1
                0x0006dea4      0x267 /home/z00250609/hybrid/5115_GPL/Hybrid_security_baseline/output/host/usr/arm-unknown-linux-uclibcgnueabi/sysroot/lib/libdhcpscms.a(dhcpscmsmsgproc.o)
 .rodata.str1.1
                0x0006e10b       0x23 /home/z00250609/hybrid/5115_GPL/Hybrid_security_baseline/output/host/usr/arm-unknown-linux-uclibcgnueabi/sysroot/lib/libdhcpscms.a(dhcpscms.o)
                                 0x79 (size before relaxing)
 .rodata.str1.1
                0x0006e12e       0x33 /home/z00250609/hybrid/5115_GPL/Hybrid_security_baseline/output/host/usr/arm-unknown-linux-uclibcgnueabi/sysroot/lib/libdnscms.a(dnscmsinit.o)
                                 0x3c (size before relaxing)
 .rodata.str1.1
                0x0006e161       0x4a /home/z00250609/hybrid/5115_GPL/Hybrid_security_baseline/output/host/usr/arm-unknown-linux-uclibcgnueabi/sysroot/lib/libdnscms.a(dnscms.o)
                                 0x94 (size before relaxing)
 .rodata.str1.1
                0x0006e1ab       0x65 /home/z00250609/hybrid/5115_GPL/Hybrid_security_baseline/output/host/usr/arm-unknown-linux-uclibcgnueabi/sysroot/lib/liblanethcms.a(ethcms.o)
                                 0x76 (size before relaxing)
 .rodata        0x0006e210       0x2c /home/z00250609/hybrid/5115_GPL/Hybrid_security_baseline/output/host/usr/arm-unknown-linux-uclibcgnueabi/sysroot/lib/liblanethcms.a(ethapi.o)
 .rodata.str1.1
                0x0006e23c      0x1ce /home/z00250609/hybrid/5115_GPL/Hybrid_security_baseline/output/host/usr/arm-unknown-linux-uclibcgnueabi/sysroot/lib/liblanethcms.a(ethapi.o)
                                0x366 (size before relaxing)
 .rodata.str1.1
                0x0006e40a       0x6b /home/z00250609/hybrid/5115_GPL/Hybrid_security_baseline/output/host/usr/arm-unknown-linux-uclibcgnueabi/sysroot/lib/libwanethcms.a(wecms.o)
                                 0xb5 (size before relaxing)
 .rodata.str1.1
                0x0006e475       0xc7 /home/z00250609/hybrid/5115_GPL/Hybrid_security_baseline/output/host/usr/arm-unknown-linux-uclibcgnueabi/sysroot/lib/libwanethcms.a(wecmsinit.o)
                                0x114 (size before relaxing)
 .rodata        0x0006e53c       0x20 /home/z00250609/hybrid/5115_GPL/Hybrid_security_baseline/output/host/usr/arm-unknown-linux-uclibcgnueabi/sysroot/lib/libwanethcms.a(wecmsmsgproc.o)
 .rodata.str1.1
                0x0006e55c       0xca /home/z00250609/hybrid/5115_GPL/Hybrid_security_baseline/output/host/usr/arm-unknown-linux-uclibcgnueabi/sysroot/lib/libwanethcms.a(wecmsmsgproc.o)
                                0x119 (size before relaxing)
 *fill*         0x0006e626        0x2 00
 .rodata        0x0006e628       0x60 /home/z00250609/hybrid/5115_GPL/Hybrid_security_baseline/output/host/usr/arm-unknown-linux-uclibcgnueabi/sysroot/lib/libfirewallcms.a(firewallcmsmsgproc.o)
 .rodata.str1.1
                0x0006e688      0x156 /home/z00250609/hybrid/5115_GPL/Hybrid_security_baseline/output/host/usr/arm-unknown-linux-uclibcgnueabi/sysroot/lib/libfirewallcms.a(firewallcmsmsgproc.o)
                                0x170 (size before relaxing)
 .rodata.str1.1
                0x0006e7de       0xcc /home/z00250609/hybrid/5115_GPL/Hybrid_security_baseline/output/host/usr/arm-unknown-linux-uclibcgnueabi/sysroot/lib/libfirewallcms.a(firewallutil.o)
                                 0xd1 (size before relaxing)
 .rodata.str1.1
                0x0006e8aa     0x140d /home/z00250609/hybrid/5115_GPL/Hybrid_security_baseline/output/host/usr/arm-unknown-linux-uclibcgnueabi/sysroot/lib/libfirewallcms.a(firewallconfig.o)
 .rodata.str1.1
                0x0006fcb7     0x1ea2 /home/z00250609/hybrid/5115_GPL/Hybrid_security_baseline/output/host/usr/arm-unknown-linux-uclibcgnueabi/sysroot/lib/libfirewallcms.a(firewallservice.o)
                               0x1f3c (size before relaxing)
 .rodata.str1.1
                0x00071b59       0x3e /home/z00250609/hybrid/5115_GPL/Hybrid_security_baseline/output/host/usr/arm-unknown-linux-uclibcgnueabi/sysroot/lib/libfirewallcms.a(firewalllist.o)
 .rodata.str1.1
                0x00071b97      0x880 /home/z00250609/hybrid/5115_GPL/Hybrid_security_baseline/output/host/usr/arm-unknown-linux-uclibcgnueabi/sysroot/lib/libfirewallcms.a(macflt.o)
                                0x8c5 (size before relaxing)
 .rodata.str1.1
                0x00072417      0x942 /home/z00250609/hybrid/5115_GPL/Hybrid_security_baseline/output/host/usr/arm-unknown-linux-uclibcgnueabi/sysroot/lib/libfirewallcms.a(urlflt.o)
                                0x951 (size before relaxing)
 *fill*         0x00072d59        0x3 00
 .rodata        0x00072d5c       0x30 /home/z00250609/hybrid/5115_GPL/Hybrid_security_baseline/output/host/usr/arm-unknown-linux-uclibcgnueabi/sysroot/lib/libfirewallcms.a(ipflt.o)
 .rodata.str1.1
                0x00072d8c      0x508 /home/z00250609/hybrid/5115_GPL/Hybrid_security_baseline/output/host/usr/arm-unknown-linux-uclibcgnueabi/sysroot/lib/libfirewallcms.a(ipflt.o)
                                0x56b (size before relaxing)
 .rodata.str1.1
                0x00073294      0x66f /home/z00250609/hybrid/5115_GPL/Hybrid_security_baseline/output/host/usr/arm-unknown-linux-uclibcgnueabi/sysroot/lib/libfirewallcms.a(appflt.o)
                                0x68e (size before relaxing)
 .rodata.str1.1
                0x00073903      0x474 /home/z00250609/hybrid/5115_GPL/Hybrid_security_baseline/output/host/usr/arm-unknown-linux-uclibcgnueabi/sysroot/lib/libfirewallcms.a(dosattack.o)
 .rodata.str1.1
                0x00073d77      0xa9f /home/z00250609/hybrid/5115_GPL/Hybrid_security_baseline/output/host/usr/arm-unknown-linux-uclibcgnueabi/sysroot/lib/libfirewallcms.a(acl.o)
                                0xb06 (size before relaxing)
 .rodata.str1.1
                0x00000000        0x3 /home/z00250609/hybrid/5115_GPL/Hybrid_security_baseline/output/host/usr/arm-unknown-linux-uclibcgnueabi/sysroot/lib/libfirewallcms.a(aclex.o)
 .rodata.str1.1
                0x00000000        0x8 /home/z00250609/hybrid/5115_GPL/Hybrid_security_baseline/output/host/usr/arm-unknown-linux-uclibcgnueabi/sysroot/lib/libipcheckcms.a(ipcheckcms.o)
 .rodata.str1.1
                0x00000000        0x8 /home/z00250609/hybrid/5115_GPL/Hybrid_security_baseline/output/host/usr/arm-unknown-linux-uclibcgnueabi/sysroot/lib/libipcheckcms.a(ipcheckcmsinit.o)
 *fill*         0x00074816        0x2 00
 .rodata        0x00074818       0x18 /home/z00250609/hybrid/5115_GPL/Hybrid_security_baseline/output/host/usr/arm-unknown-linux-uclibcgnueabi/sysroot/lib/libipcheckcms.a(ipcheckcmsmsgproc.o)
 .rodata.str1.1
                0x00074830       0x30 /home/z00250609/hybrid/5115_GPL/Hybrid_security_baseline/output/host/usr/arm-unknown-linux-uclibcgnueabi/sysroot/lib/libipcheckcms.a(ipcheckcmsmsgproc.o)
                                 0x38 (size before relaxing)
 .rodata        0x00074860       0x30 /home/z00250609/hybrid/5115_GPL/Hybrid_security_baseline/output/host/usr/arm-unknown-linux-uclibcgnueabi/sysroot/lib/libiptunnelcms.a(iptunnelcmsinit.o)
 .rodata.str1.1
                0x00074890       0x60 /home/z00250609/hybrid/5115_GPL/Hybrid_security_baseline/output/host/usr/arm-unknown-linux-uclibcgnueabi/sysroot/lib/libiptunnelcms.a(iptunnelcmsinit.o)
                                 0x64 (size before relaxing)
 .rodata.str1.1
                0x00000000       0x60 /home/z00250609/hybrid/5115_GPL/Hybrid_security_baseline/output/host/usr/arm-unknown-linux-uclibcgnueabi/sysroot/lib/libiptunnelcms.a(iptunnelcmsapi.o)
                                 0x16 (size before relaxing)
 .rodata        0x000748f0       0x18 /home/z00250609/hybrid/5115_GPL/Hybrid_security_baseline/output/host/usr/arm-unknown-linux-uclibcgnueabi/sysroot/lib/libiptunnelcms.a(iptunnelcms.o)
 .rodata.str1.1
                0x00074908       0xca /home/z00250609/hybrid/5115_GPL/Hybrid_security_baseline/output/host/usr/arm-unknown-linux-uclibcgnueabi/sysroot/lib/libiptunnelcms.a(iptunnelcms.o)
                                0x108 (size before relaxing)
 .rodata.str1.1
                0x000749d2      0x23c /home/z00250609/hybrid/5115_GPL/Hybrid_security_baseline/output/host/usr/arm-unknown-linux-uclibcgnueabi/sysroot/lib/libiptunnelcms.a(tunnel6rd.o)
                                0x293 (size before relaxing)
 .rodata.str1.1
                0x00074c0e      0x130 /home/z00250609/hybrid/5115_GPL/Hybrid_security_baseline/output/host/usr/arm-unknown-linux-uclibcgnueabi/sysroot/lib/libiptunnelcms.a(tunneldslite.o)
                                0x1a5 (size before relaxing)
 .rodata.str1.1
                0x00074d3e        0xa /home/z00250609/hybrid/5115_GPL/Hybrid_security_baseline/output/host/usr/arm-unknown-linux-uclibcgnueabi/sysroot/lib/liblannamecms.a(lannamecms.o)
                                 0x18 (size before relaxing)
 .rodata        0x00074d48       0x10 /home/z00250609/hybrid/5115_GPL/Hybrid_security_baseline/output/host/usr/arm-unknown-linux-uclibcgnueabi/sysroot/lib/liblannamecms.a(lannamecmsmsgproc.o)
 .rodata.str1.1
                0x00074d58       0x32 /home/z00250609/hybrid/5115_GPL/Hybrid_security_baseline/output/host/usr/arm-unknown-linux-uclibcgnueabi/sysroot/lib/liblannamecms.a(lannamecmsmsgproc.o)
 .rodata.str1.1
                0x00074d8a       0xf8 /home/z00250609/hybrid/5115_GPL/Hybrid_security_baseline/output/host/usr/arm-unknown-linux-uclibcgnueabi/sysroot/lib/libmldcms.a(mldcms.o)
                                0x101 (size before relaxing)
 *fill*         0x00074e82        0x2 00
 .rodata        0x00074e84        0x8 /home/z00250609/hybrid/5115_GPL/Hybrid_security_baseline/output/host/usr/arm-unknown-linux-uclibcgnueabi/sysroot/lib/libmldcms.a(mldcmsmsgproc.o)
 .rodata.str1.1
                0x00074e8c       0x28 /home/z00250609/hybrid/5115_GPL/Hybrid_security_baseline/output/host/usr/arm-unknown-linux-uclibcgnueabi/sysroot/lib/libmldcms.a(mldcmsmsgproc.o)
 .rodata        0x00074eb4       0x50 /home/z00250609/hybrid/5115_GPL/Hybrid_security_baseline/output/host/usr/arm-unknown-linux-uclibcgnueabi/sysroot/lib/libnatcms.a(natcmsmsgproc.o)
 .rodata.str1.1
                0x00074f04      0x50f /home/z00250609/hybrid/5115_GPL/Hybrid_security_baseline/output/host/usr/arm-unknown-linux-uclibcgnueabi/sysroot/lib/libnatcms.a(natcmsmsgproc.o)
                                0x580 (size before relaxing)
 .rodata.str1.1
                0x00075413      0x4c6 /home/z00250609/hybrid/5115_GPL/Hybrid_security_baseline/output/host/usr/arm-unknown-linux-uclibcgnueabi/sysroot/lib/libnatcms.a(natcms.o)
                                0x4f8 (size before relaxing)
 *fill*         0x000758d9        0x3 00
 .rodata        0x000758dc       0x38 /home/z00250609/hybrid/5115_GPL/Hybrid_security_baseline/output/host/usr/arm-unknown-linux-uclibcgnueabi/sysroot/lib/libnatcms.a(natutil.o)
 .rodata.str1.1
                0x00075914       0x9b /home/z00250609/hybrid/5115_GPL/Hybrid_security_baseline/output/host/usr/arm-unknown-linux-uclibcgnueabi/sysroot/lib/libnatcms.a(natutil.o)
                                 0xa0 (size before relaxing)
 .rodata.str1.1
                0x000759af      0x110 /home/z00250609/hybrid/5115_GPL/Hybrid_security_baseline/output/host/usr/arm-unknown-linux-uclibcgnueabi/sysroot/lib/libnatcms.a(natdmz.o)
                                0x114 (size before relaxing)
 *fill*         0x00075abf        0x1 00
 .rodata        0x00075ac0        0xc /home/z00250609/hybrid/5115_GPL/Hybrid_security_baseline/output/host/usr/arm-unknown-linux-uclibcgnueabi/sysroot/lib/libnatcms.a(natportmap.o)
 .rodata.str1.1
                0x00075acc      0x375 /home/z00250609/hybrid/5115_GPL/Hybrid_security_baseline/output/host/usr/arm-unknown-linux-uclibcgnueabi/sysroot/lib/libnatcms.a(natportmap.o)
                                0x391 (size before relaxing)
 *fill*         0x00075e41        0x3 00
 .rodata        0x00075e44       0x34 /home/z00250609/hybrid/5115_GPL/Hybrid_security_baseline/output/host/usr/arm-unknown-linux-uclibcgnueabi/sysroot/lib/libnatcms.a(prttrgutil.o)
 .rodata.str1.1
                0x00075e78      0x2c9 /home/z00250609/hybrid/5115_GPL/Hybrid_security_baseline/output/host/usr/arm-unknown-linux-uclibcgnueabi/sysroot/lib/libnatcms.a(prttrgutil.o)
                                0x2e5 (size before relaxing)
 .rodata.str1.1
                0x00076141       0x96 /home/z00250609/hybrid/5115_GPL/Hybrid_security_baseline/output/host/usr/arm-unknown-linux-uclibcgnueabi/sysroot/lib/libnatcms.a(natconenat.o)
 .rodata.str1.1
                0x000761d7      0x7c3 /home/z00250609/hybrid/5115_GPL/Hybrid_security_baseline/output/host/usr/arm-unknown-linux-uclibcgnueabi/sysroot/lib/libndiscms.a(wdsapi.o)
                                0x7f1 (size before relaxing)
 .rodata.str1.1
                0x0007699a      0x114 /home/z00250609/hybrid/5115_GPL/Hybrid_security_baseline/output/host/usr/arm-unknown-linux-uclibcgnueabi/sysroot/lib/libpppccms.a(pppcapi.o)
                                0x438 (size before relaxing)
 *fill*         0x00076aae        0x2 00
 .rodata        0x00076ab0       0x58 /home/z00250609/hybrid/5115_GPL/Hybrid_security_baseline/output/host/usr/arm-unknown-linux-uclibcgnueabi/sysroot/lib/libradvdcms.a(radvdcms.o)
 .rodata.str1.1
                0x00076b08      0xdf7 /home/z00250609/hybrid/5115_GPL/Hybrid_security_baseline/output/host/usr/arm-unknown-linux-uclibcgnueabi/sysroot/lib/libradvdcms.a(radvdcms.o)
                               0x1081 (size before relaxing)
 .rodata.str1.1
                0x000778ff       0x47 /home/z00250609/hybrid/5115_GPL/Hybrid_security_baseline/output/host/usr/arm-unknown-linux-uclibcgnueabi/sysroot/lib/libradvdcms.a(radvdcmsinit.o)
                                 0x60 (size before relaxing)
 *fill*         0x00077946        0x2 00
 .rodata        0x00077948       0x10 /home/z00250609/hybrid/5115_GPL/Hybrid_security_baseline/output/host/usr/arm-unknown-linux-uclibcgnueabi/sysroot/lib/libradvdcms.a(radvdcmsmsgproc.o)
 .rodata.str1.1
                0x00077958      0x183 /home/z00250609/hybrid/5115_GPL/Hybrid_security_baseline/output/host/usr/arm-unknown-linux-uclibcgnueabi/sysroot/lib/libradvdcms.a(radvdcmsmsgproc.o)
                                0x283 (size before relaxing)
 .rodata.str1.1
                0x00077adb       0x48 /home/z00250609/hybrid/5115_GPL/Hybrid_security_baseline/output/host/usr/arm-unknown-linux-uclibcgnueabi/sysroot/lib/libradvdcms.a(radvdcmsapi.o)
                                 0xe3 (size before relaxing)
 .rodata.str1.1
                0x00077b23      0x7c4 /home/z00250609/hybrid/5115_GPL/Hybrid_security_baseline/output/host/usr/arm-unknown-linux-uclibcgnueabi/sysroot/lib/libroute6cms.a(route6cms.o)
                                0x897 (size before relaxing)
 *fill*         0x000782e7        0x1 00
 .rodata        0x000782e8       0x18 /home/z00250609/hybrid/5115_GPL/Hybrid_security_baseline/output/host/usr/arm-unknown-linux-uclibcgnueabi/sysroot/lib/libroute6cms.a(route6cmsmsgproc.o)
 .rodata.str1.1
                0x00078300       0x39 /home/z00250609/hybrid/5115_GPL/Hybrid_security_baseline/output/host/usr/arm-unknown-linux-uclibcgnueabi/sysroot/lib/libroute6cms.a(route6cmsmsgproc.o)
 .rodata.str1.1
                0x00078339      0x28a /home/z00250609/hybrid/5115_GPL/Hybrid_security_baseline/output/host/usr/arm-unknown-linux-uclibcgnueabi/sysroot/lib/libroute6cms.a(route6cmsapi.o)
                                0x38e (size before relaxing)
 *fill*         0x000785c3        0x1 00
 .rodata        0x000785c4       0x38 /home/z00250609/hybrid/5115_GPL/Hybrid_security_baseline/output/host/usr/arm-unknown-linux-uclibcgnueabi/sysroot/lib/libroutecms.a(routecmsmsgproc.o)
 .rodata.str1.1
                0x000785fc      0x10c /home/z00250609/hybrid/5115_GPL/Hybrid_security_baseline/output/host/usr/arm-unknown-linux-uclibcgnueabi/sysroot/lib/libroutecms.a(routecmsmsgproc.o)
                                0x141 (size before relaxing)
 .rodata.str1.1
                0x00000000        0x8 /home/z00250609/hybrid/5115_GPL/Hybrid_security_baseline/output/host/usr/arm-unknown-linux-uclibcgnueabi/sysroot/lib/libroutecms.a(routecmsinit.o)
 .rodata.str1.1
                0x00078708       0x6d /home/z00250609/hybrid/5115_GPL/Hybrid_security_baseline/output/host/usr/arm-unknown-linux-uclibcgnueabi/sysroot/lib/libroutecms.a(routecms.o)
                                 0xbf (size before relaxing)
 .rodata.str1.1
                0x00078775      0x516 /home/z00250609/hybrid/5115_GPL/Hybrid_security_baseline/output/host/usr/arm-unknown-linux-uclibcgnueabi/sysroot/lib/libroutecms.a(routedft.o)
                                0x59a (size before relaxing)
 .rodata.str1.1
                0x00078c8b      0x11d /home/z00250609/hybrid/5115_GPL/Hybrid_security_baseline/output/host/usr/arm-unknown-linux-uclibcgnueabi/sysroot/lib/libroutecms.a(routestatic.o)
                                0x232 (size before relaxing)
 .rodata.str1.1
                0x00078da8       0x1e /home/z00250609/hybrid/5115_GPL/Hybrid_security_baseline/output/host/usr/arm-unknown-linux-uclibcgnueabi/sysroot/lib/libroutecms.a(routelist.o)
                                 0x2a (size before relaxing)
 .rodata.str1.1
                0x00078dc6      0x329 /home/z00250609/hybrid/5115_GPL/Hybrid_security_baseline/output/host/usr/arm-unknown-linux-uclibcgnueabi/sysroot/lib/libroutecms.a(rip.o)
                                0x3f7 (size before relaxing)
 *fill*         0x000790ef        0x1 00
 .rodata        0x000790f0       0x20 /home/z00250609/hybrid/5115_GPL/Hybrid_security_baseline/output/host/usr/arm-unknown-linux-uclibcgnueabi/sysroot/lib/libsntpcms.a(sntpcms.o)
 .rodata.str1.1
                0x00079110      0x217 /home/z00250609/hybrid/5115_GPL/Hybrid_security_baseline/output/host/usr/arm-unknown-linux-uclibcgnueabi/sysroot/lib/libsntpcms.a(sntpcms.o)
                                0x237 (size before relaxing)
 *fill*         0x00079327        0x1 00
 .rodata        0x00079328       0x9c /home/z00250609/hybrid/5115_GPL/Hybrid_security_baseline/output/host/usr/arm-unknown-linux-uclibcgnueabi/sysroot/lib/libsntpcms.a(sntpcmsposixtime.o)
 .rodata        0x000793c4      0x144 /home/z00250609/hybrid/5115_GPL/Hybrid_security_baseline/output/host/usr/arm-unknown-linux-uclibcgnueabi/sysroot/lib/libsntpcms.a(sntpcmsmsgproc.o)
 .rodata.str1.1
                0x00079508      0x164 /home/z00250609/hybrid/5115_GPL/Hybrid_security_baseline/output/host/usr/arm-unknown-linux-uclibcgnueabi/sysroot/lib/libsntpcms.a(sntpcmsmsgproc.o)
                                0x168 (size before relaxing)
 .rodata        0x0007966c       0xa0 /home/z00250609/hybrid/5115_GPL/Hybrid_security_baseline/output/host/usr/arm-unknown-linux-uclibcgnueabi/sysroot/lib/libwancms.a(wancmsmsgproc.o)
 .rodata.str1.1
                0x0007970c      0x3c1 /home/z00250609/hybrid/5115_GPL/Hybrid_security_baseline/output/host/usr/arm-unknown-linux-uclibcgnueabi/sysroot/lib/libwancms.a(wancmsmsgproc.o)
                                0x48b (size before relaxing)
 .rodata.str1.1
                0x00079acd      0x47b /home/z00250609/hybrid/5115_GPL/Hybrid_security_baseline/output/host/usr/arm-unknown-linux-uclibcgnueabi/sysroot/lib/libwancms.a(wancmsinit.o)
                                0x4f0 (size before relaxing)
 .rodata.str1.1
                0x00079f48      0xb54 /home/z00250609/hybrid/5115_GPL/Hybrid_security_baseline/output/host/usr/arm-unknown-linux-uclibcgnueabi/sysroot/lib/libwancms.a(wancms.o)
                                0xec2 (size before relaxing)
 .rodata.str1.1
                0x0007aa9c       0x30 /home/z00250609/hybrid/5115_GPL/Hybrid_security_baseline/output/host/usr/arm-unknown-linux-uclibcgnueabi/sysroot/lib/libwancms.a(wancmsutil.o)
                                0x454 (size before relaxing)
 .rodata.str1.1
                0x0007aacc       0xb5 /home/z00250609/hybrid/5115_GPL/Hybrid_security_baseline/output/host/usr/arm-unknown-linux-uclibcgnueabi/sysroot/lib/libwancms.a(wancmshookproc.o)
                                 0xe4 (size before relaxing)
 .rodata.str1.1
                0x00000000        0x3 /home/z00250609/hybrid/5115_GPL/Hybrid_security_baseline/output/host/usr/arm-unknown-linux-uclibcgnueabi/sysroot/lib/libwancms.a(wancmsget.o)
 .rodata.str1.1
                0x0007ab81       0x40 /home/z00250609/hybrid/5115_GPL/Hybrid_security_baseline/output/host/usr/arm-unknown-linux-uclibcgnueabi/sysroot/lib/libwanumtscms.a(wucmsinit.o)
                                 0x4d (size before relaxing)
 *fill*         0x0007abc1        0x3 00
 .rodata        0x0007abc4      0x278 /home/z00250609/hybrid/5115_GPL/Hybrid_security_baseline/output/host/usr/arm-unknown-linux-uclibcgnueabi/sysroot/lib/libwanumtscms.a(wucmsmsgproc.o)
                0x0007ac04                g_astSyscfgModeStrArray
                0x0007ac2c                g_astSyscfgOrderStrArray
                0x0007ac54                g_astSyscfgRoamStrArray
                0x0007ac74                g_astSyscfgDomainStrArray
                0x0007aca4                g_astSysinfoStatusStrArray
                0x0007acd4                g_astSysinfoDomainStrArray
                0x0007ad0c                g_astSysinfoRoamStrArray
                0x0007ad24                g_astSysinfoModeStrArray
                0x0007ad7c                g_astSysinfoSimStatusStrArray
                0x0007adec                g_astSysinfoSubModeStrArray
 .rodata.str1.1
                0x0007ae3c      0x4a7 /home/z00250609/hybrid/5115_GPL/Hybrid_security_baseline/output/host/usr/arm-unknown-linux-uclibcgnueabi/sysroot/lib/libwanumtscms.a(wucmsmsgproc.o)
                                0x697 (size before relaxing)
 .rodata.str1.1
                0x0007b2e3       0x4c /home/z00250609/hybrid/5115_GPL/Hybrid_security_baseline/output/host/usr/arm-unknown-linux-uclibcgnueabi/sysroot/lib/libwanumtscms.a(wuprofile.o)
                                 0x79 (size before relaxing)
 *fill*         0x0007b32f        0x1 00
 .rodata        0x0007b330       0x18 /home/z00250609/hybrid/5115_GPL/Hybrid_security_baseline/output/host/usr/arm-unknown-linux-uclibcgnueabi/sysroot/lib/libwanvlancms.a(wanvlancmsmsgproc.o)
 .rodata.str1.1
                0x0007b348       0x64 /home/z00250609/hybrid/5115_GPL/Hybrid_security_baseline/output/host/usr/arm-unknown-linux-uclibcgnueabi/sysroot/lib/libwanvlancms.a(wanvlancmsmsgproc.o)
                                 0x68 (size before relaxing)
 .rodata.str1.1
                0x0007b3ac       0x3a /home/z00250609/hybrid/5115_GPL/Hybrid_security_baseline/output/host/usr/arm-unknown-linux-uclibcgnueabi/sysroot/lib/libwanvlancms.a(wanvlancms.o)
                                 0x70 (size before relaxing)

.rodata1
 *(.rodata1)

.ARM.extab
 *(.ARM.extab* .gnu.linkonce.armextab.*)
                0x0007b3e6                PROVIDE (__exidx_start, .)

.ARM.exidx
 *(.ARM.exidx* .gnu.linkonce.armexidx.*)
                0x0007b3e6                PROVIDE (__exidx_end, .)

.eh_frame_hdr   0x0007b3e8        0x0
 *(.eh_frame_hdr)
 .eh_frame_hdr  0x00000000        0x0 /home/z00250609/hybrid/5115_GPL/Hybrid_security_baseline/output/host/usr/arm-unknown-linux-uclibcgnueabi/sysroot/usr/lib/crtn.o

.eh_frame       0x0007b3e8        0x4
 *(.eh_frame)
 .eh_frame      0x0007b3e8        0x4 /opt/toolchain_hisi/arm-hsan-linux-uclibcgnueabi/bin/../lib/gcc/arm-hsan-linux-uclibcgnueabi/4.4.6/crtend.o

.gcc_except_table
 *(.gcc_except_table .gcc_except_table.*)
                0x0007b3ec                . = (ALIGN (0x8000) - ((0x8000 - .) & 0x7fff))
                0x000833ec                . = DATA_SEGMENT_ALIGN (0x8000, 0x1000)

.eh_frame
 *(.eh_frame)

.gcc_except_table
 *(.gcc_except_table .gcc_except_table.*)

.tdata
 *(.tdata .tdata.* .gnu.linkonce.td.*)

.tbss
 *(.tbss .tbss.* .gnu.linkonce.tb.*)
 *(.tcommon)

.preinit_array  0x000833ec        0x0
                0x000833ec                PROVIDE (__preinit_array_start, .)
 *(.preinit_array)
                0x000833ec                PROVIDE (__preinit_array_end, .)

.init_array     0x000833ec       0xb4
                0x000833ec                PROVIDE (__init_array_start, .)
 *(SORT(.init_array.*))
 *(.init_array)
 .init_array    0x000833ec        0x4 /opt/toolchain_hisi/arm-hsan-linux-uclibcgnueabi/bin/../lib/gcc/arm-hsan-linux-uclibcgnueabi/4.4.6/crtbegin.o
 .init_array    0x000833f0        0x4 /home/z00250609/hybrid/5115_GPL/Hybrid_security_baseline/output/package/atp/configuration/cmsmain/management.o
 .init_array    0x000833f4        0x4 /home/z00250609/hybrid/5115_GPL/Hybrid_security_baseline/output/host/usr/arm-unknown-linux-uclibcgnueabi/sysroot/lib/libcmscore.a(cmsmsgproc.o)
 .init_array    0x000833f8        0x4 /home/z00250609/hybrid/5115_GPL/Hybrid_security_baseline/output/host/usr/arm-unknown-linux-uclibcgnueabi/sysroot/lib/libledservicecms.a(ledserviceini.o)
 .init_array    0x000833fc        0x4 /home/z00250609/hybrid/5115_GPL/Hybrid_security_baseline/output/host/usr/arm-unknown-linux-uclibcgnueabi/sysroot/lib/libtr143cms.a(tr143cmsmsgproc.o)
 .init_array    0x00083400        0x4 /home/z00250609/hybrid/5115_GPL/Hybrid_security_baseline/output/host/usr/arm-unknown-linux-uclibcgnueabi/sysroot/lib/libclicms.a(clicmsmsgproc.o)
 .init_array    0x00083404        0x4 /home/z00250609/hybrid/5115_GPL/Hybrid_security_baseline/output/host/usr/arm-unknown-linux-uclibcgnueabi/sysroot/lib/libcwmpcms.a(cwmpcmsmsgproc.o)
 .init_array    0x00083408        0x4 /home/z00250609/hybrid/5115_GPL/Hybrid_security_baseline/output/host/usr/arm-unknown-linux-uclibcgnueabi/sysroot/lib/libippingcms.a(ippingcmsmsgproc.o)
 .init_array    0x0008340c        0x4 /home/z00250609/hybrid/5115_GPL/Hybrid_security_baseline/output/host/usr/arm-unknown-linux-uclibcgnueabi/sysroot/lib/liblogcms.a(logcmsmsgproc.o)
 .init_array    0x00083410        0x4 /home/z00250609/hybrid/5115_GPL/Hybrid_security_baseline/output/host/usr/arm-unknown-linux-uclibcgnueabi/sysroot/lib/libsyscfgcms.a(syscfgcmsmsgproc.o)
 .init_array    0x00083414        0x4 /home/z00250609/hybrid/5115_GPL/Hybrid_security_baseline/output/host/usr/arm-unknown-linux-uclibcgnueabi/sysroot/lib/libsysinfocms.a(sysinfocmsmsgproc.o)
 .init_array    0x00083418        0x4 /home/z00250609/hybrid/5115_GPL/Hybrid_security_baseline/output/host/usr/arm-unknown-linux-uclibcgnueabi/sysroot/lib/libtr111cms.a(tr111cmsmsgproc.o)
 .init_array    0x0008341c        0x4 /home/z00250609/hybrid/5115_GPL/Hybrid_security_baseline/output/host/usr/arm-unknown-linux-uclibcgnueabi/sysroot/lib/libtraceroutecms.a(traceroutecmsmsgproc.o)
 .init_array    0x00083420        0x4 /home/z00250609/hybrid/5115_GPL/Hybrid_security_baseline/output/host/usr/arm-unknown-linux-uclibcgnueabi/sysroot/lib/libupnpcms.a(upnpcms.o)
 .init_array    0x00083424        0x4 /home/z00250609/hybrid/5115_GPL/Hybrid_security_baseline/output/host/usr/arm-unknown-linux-uclibcgnueabi/sysroot/lib/libwebcms.a(webcmsmsgproc.o)
 .init_array    0x00083428        0x4 /home/z00250609/hybrid/5115_GPL/Hybrid_security_baseline/output/host/usr/arm-unknown-linux-uclibcgnueabi/sysroot/lib/libalgcms.a(algapi.o)
 .init_array    0x0008342c        0x4 /home/z00250609/hybrid/5115_GPL/Hybrid_security_baseline/output/host/usr/arm-unknown-linux-uclibcgnueabi/sysroot/lib/libbridgecms.a(bridgecmsmsgproc.o)
 .init_array    0x00083430        0x4 /home/z00250609/hybrid/5115_GPL/Hybrid_security_baseline/output/host/usr/arm-unknown-linux-uclibcgnueabi/sysroot/lib/libipv6commoncms.a(ipv6commoncmsproc.o)
 .init_array    0x00083434        0x4 /home/z00250609/hybrid/5115_GPL/Hybrid_security_baseline/output/host/usr/arm-unknown-linux-uclibcgnueabi/sysroot/lib/libddnscms.a(ddnscmsmsgproc.o)
 .init_array    0x00083438        0x4 /home/z00250609/hybrid/5115_GPL/Hybrid_security_baseline/output/host/usr/arm-unknown-linux-uclibcgnueabi/sysroot/lib/libddnscms.a(ddnscmsapi.o)
 .init_array    0x0008343c        0x4 /home/z00250609/hybrid/5115_GPL/Hybrid_security_baseline/output/host/usr/arm-unknown-linux-uclibcgnueabi/sysroot/lib/libdhcp6ccms.a(dhcp6ccms.o)
 .init_array    0x00083440        0x4 /home/z00250609/hybrid/5115_GPL/Hybrid_security_baseline/output/host/usr/arm-unknown-linux-uclibcgnueabi/sysroot/lib/libdhcp6scms.a(dhcp6scms.o)
 .init_array    0x00083444        0x4 /home/z00250609/hybrid/5115_GPL/Hybrid_security_baseline/output/host/usr/arm-unknown-linux-uclibcgnueabi/sysroot/lib/libdhcp6scms.a(dhcp6scmsmsgproc.o)
 .init_array    0x00083448        0x4 /home/z00250609/hybrid/5115_GPL/Hybrid_security_baseline/output/host/usr/arm-unknown-linux-uclibcgnueabi/sysroot/lib/libdhcpscms.a(dhcpscmsmsgproc.o)
 .init_array    0x0008344c        0x4 /home/z00250609/hybrid/5115_GPL/Hybrid_security_baseline/output/host/usr/arm-unknown-linux-uclibcgnueabi/sysroot/lib/libdnscms.a(dnscmsinit.o)
 .init_array    0x00083450        0x4 /home/z00250609/hybrid/5115_GPL/Hybrid_security_baseline/output/host/usr/arm-unknown-linux-uclibcgnueabi/sysroot/lib/liblanethcms.a(ethapi.o)
 .init_array    0x00083454        0x4 /home/z00250609/hybrid/5115_GPL/Hybrid_security_baseline/output/host/usr/arm-unknown-linux-uclibcgnueabi/sysroot/lib/libwanethcms.a(wecmsmsgproc.o)
 .init_array    0x00083458        0x4 /home/z00250609/hybrid/5115_GPL/Hybrid_security_baseline/output/host/usr/arm-unknown-linux-uclibcgnueabi/sysroot/lib/libfirewallcms.a(firewallcmsmsgproc.o)
 .init_array    0x0008345c        0x4 /home/z00250609/hybrid/5115_GPL/Hybrid_security_baseline/output/host/usr/arm-unknown-linux-uclibcgnueabi/sysroot/lib/libipcheckcms.a(ipcheckcmsmsgproc.o)
 .init_array    0x00083460        0x4 /home/z00250609/hybrid/5115_GPL/Hybrid_security_baseline/output/host/usr/arm-unknown-linux-uclibcgnueabi/sysroot/lib/libiptunnelcms.a(iptunnelcmsinit.o)
 .init_array    0x00083464        0x4 /home/z00250609/hybrid/5115_GPL/Hybrid_security_baseline/output/host/usr/arm-unknown-linux-uclibcgnueabi/sysroot/lib/liblannamecms.a(lannamecmsmsgproc.o)
 .init_array    0x00083468        0x4 /home/z00250609/hybrid/5115_GPL/Hybrid_security_baseline/output/host/usr/arm-unknown-linux-uclibcgnueabi/sysroot/lib/libmldcms.a(mldcmsmsgproc.o)
 .init_array    0x0008346c        0x4 /home/z00250609/hybrid/5115_GPL/Hybrid_security_baseline/output/host/usr/arm-unknown-linux-uclibcgnueabi/sysroot/lib/libnatcms.a(natcmsmsgproc.o)
 .init_array    0x00083470        0x4 /home/z00250609/hybrid/5115_GPL/Hybrid_security_baseline/output/host/usr/arm-unknown-linux-uclibcgnueabi/sysroot/lib/libradvdcms.a(radvdcms.o)
 .init_array    0x00083474        0x4 /home/z00250609/hybrid/5115_GPL/Hybrid_security_baseline/output/host/usr/arm-unknown-linux-uclibcgnueabi/sysroot/lib/libradvdcms.a(radvdcmsmsgproc.o)
 .init_array    0x00083478        0x4 /home/z00250609/hybrid/5115_GPL/Hybrid_security_baseline/output/host/usr/arm-unknown-linux-uclibcgnueabi/sysroot/lib/libroute6cms.a(route6cmsinit.o)
 .init_array    0x0008347c        0x4 /home/z00250609/hybrid/5115_GPL/Hybrid_security_baseline/output/host/usr/arm-unknown-linux-uclibcgnueabi/sysroot/lib/libroute6cms.a(route6cmsmsgproc.o)
 .init_array    0x00083480        0x4 /home/z00250609/hybrid/5115_GPL/Hybrid_security_baseline/output/host/usr/arm-unknown-linux-uclibcgnueabi/sysroot/lib/libroute6cms.a(route6cmsapi.o)
 .init_array    0x00083484        0x4 /home/z00250609/hybrid/5115_GPL/Hybrid_security_baseline/output/host/usr/arm-unknown-linux-uclibcgnueabi/sysroot/lib/libroutecms.a(routecmsmsgproc.o)
 .init_array    0x00083488        0x4 /home/z00250609/hybrid/5115_GPL/Hybrid_security_baseline/output/host/usr/arm-unknown-linux-uclibcgnueabi/sysroot/lib/libroutecms.a(routecms.o)
 .init_array    0x0008348c        0x4 /home/z00250609/hybrid/5115_GPL/Hybrid_security_baseline/output/host/usr/arm-unknown-linux-uclibcgnueabi/sysroot/lib/libsntpcms.a(sntpcms.o)
 .init_array    0x00083490        0x4 /home/z00250609/hybrid/5115_GPL/Hybrid_security_baseline/output/host/usr/arm-unknown-linux-uclibcgnueabi/sysroot/lib/libsntpcms.a(sntpcmsmsgproc.o)
 .init_array    0x00083494        0x4 /home/z00250609/hybrid/5115_GPL/Hybrid_security_baseline/output/host/usr/arm-unknown-linux-uclibcgnueabi/sysroot/lib/libwancms.a(wancmsmsgproc.o)
 .init_array    0x00083498        0x4 /home/z00250609/hybrid/5115_GPL/Hybrid_security_baseline/output/host/usr/arm-unknown-linux-uclibcgnueabi/sysroot/lib/libwanumtscms.a(wucmsmsgproc.o)
 .init_array    0x0008349c        0x4 /home/z00250609/hybrid/5115_GPL/Hybrid_security_baseline/output/host/usr/arm-unknown-linux-uclibcgnueabi/sysroot/lib/libwanvlancms.a(wanvlancmsmsgproc.o)
                0x000834a0                PROVIDE (__init_array_end, .)

.fini_array     0x000834a0        0x4
                0x000834a0                PROVIDE (__fini_array_start, .)
 *(SORT(.fini_array.*))
 *(.fini_array)
 .fini_array    0x000834a0        0x4 /opt/toolchain_hisi/arm-hsan-linux-uclibcgnueabi/bin/../lib/gcc/arm-hsan-linux-uclibcgnueabi/4.4.6/crtbegin.o
                0x000834a4                PROVIDE (__fini_array_end, .)

.ctors
 *crtbegin.o(.ctors)
 *crtbegin?.o(.ctors)
 *(EXCLUDE_FILE(*crtend?.o *crtend.o) .ctors)
 *(SORT(.ctors.*))
 *(.ctors)

.dtors
 *crtbegin.o(.dtors)
 *crtbegin?.o(.dtors)
 *(EXCLUDE_FILE(*crtend?.o *crtend.o) .dtors)
 *(SORT(.dtors.*))
 *(.dtors)

.jcr            0x000834a4        0x4
 *(.jcr)
 .jcr           0x000834a4        0x0 /opt/toolchain_hisi/arm-hsan-linux-uclibcgnueabi/bin/../lib/gcc/arm-hsan-linux-uclibcgnueabi/4.4.6/crtbegin.o
 .jcr           0x000834a4        0x4 /opt/toolchain_hisi/arm-hsan-linux-uclibcgnueabi/bin/../lib/gcc/arm-hsan-linux-uclibcgnueabi/4.4.6/crtend.o

.data.rel.ro
 *(.data.rel.ro.local* .gnu.linkonce.d.rel.ro.local.*)
 *(.data.rel.ro* .gnu.linkonce.d.rel.ro.*)

.dynamic        0x000834a8      0x120
 *(.dynamic)
 .dynamic       0x000834a8      0x120 /home/z00250609/hybrid/5115_GPL/Hybrid_security_baseline/output/host/usr/arm-unknown-linux-uclibcgnueabi/sysroot/lib/libhttpapi.so
                0x000834a8                _DYNAMIC
                0x000835c8                . = DATA_SEGMENT_RELRO_END (., 0x0)

.got            0x000835c8      0x3bc
 *(.got.plt)
 .got.plt       0x000835c8      0x3bc /home/z00250609/hybrid/5115_GPL/Hybrid_security_baseline/output/host/usr/arm-unknown-linux-uclibcgnueabi/sysroot/lib/libhttpapi.so
                0x000835c8                _GLOBAL_OFFSET_TABLE_
 *(.igot.plt)
 *(.got)
 .got           0x00000000        0x0 /home/z00250609/hybrid/5115_GPL/Hybrid_security_baseline/output/host/usr/arm-unknown-linux-uclibcgnueabi/sysroot/lib/libhttpapi.so
 *(.igot)

.data           0x00083984      0xeb0
                0x00083984                PROVIDE (__data_start, .)
 *(.data .data.* .gnu.linkonce.d.*)
 .data          0x00083984        0x4 /home/z00250609/hybrid/5115_GPL/Hybrid_security_baseline/output/host/usr/arm-unknown-linux-uclibcgnueabi/sysroot/usr/lib/crt1.o
                0x00083984                data_start
                0x00083984                __data_start
 .data          0x00083988        0x0 /home/z00250609/hybrid/5115_GPL/Hybrid_security_baseline/output/host/usr/arm-unknown-linux-uclibcgnueabi/sysroot/usr/lib/crti.o
 .data          0x00083988        0x4 /opt/toolchain_hisi/arm-hsan-linux-uclibcgnueabi/bin/../lib/gcc/arm-hsan-linux-uclibcgnueabi/4.4.6/crtbegin.o
                0x00083988                __dso_handle
 .data          0x0008398c        0x0 /home/z00250609/hybrid/5115_GPL/Hybrid_security_baseline/output/package/atp/configuration/cmsmain/management.o
 .data          0x0008398c        0x0 /home/z00250609/hybrid/5115_GPL/Hybrid_security_baseline/output/package/atp/configuration/cmsmain/cmsmonitor.o
 .data          0x0008398c        0x0 /home/z00250609/hybrid/5115_GPL/Hybrid_security_baseline/output/package/atp/configuration/cmsmain/cmsinit.o
 .data          0x0008398c        0x4 /home/z00250609/hybrid/5115_GPL/Hybrid_security_baseline/output/host/usr/arm-unknown-linux-uclibcgnueabi/sysroot/lib/libcmscore.a(cmsmsgproc.o)
                0x0008398c                g_enCfgTool
 .data          0x00083990      0x408 /home/z00250609/hybrid/5115_GPL/Hybrid_security_baseline/output/host/usr/arm-unknown-linux-uclibcgnueabi/sysroot/lib/libcmscore.a(cmsutil.o)
 .data          0x00083d98        0x0 /home/z00250609/hybrid/5115_GPL/Hybrid_security_baseline/output/host/usr/arm-unknown-linux-uclibcgnueabi/sysroot/lib/libcmscore.a(cmsinitapi.o)
 .data          0x00083d98        0x0 /home/z00250609/hybrid/5115_GPL/Hybrid_security_baseline/output/host/usr/arm-unknown-linux-uclibcgnueabi/sysroot/lib/libcmscore.a(cmssigqueue.o)
 .data          0x00083d98        0x0 /home/z00250609/hybrid/5115_GPL/Hybrid_security_baseline/output/host/usr/arm-unknown-linux-uclibcgnueabi/sysroot/lib/libledservicecms.a(ledserviceini.o)
 .data          0x00083d98        0x0 /home/z00250609/hybrid/5115_GPL/Hybrid_security_baseline/output/host/usr/arm-unknown-linux-uclibcgnueabi/sysroot/lib/libtr143cms.a(tr143cmsmsgproc.o)
 .data          0x00083d98        0x0 /home/z00250609/hybrid/5115_GPL/Hybrid_security_baseline/output/host/usr/arm-unknown-linux-uclibcgnueabi/sysroot/lib/libclicms.a(clicmsmsgproc.o)
 .data          0x00083d98        0x0 /home/z00250609/hybrid/5115_GPL/Hybrid_security_baseline/output/host/usr/arm-unknown-linux-uclibcgnueabi/sysroot/lib/libcwmpcms.a(cwmpcmsmsgproc.o)
 .data          0x00083d98        0x0 /home/z00250609/hybrid/5115_GPL/Hybrid_security_baseline/output/host/usr/arm-unknown-linux-uclibcgnueabi/sysroot/lib/libcwmpcms.a(cwmpcms.o)
 .data          0x00083d98        0x0 /home/z00250609/hybrid/5115_GPL/Hybrid_security_baseline/output/host/usr/arm-unknown-linux-uclibcgnueabi/sysroot/lib/libippingcms.a(ippingcmsmsgproc.o)
 .data          0x00083d98        0x0 /home/z00250609/hybrid/5115_GPL/Hybrid_security_baseline/output/host/usr/arm-unknown-linux-uclibcgnueabi/sysroot/lib/liblogcms.a(logcms.o)
 .data          0x00083d98        0x0 /home/z00250609/hybrid/5115_GPL/Hybrid_security_baseline/output/host/usr/arm-unknown-linux-uclibcgnueabi/sysroot/lib/liblogcms.a(logcmsinit.o)
 .data          0x00083d98        0x0 /home/z00250609/hybrid/5115_GPL/Hybrid_security_baseline/output/host/usr/arm-unknown-linux-uclibcgnueabi/sysroot/lib/liblogcms.a(logcmsmsgproc.o)
 .data          0x00083d98        0x0 /home/z00250609/hybrid/5115_GPL/Hybrid_security_baseline/output/host/usr/arm-unknown-linux-uclibcgnueabi/sysroot/lib/libportmntcms.a(portmntcms.o)
 .data          0x00083d98        0x0 /home/z00250609/hybrid/5115_GPL/Hybrid_security_baseline/output/host/usr/arm-unknown-linux-uclibcgnueabi/sysroot/lib/libsyscfgcms.a(syscfginit.o)
 .data          0x00083d98        0x0 /home/z00250609/hybrid/5115_GPL/Hybrid_security_baseline/output/host/usr/arm-unknown-linux-uclibcgnueabi/sysroot/lib/libsyscfgcms.a(syscfgcmsmsgproc.o)
 .data          0x00083d98        0x0 /home/z00250609/hybrid/5115_GPL/Hybrid_security_baseline/output/host/usr/arm-unknown-linux-uclibcgnueabi/sysroot/lib/libsyscfgcms.a(syscfgcms.o)
 .data          0x00083d98        0x0 /home/z00250609/hybrid/5115_GPL/Hybrid_security_baseline/output/host/usr/arm-unknown-linux-uclibcgnueabi/sysroot/lib/libsysinfocms.a(sysinfoinit.o)
 .data          0x00083d98        0x0 /home/z00250609/hybrid/5115_GPL/Hybrid_security_baseline/output/host/usr/arm-unknown-linux-uclibcgnueabi/sysroot/lib/libsysinfocms.a(sysinfocmsmsgproc.o)
 .data          0x00083d98        0x0 /home/z00250609/hybrid/5115_GPL/Hybrid_security_baseline/output/host/usr/arm-unknown-linux-uclibcgnueabi/sysroot/lib/libsysinfocms.a(sysinfocms.o)
 .data          0x00083d98        0x0 /home/z00250609/hybrid/5115_GPL/Hybrid_security_baseline/output/host/usr/arm-unknown-linux-uclibcgnueabi/sysroot/lib/libtr111cms.a(tr111cmsmsgproc.o)
 .data          0x00083d98        0x0 /home/z00250609/hybrid/5115_GPL/Hybrid_security_baseline/output/host/usr/arm-unknown-linux-uclibcgnueabi/sysroot/lib/libtr111cms.a(tr111cms.o)
 .data          0x00083d98        0x0 /home/z00250609/hybrid/5115_GPL/Hybrid_security_baseline/output/host/usr/arm-unknown-linux-uclibcgnueabi/sysroot/lib/libtraceroutecms.a(traceroutecmsmsgproc.o)
 .data          0x00083d98        0x0 /home/z00250609/hybrid/5115_GPL/Hybrid_security_baseline/output/host/usr/arm-unknown-linux-uclibcgnueabi/sysroot/lib/libupnpcms.a(upnpcms.o)
 .data          0x00083d98        0x0 /home/z00250609/hybrid/5115_GPL/Hybrid_security_baseline/output/host/usr/arm-unknown-linux-uclibcgnueabi/sysroot/lib/libwebcms.a(webcmsmsgproc.o)
 .data          0x00083d98        0x0 /home/z00250609/hybrid/5115_GPL/Hybrid_security_baseline/output/host/usr/arm-unknown-linux-uclibcgnueabi/sysroot/lib/libalgcms.a(algapi.o)
 .data          0x00083d98        0x0 /home/z00250609/hybrid/5115_GPL/Hybrid_security_baseline/output/host/usr/arm-unknown-linux-uclibcgnueabi/sysroot/lib/libbridgecms.a(bridgecms.o)
 .data          0x00083d98        0x0 /home/z00250609/hybrid/5115_GPL/Hybrid_security_baseline/output/host/usr/arm-unknown-linux-uclibcgnueabi/sysroot/lib/libbridgecms.a(bridgecmsinit.o)
 .data          0x00083d98        0x0 /home/z00250609/hybrid/5115_GPL/Hybrid_security_baseline/output/host/usr/arm-unknown-linux-uclibcgnueabi/sysroot/lib/libbridgecms.a(bridgecmsmsgproc.o)
 .data          0x00083d98        0x0 /home/z00250609/hybrid/5115_GPL/Hybrid_security_baseline/output/host/usr/arm-unknown-linux-uclibcgnueabi/sysroot/lib/libipv6commoncms.a(ipv6commoncms.o)
 .data          0x00083d98        0x0 /home/z00250609/hybrid/5115_GPL/Hybrid_security_baseline/output/host/usr/arm-unknown-linux-uclibcgnueabi/sysroot/lib/libipv6commoncms.a(ipv6commoncmsproc.o)
 .data          0x00083d98        0x0 /home/z00250609/hybrid/5115_GPL/Hybrid_security_baseline/output/host/usr/arm-unknown-linux-uclibcgnueabi/sysroot/lib/libddnscms.a(ddnscms.o)
 .data          0x00083d98        0x0 /home/z00250609/hybrid/5115_GPL/Hybrid_security_baseline/output/host/usr/arm-unknown-linux-uclibcgnueabi/sysroot/lib/libddnscms.a(ddnscmsinit.o)
 .data          0x00083d98        0x0 /home/z00250609/hybrid/5115_GPL/Hybrid_security_baseline/output/host/usr/arm-unknown-linux-uclibcgnueabi/sysroot/lib/libddnscms.a(ddnscmsmsgproc.o)
 .data          0x00083d98        0x0 /home/z00250609/hybrid/5115_GPL/Hybrid_security_baseline/output/host/usr/arm-unknown-linux-uclibcgnueabi/sysroot/lib/libddnscms.a(ddnscmsapi.o)
 .data          0x00083d98        0x4 /home/z00250609/hybrid/5115_GPL/Hybrid_security_baseline/output/host/usr/arm-unknown-linux-uclibcgnueabi/sysroot/lib/libdhcp6ccms.a(dhcp6ccms.o)
 .data          0x00083d9c        0x0 /home/z00250609/hybrid/5115_GPL/Hybrid_security_baseline/output/host/usr/arm-unknown-linux-uclibcgnueabi/sysroot/lib/libdhcp6ccms.a(dhcp6ccmsmsgproc.o)
 .data          0x00083d9c        0x8 /home/z00250609/hybrid/5115_GPL/Hybrid_security_baseline/output/host/usr/arm-unknown-linux-uclibcgnueabi/sysroot/lib/libdhcp6scms.a(dhcp6scms.o)
 .data          0x00083da4        0x0 /home/z00250609/hybrid/5115_GPL/Hybrid_security_baseline/output/host/usr/arm-unknown-linux-uclibcgnueabi/sysroot/lib/libdhcp6scms.a(dhcp6scmsinit.o)
 .data          0x00083da4        0x0 /home/z00250609/hybrid/5115_GPL/Hybrid_security_baseline/output/host/usr/arm-unknown-linux-uclibcgnueabi/sysroot/lib/libdhcp6scms.a(dhcp6scmsmsgproc.o)
 .data          0x00083da4        0x0 /home/z00250609/hybrid/5115_GPL/Hybrid_security_baseline/output/host/usr/arm-unknown-linux-uclibcgnueabi/sysroot/lib/libdhcp6scms.a(dhcp6scmsapi.o)
 .data          0x00083da4        0x0 /home/z00250609/hybrid/5115_GPL/Hybrid_security_baseline/output/host/usr/arm-unknown-linux-uclibcgnueabi/sysroot/lib/libdhcpccms.a(dhcpccmsmsgproc.o)
 .data          0x00083da4        0x0 /home/z00250609/hybrid/5115_GPL/Hybrid_security_baseline/output/host/usr/arm-unknown-linux-uclibcgnueabi/sysroot/lib/libdhcpccms.a(dhcpccmsinit.o)
 .data          0x00083da4        0x0 /home/z00250609/hybrid/5115_GPL/Hybrid_security_baseline/output/host/usr/arm-unknown-linux-uclibcgnueabi/sysroot/lib/libdhcpccms.a(dhcpccms.o)
 .data          0x00083da4        0x0 /home/z00250609/hybrid/5115_GPL/Hybrid_security_baseline/output/host/usr/arm-unknown-linux-uclibcgnueabi/sysroot/lib/libdhcpscms.a(lanapi.o)
 .data          0x00083da4        0x0 /home/z00250609/hybrid/5115_GPL/Hybrid_security_baseline/output/host/usr/arm-unknown-linux-uclibcgnueabi/sysroot/lib/libdhcpscms.a(lanutil.o)
 .data          0x00083da4        0x0 /home/z00250609/hybrid/5115_GPL/Hybrid_security_baseline/output/host/usr/arm-unknown-linux-uclibcgnueabi/sysroot/lib/libdhcpscms.a(dhcpscmsinit.o)
 .data          0x00083da4        0x0 /home/z00250609/hybrid/5115_GPL/Hybrid_security_baseline/output/host/usr/arm-unknown-linux-uclibcgnueabi/sysroot/lib/libdhcpscms.a(dhcpscmsnotifymngr.o)
 .data          0x00083da4        0x0 /home/z00250609/hybrid/5115_GPL/Hybrid_security_baseline/output/host/usr/arm-unknown-linux-uclibcgnueabi/sysroot/lib/libdhcpscms.a(dhcpscmsmsgproc.o)
 .data          0x00083da4        0x0 /home/z00250609/hybrid/5115_GPL/Hybrid_security_baseline/output/host/usr/arm-unknown-linux-uclibcgnueabi/sysroot/lib/libdhcpscms.a(dhcpscms.o)
 .data          0x00083da4        0x0 /home/z00250609/hybrid/5115_GPL/Hybrid_security_baseline/output/host/usr/arm-unknown-linux-uclibcgnueabi/sysroot/lib/libdnscms.a(dnscmsinit.o)
 .data          0x00083da4        0x0 /home/z00250609/hybrid/5115_GPL/Hybrid_security_baseline/output/host/usr/arm-unknown-linux-uclibcgnueabi/sysroot/lib/libdnscms.a(dnscms.o)
 .data          0x00083da4        0x0 /home/z00250609/hybrid/5115_GPL/Hybrid_security_baseline/output/host/usr/arm-unknown-linux-uclibcgnueabi/sysroot/lib/liblanethcms.a(ethcms.o)
 .data          0x00083da4        0x0 /home/z00250609/hybrid/5115_GPL/Hybrid_security_baseline/output/host/usr/arm-unknown-linux-uclibcgnueabi/sysroot/lib/liblanethcms.a(ethapi.o)
 .data          0x00083da4        0x0 /home/z00250609/hybrid/5115_GPL/Hybrid_security_baseline/output/host/usr/arm-unknown-linux-uclibcgnueabi/sysroot/lib/libwanethcms.a(wecms.o)
 .data          0x00083da4        0x0 /home/z00250609/hybrid/5115_GPL/Hybrid_security_baseline/output/host/usr/arm-unknown-linux-uclibcgnueabi/sysroot/lib/libwanethcms.a(wecmsinit.o)
 .data          0x00083da4        0x0 /home/z00250609/hybrid/5115_GPL/Hybrid_security_baseline/output/host/usr/arm-unknown-linux-uclibcgnueabi/sysroot/lib/libwanethcms.a(wecmsmsgproc.o)
 .data          0x00083da4        0x0 /home/z00250609/hybrid/5115_GPL/Hybrid_security_baseline/output/host/usr/arm-unknown-linux-uclibcgnueabi/sysroot/lib/libfirewallcms.a(firewallapi.o)
 .data          0x00083da4        0x0 /home/z00250609/hybrid/5115_GPL/Hybrid_security_baseline/output/host/usr/arm-unknown-linux-uclibcgnueabi/sysroot/lib/libfirewallcms.a(firewallcmsmsgproc.o)
 .data          0x00083da4      0x26c /home/z00250609/hybrid/5115_GPL/Hybrid_security_baseline/output/host/usr/arm-unknown-linux-uclibcgnueabi/sysroot/lib/libfirewallcms.a(firewallutil.o)
                0x0008400c                g_ulFirewallCurrLevel
 .data          0x00084010        0x0 /home/z00250609/hybrid/5115_GPL/Hybrid_security_baseline/output/host/usr/arm-unknown-linux-uclibcgnueabi/sysroot/lib/libfirewallcms.a(firewallconfig.o)
 .data          0x00084010        0x0 /home/z00250609/hybrid/5115_GPL/Hybrid_security_baseline/output/host/usr/arm-unknown-linux-uclibcgnueabi/sysroot/lib/libfirewallcms.a(firewallservice.o)
 .data          0x00084010        0x0 /home/z00250609/hybrid/5115_GPL/Hybrid_security_baseline/output/host/usr/arm-unknown-linux-uclibcgnueabi/sysroot/lib/libfirewallcms.a(firewalllist.o)
 .data          0x00084010        0x0 /home/z00250609/hybrid/5115_GPL/Hybrid_security_baseline/output/host/usr/arm-unknown-linux-uclibcgnueabi/sysroot/lib/libfirewallcms.a(macflt.o)
 .data          0x00084010        0x0 /home/z00250609/hybrid/5115_GPL/Hybrid_security_baseline/output/host/usr/arm-unknown-linux-uclibcgnueabi/sysroot/lib/libfirewallcms.a(urlflt.o)
 .data          0x00084010        0x0 /home/z00250609/hybrid/5115_GPL/Hybrid_security_baseline/output/host/usr/arm-unknown-linux-uclibcgnueabi/sysroot/lib/libfirewallcms.a(ipflt.o)
 .data          0x00084010        0x0 /home/z00250609/hybrid/5115_GPL/Hybrid_security_baseline/output/host/usr/arm-unknown-linux-uclibcgnueabi/sysroot/lib/libfirewallcms.a(appflt.o)
 .data          0x00084010        0x0 /home/z00250609/hybrid/5115_GPL/Hybrid_security_baseline/output/host/usr/arm-unknown-linux-uclibcgnueabi/sysroot/lib/libfirewallcms.a(dosattack.o)
 .data          0x00084010      0x174 /home/z00250609/hybrid/5115_GPL/Hybrid_security_baseline/output/host/usr/arm-unknown-linux-uclibcgnueabi/sysroot/lib/libfirewallcms.a(acl.o)
                0x00084164                AclDisableWanportPingRule
                0x00084174                AclEnableWanportPingRule
 .data          0x00084184      0x1ec /home/z00250609/hybrid/5115_GPL/Hybrid_security_baseline/output/host/usr/arm-unknown-linux-uclibcgnueabi/sysroot/lib/libfirewallcms.a(aclex.o)
 .data          0x00084370        0x0 /home/z00250609/hybrid/5115_GPL/Hybrid_security_baseline/output/host/usr/arm-unknown-linux-uclibcgnueabi/sysroot/lib/libipcheckcms.a(ipcheckcms.o)
 .data          0x00084370        0x0 /home/z00250609/hybrid/5115_GPL/Hybrid_security_baseline/output/host/usr/arm-unknown-linux-uclibcgnueabi/sysroot/lib/libipcheckcms.a(ipcheckcmsinit.o)
 .data          0x00084370        0x0 /home/z00250609/hybrid/5115_GPL/Hybrid_security_baseline/output/host/usr/arm-unknown-linux-uclibcgnueabi/sysroot/lib/libipcheckcms.a(ipcheckcmsmsgproc.o)
 .data          0x00084370        0x0 /home/z00250609/hybrid/5115_GPL/Hybrid_security_baseline/output/host/usr/arm-unknown-linux-uclibcgnueabi/sysroot/lib/libiptunnelcms.a(iptunnelcmsinit.o)
 .data          0x00084370        0x0 /home/z00250609/hybrid/5115_GPL/Hybrid_security_baseline/output/host/usr/arm-unknown-linux-uclibcgnueabi/sysroot/lib/libiptunnelcms.a(iptunnelcmsapi.o)
 .data          0x00084370        0x0 /home/z00250609/hybrid/5115_GPL/Hybrid_security_baseline/output/host/usr/arm-unknown-linux-uclibcgnueabi/sysroot/lib/libiptunnelcms.a(iptunnelcms.o)
 .data          0x00084370       0x18 /home/z00250609/hybrid/5115_GPL/Hybrid_security_baseline/output/host/usr/arm-unknown-linux-uclibcgnueabi/sysroot/lib/libiptunnelcms.a(tunnel6rd.o)
 .data          0x00084388       0x18 /home/z00250609/hybrid/5115_GPL/Hybrid_security_baseline/output/host/usr/arm-unknown-linux-uclibcgnueabi/sysroot/lib/libiptunnelcms.a(tunneldslite.o)
 .data          0x000843a0        0x0 /home/z00250609/hybrid/5115_GPL/Hybrid_security_baseline/output/host/usr/arm-unknown-linux-uclibcgnueabi/sysroot/lib/liblannamecms.a(lannamecms.o)
 .data          0x000843a0        0x0 /home/z00250609/hybrid/5115_GPL/Hybrid_security_baseline/output/host/usr/arm-unknown-linux-uclibcgnueabi/sysroot/lib/liblannamecms.a(lannamecmsmsgproc.o)
 .data          0x000843a0        0x0 /home/z00250609/hybrid/5115_GPL/Hybrid_security_baseline/output/host/usr/arm-unknown-linux-uclibcgnueabi/sysroot/lib/libmldcms.a(mldcms.o)
 .data          0x000843a0        0x0 /home/z00250609/hybrid/5115_GPL/Hybrid_security_baseline/output/host/usr/arm-unknown-linux-uclibcgnueabi/sysroot/lib/libmldcms.a(mldcmsmsgproc.o)
 .data          0x000843a0        0x0 /home/z00250609/hybrid/5115_GPL/Hybrid_security_baseline/output/host/usr/arm-unknown-linux-uclibcgnueabi/sysroot/lib/libnatcms.a(natcmsmsgproc.o)
 .data          0x000843a0        0x0 /home/z00250609/hybrid/5115_GPL/Hybrid_security_baseline/output/host/usr/arm-unknown-linux-uclibcgnueabi/sysroot/lib/libnatcms.a(natcmsinit.o)
 .data          0x000843a0        0x4 /home/z00250609/hybrid/5115_GPL/Hybrid_security_baseline/output/host/usr/arm-unknown-linux-uclibcgnueabi/sysroot/lib/libnatcms.a(natcms.o)
                0x000843a0                g_enKrnlVersion
 .data          0x000843a4        0x0 /home/z00250609/hybrid/5115_GPL/Hybrid_security_baseline/output/host/usr/arm-unknown-linux-uclibcgnueabi/sysroot/lib/libnatcms.a(natutil.o)
 .data          0x000843a4        0x0 /home/z00250609/hybrid/5115_GPL/Hybrid_security_baseline/output/host/usr/arm-unknown-linux-uclibcgnueabi/sysroot/lib/libnatcms.a(natdmz.o)
 .data          0x000843a4        0x0 /home/z00250609/hybrid/5115_GPL/Hybrid_security_baseline/output/host/usr/arm-unknown-linux-uclibcgnueabi/sysroot/lib/libnatcms.a(natportmap.o)
 .data          0x000843a4        0x0 /home/z00250609/hybrid/5115_GPL/Hybrid_security_baseline/output/host/usr/arm-unknown-linux-uclibcgnueabi/sysroot/lib/libnatcms.a(prttrgapi.o)
 .data          0x000843a4        0x0 /home/z00250609/hybrid/5115_GPL/Hybrid_security_baseline/output/host/usr/arm-unknown-linux-uclibcgnueabi/sysroot/lib/libnatcms.a(prttrgutil.o)
 .data          0x000843a4       0x24 /home/z00250609/hybrid/5115_GPL/Hybrid_security_baseline/output/host/usr/arm-unknown-linux-uclibcgnueabi/sysroot/lib/libnatcms.a(natconenat.o)
 .data          0x000843c8        0x0 /home/z00250609/hybrid/5115_GPL/Hybrid_security_baseline/output/host/usr/arm-unknown-linux-uclibcgnueabi/sysroot/lib/libndiscms.a(wdsapi.o)
 .data          0x000843c8        0x0 /home/z00250609/hybrid/5115_GPL/Hybrid_security_baseline/output/host/usr/arm-unknown-linux-uclibcgnueabi/sysroot/lib/libpppccms.a(pppcapi.o)
 .data          0x000843c8        0x0 /home/z00250609/hybrid/5115_GPL/Hybrid_security_baseline/output/host/usr/arm-unknown-linux-uclibcgnueabi/sysroot/lib/libradvdcms.a(radvdcms.o)
 .data          0x000843c8        0x0 /home/z00250609/hybrid/5115_GPL/Hybrid_security_baseline/output/host/usr/arm-unknown-linux-uclibcgnueabi/sysroot/lib/libradvdcms.a(radvdcmsinit.o)
 .data          0x000843c8        0x0 /home/z00250609/hybrid/5115_GPL/Hybrid_security_baseline/output/host/usr/arm-unknown-linux-uclibcgnueabi/sysroot/lib/libradvdcms.a(radvdcmsmsgproc.o)
 .data          0x000843c8        0x0 /home/z00250609/hybrid/5115_GPL/Hybrid_security_baseline/output/host/usr/arm-unknown-linux-uclibcgnueabi/sysroot/lib/libradvdcms.a(radvdcmsapi.o)
 .data          0x000843c8        0x0 /home/z00250609/hybrid/5115_GPL/Hybrid_security_baseline/output/host/usr/arm-unknown-linux-uclibcgnueabi/sysroot/lib/libroute6cms.a(route6cms.o)
 .data          0x000843c8        0x0 /home/z00250609/hybrid/5115_GPL/Hybrid_security_baseline/output/host/usr/arm-unknown-linux-uclibcgnueabi/sysroot/lib/libroute6cms.a(route6cmsinit.o)
 .data          0x000843c8        0x0 /home/z00250609/hybrid/5115_GPL/Hybrid_security_baseline/output/host/usr/arm-unknown-linux-uclibcgnueabi/sysroot/lib/libroute6cms.a(route6cmsmsgproc.o)
 .data          0x000843c8        0x0 /home/z00250609/hybrid/5115_GPL/Hybrid_security_baseline/output/host/usr/arm-unknown-linux-uclibcgnueabi/sysroot/lib/libroute6cms.a(route6cmsapi.o)
 .data          0x000843c8        0x0 /home/z00250609/hybrid/5115_GPL/Hybrid_security_baseline/output/host/usr/arm-unknown-linux-uclibcgnueabi/sysroot/lib/libroutecms.a(routecmsmsgproc.o)
 .data          0x000843c8        0x0 /home/z00250609/hybrid/5115_GPL/Hybrid_security_baseline/output/host/usr/arm-unknown-linux-uclibcgnueabi/sysroot/lib/libroutecms.a(routecmsinit.o)
 .data          0x000843c8        0x0 /home/z00250609/hybrid/5115_GPL/Hybrid_security_baseline/output/host/usr/arm-unknown-linux-uclibcgnueabi/sysroot/lib/libroutecms.a(routecms.o)
 .data          0x000843c8        0x0 /home/z00250609/hybrid/5115_GPL/Hybrid_security_baseline/output/host/usr/arm-unknown-linux-uclibcgnueabi/sysroot/lib/libroutecms.a(routedft.o)
 .data          0x000843c8        0x0 /home/z00250609/hybrid/5115_GPL/Hybrid_security_baseline/output/host/usr/arm-unknown-linux-uclibcgnueabi/sysroot/lib/libroutecms.a(routestatic.o)
 .data          0x000843c8        0x0 /home/z00250609/hybrid/5115_GPL/Hybrid_security_baseline/output/host/usr/arm-unknown-linux-uclibcgnueabi/sysroot/lib/libroutecms.a(routelist.o)
 .data          0x000843c8        0x0 /home/z00250609/hybrid/5115_GPL/Hybrid_security_baseline/output/host/usr/arm-unknown-linux-uclibcgnueabi/sysroot/lib/libroutecms.a(rip.o)
 .data          0x000843c8        0x0 /home/z00250609/hybrid/5115_GPL/Hybrid_security_baseline/output/host/usr/arm-unknown-linux-uclibcgnueabi/sysroot/lib/libroutecms.a(riplist.o)
 .data          0x000843c8        0x4 /home/z00250609/hybrid/5115_GPL/Hybrid_security_baseline/output/host/usr/arm-unknown-linux-uclibcgnueabi/sysroot/lib/libsntpcms.a(sntpcms.o)
 .data          0x000843cc        0x0 /home/z00250609/hybrid/5115_GPL/Hybrid_security_baseline/output/host/usr/arm-unknown-linux-uclibcgnueabi/sysroot/lib/libsntpcms.a(sntpcmsposixtime.o)
 .data          0x000843cc        0x0 /home/z00250609/hybrid/5115_GPL/Hybrid_security_baseline/output/host/usr/arm-unknown-linux-uclibcgnueabi/sysroot/lib/libsntpcms.a(sntpcmsmsgproc.o)
 .data          0x000843cc        0x0 /home/z00250609/hybrid/5115_GPL/Hybrid_security_baseline/output/host/usr/arm-unknown-linux-uclibcgnueabi/sysroot/lib/libwancms.a(wancmsmsgproc.o)
 .data          0x000843cc        0x0 /home/z00250609/hybrid/5115_GPL/Hybrid_security_baseline/output/host/usr/arm-unknown-linux-uclibcgnueabi/sysroot/lib/libwancms.a(wancmsinit.o)
 .data          0x000843cc      0x44c /home/z00250609/hybrid/5115_GPL/Hybrid_security_baseline/output/host/usr/arm-unknown-linux-uclibcgnueabi/sysroot/lib/libwancms.a(wancms.o)
                0x000843cc                g_UrlFilterList
 .data          0x00084818        0x0 /home/z00250609/hybrid/5115_GPL/Hybrid_security_baseline/output/host/usr/arm-unknown-linux-uclibcgnueabi/sysroot/lib/libwancms.a(wancmsutil.o)
 .data          0x00084818        0x0 /home/z00250609/hybrid/5115_GPL/Hybrid_security_baseline/output/host/usr/arm-unknown-linux-uclibcgnueabi/sysroot/lib/libwancms.a(wancmshookproc.o)
 .data          0x00084818        0x0 /home/z00250609/hybrid/5115_GPL/Hybrid_security_baseline/output/host/usr/arm-unknown-linux-uclibcgnueabi/sysroot/lib/libwancms.a(wancmscall.o)
 .data          0x00084818        0x0 /home/z00250609/hybrid/5115_GPL/Hybrid_security_baseline/output/host/usr/arm-unknown-linux-uclibcgnueabi/sysroot/lib/libwancms.a(wancmsget.o)
 .data          0x00084818        0x4 /home/z00250609/hybrid/5115_GPL/Hybrid_security_baseline/output/host/usr/arm-unknown-linux-uclibcgnueabi/sysroot/lib/libwancorecms.a(wancorecms.o)
                0x00084818                g_ulUpdateMTU
 .data          0x0008481c        0x0 /home/z00250609/hybrid/5115_GPL/Hybrid_security_baseline/output/host/usr/arm-unknown-linux-uclibcgnueabi/sysroot/lib/libwanumtscms.a(wucms.o)
 .data          0x0008481c        0x0 /home/z00250609/hybrid/5115_GPL/Hybrid_security_baseline/output/host/usr/arm-unknown-linux-uclibcgnueabi/sysroot/lib/libwanumtscms.a(wucmsinit.o)
 .data          0x0008481c       0x18 /home/z00250609/hybrid/5115_GPL/Hybrid_security_baseline/output/host/usr/arm-unknown-linux-uclibcgnueabi/sysroot/lib/libwanumtscms.a(wucmsmsgproc.o)
                0x0008482c                g_ulBandluxeGetPrefnttype
 .data          0x00084834        0x0 /home/z00250609/hybrid/5115_GPL/Hybrid_security_baseline/output/host/usr/arm-unknown-linux-uclibcgnueabi/sysroot/lib/libwanumtscms.a(wuprofile.o)
 .data          0x00084834        0x0 /home/z00250609/hybrid/5115_GPL/Hybrid_security_baseline/output/host/usr/arm-unknown-linux-uclibcgnueabi/sysroot/lib/libwanvlancms.a(wanvlancmsmsgproc.o)
 .data          0x00084834        0x0 /home/z00250609/hybrid/5115_GPL/Hybrid_security_baseline/output/host/usr/arm-unknown-linux-uclibcgnueabi/sysroot/lib/libwanvlancms.a(wanvlancmsinit.o)
 .data          0x00084834        0x0 /home/z00250609/hybrid/5115_GPL/Hybrid_security_baseline/output/host/usr/arm-unknown-linux-uclibcgnueabi/sysroot/lib/libwanvlancms.a(wanvlancms.o)
 .data          0x00084834        0x0 /opt/toolchain_hisi/arm-hsan-linux-uclibcgnueabi/bin/../lib/gcc/arm-hsan-linux-uclibcgnueabi/4.4.6/libgcc.a(_divsi3.o)
 .data          0x00084834        0x0 /opt/toolchain_hisi/arm-hsan-linux-uclibcgnueabi/bin/../lib/gcc/arm-hsan-linux-uclibcgnueabi/4.4.6/libgcc.a(_arm_addsubdf3.o)
 .data          0x00084834        0x0 /opt/toolchain_hisi/arm-hsan-linux-uclibcgnueabi/bin/../lib/gcc/arm-hsan-linux-uclibcgnueabi/4.4.6/libgcc.a(_arm_muldivdf3.o)
 .data          0x00084834        0x0 /opt/toolchain_hisi/arm-hsan-linux-uclibcgnueabi/bin/../lib/gcc/arm-hsan-linux-uclibcgnueabi/4.4.6/libgcc.a(_arm_fixdfsi.o)
 .data          0x00084834        0x0 /opt/toolchain_hisi/arm-hsan-linux-uclibcgnueabi/bin/../lib/gcc/arm-hsan-linux-uclibcgnueabi/4.4.6/libgcc.a(_arm_fixunsdfsi.o)
 .data          0x00084834        0x0 /opt/toolchain_hisi/arm-hsan-linux-uclibcgnueabi/bin/../lib/gcc/arm-hsan-linux-uclibcgnueabi/4.4.6/libgcc.a(_arm_addsubsf3.o)
 .data          0x00084834        0x0 /opt/toolchain_hisi/arm-hsan-linux-uclibcgnueabi/bin/../lib/gcc/arm-hsan-linux-uclibcgnueabi/4.4.6/libgcc.a(_dvmd_lnx.o)
 .data          0x00084834        0x0 /opt/toolchain_hisi/arm-hsan-linux-uclibcgnueabi/bin/../lib/gcc/arm-hsan-linux-uclibcgnueabi/4.4.6/crtend.o
 .data          0x00084834        0x0 /home/z00250609/hybrid/5115_GPL/Hybrid_security_baseline/output/host/usr/arm-unknown-linux-uclibcgnueabi/sysroot/usr/lib/crtn.o

.data1
 *(.data1)
                0x00084834                _edata = .
                0x00084834                PROVIDE (edata, .)
                0x00084834                __bss_start = .
                0x00084834                __bss_start__ = .

.bss            0x00084834     0xe224
 *(.dynbss)
 .dynbss        0x00084834        0xc /home/z00250609/hybrid/5115_GPL/Hybrid_security_baseline/output/host/usr/arm-unknown-linux-uclibcgnueabi/sysroot/lib/libhttpapi.so
                0x00084834                g_ulCfmErr
                0x00084838                stderr
                0x0008483c                __ctype_b
 *(.bss .bss.* .gnu.linkonce.b.*)
 .bss           0x00084840        0x0 /home/z00250609/hybrid/5115_GPL/Hybrid_security_baseline/output/host/usr/arm-unknown-linux-uclibcgnueabi/sysroot/usr/lib/crt1.o
 .bss           0x00084840        0x0 /home/z00250609/hybrid/5115_GPL/Hybrid_security_baseline/output/host/usr/arm-unknown-linux-uclibcgnueabi/sysroot/usr/lib/crti.o
 .bss           0x00084840        0x1 /opt/toolchain_hisi/arm-hsan-linux-uclibcgnueabi/bin/../lib/gcc/arm-hsan-linux-uclibcgnueabi/4.4.6/crtbegin.o
 .bss           0x00084841        0x0 /home/z00250609/hybrid/5115_GPL/Hybrid_security_baseline/output/package/atp/configuration/cmsmain/management.o
 .bss           0x00084841        0x0 /home/z00250609/hybrid/5115_GPL/Hybrid_security_baseline/output/package/atp/configuration/cmsmain/cmsmonitor.o
 .bss           0x00084841        0x0 /home/z00250609/hybrid/5115_GPL/Hybrid_security_baseline/output/package/atp/configuration/cmsmain/cmsinit.o
 *fill*         0x00084841        0x3 00
 .bss           0x00084844       0x24 /home/z00250609/hybrid/5115_GPL/Hybrid_security_baseline/output/host/usr/arm-unknown-linux-uclibcgnueabi/sysroot/lib/libcmscore.a(cmsmsgproc.o)
                0x00084858                g_ulCmsErrCode
                0x00084864                g_bCmsDbInited
 .bss           0x00084868        0x4 /home/z00250609/hybrid/5115_GPL/Hybrid_security_baseline/output/host/usr/arm-unknown-linux-uclibcgnueabi/sysroot/lib/libcmscore.a(cmsutil.o)
 .bss           0x0008486c        0x8 /home/z00250609/hybrid/5115_GPL/Hybrid_security_baseline/output/host/usr/arm-unknown-linux-uclibcgnueabi/sysroot/lib/libcmscore.a(cmsinitapi.o)
                0x00084870                g_bInited
 .bss           0x00084874        0x0 /home/z00250609/hybrid/5115_GPL/Hybrid_security_baseline/output/host/usr/arm-unknown-linux-uclibcgnueabi/sysroot/lib/libcmscore.a(cmssigqueue.o)
 .bss           0x00084874        0x0 /home/z00250609/hybrid/5115_GPL/Hybrid_security_baseline/output/host/usr/arm-unknown-linux-uclibcgnueabi/sysroot/lib/libledservicecms.a(ledserviceini.o)
 .bss           0x00084874       0x1c /home/z00250609/hybrid/5115_GPL/Hybrid_security_baseline/output/host/usr/arm-unknown-linux-uclibcgnueabi/sysroot/lib/libtr143cms.a(tr143cmsmsgproc.o)
 .bss           0x00084890        0x0 /home/z00250609/hybrid/5115_GPL/Hybrid_security_baseline/output/host/usr/arm-unknown-linux-uclibcgnueabi/sysroot/lib/libclicms.a(clicmsmsgproc.o)
 .bss           0x00084890       0x18 /home/z00250609/hybrid/5115_GPL/Hybrid_security_baseline/output/host/usr/arm-unknown-linux-uclibcgnueabi/sysroot/lib/libcwmpcms.a(cwmpcmsmsgproc.o)
                0x000848a0                g_pstTimer
 .bss           0x000848a8        0x0 /home/z00250609/hybrid/5115_GPL/Hybrid_security_baseline/output/host/usr/arm-unknown-linux-uclibcgnueabi/sysroot/lib/libcwmpcms.a(cwmpcms.o)
 .bss           0x000848a8        0x8 /home/z00250609/hybrid/5115_GPL/Hybrid_security_baseline/output/host/usr/arm-unknown-linux-uclibcgnueabi/sysroot/lib/libippingcms.a(ippingcmsmsgproc.o)
 .bss           0x000848b0        0x0 /home/z00250609/hybrid/5115_GPL/Hybrid_security_baseline/output/host/usr/arm-unknown-linux-uclibcgnueabi/sysroot/lib/liblogcms.a(logcms.o)
 .bss           0x000848b0        0x0 /home/z00250609/hybrid/5115_GPL/Hybrid_security_baseline/output/host/usr/arm-unknown-linux-uclibcgnueabi/sysroot/lib/liblogcms.a(logcmsinit.o)
 .bss           0x000848b0        0x8 /home/z00250609/hybrid/5115_GPL/Hybrid_security_baseline/output/host/usr/arm-unknown-linux-uclibcgnueabi/sysroot/lib/liblogcms.a(logcmsmsgproc.o)
 .bss           0x000848b8        0x4 /home/z00250609/hybrid/5115_GPL/Hybrid_security_baseline/output/host/usr/arm-unknown-linux-uclibcgnueabi/sysroot/lib/libportmntcms.a(portmntcms.o)
 .bss           0x000848bc        0x0 /home/z00250609/hybrid/5115_GPL/Hybrid_security_baseline/output/host/usr/arm-unknown-linux-uclibcgnueabi/sysroot/lib/libsyscfgcms.a(syscfginit.o)
 .bss           0x000848bc        0x0 /home/z00250609/hybrid/5115_GPL/Hybrid_security_baseline/output/host/usr/arm-unknown-linux-uclibcgnueabi/sysroot/lib/libsyscfgcms.a(syscfgcmsmsgproc.o)
 .bss           0x000848bc        0x0 /home/z00250609/hybrid/5115_GPL/Hybrid_security_baseline/output/host/usr/arm-unknown-linux-uclibcgnueabi/sysroot/lib/libsyscfgcms.a(syscfgcms.o)
 .bss           0x000848bc        0x0 /home/z00250609/hybrid/5115_GPL/Hybrid_security_baseline/output/host/usr/arm-unknown-linux-uclibcgnueabi/sysroot/lib/libsysinfocms.a(sysinfoinit.o)
 .bss           0x000848bc        0x0 /home/z00250609/hybrid/5115_GPL/Hybrid_security_baseline/output/host/usr/arm-unknown-linux-uclibcgnueabi/sysroot/lib/libsysinfocms.a(sysinfocmsmsgproc.o)
 .bss           0x000848bc        0x0 /home/z00250609/hybrid/5115_GPL/Hybrid_security_baseline/output/host/usr/arm-unknown-linux-uclibcgnueabi/sysroot/lib/libsysinfocms.a(sysinfocms.o)
 .bss           0x000848bc      0x24c /home/z00250609/hybrid/5115_GPL/Hybrid_security_baseline/output/host/usr/arm-unknown-linux-uclibcgnueabi/sysroot/lib/libtr111cms.a(tr111cmsmsgproc.o)
 .bss           0x00084b08        0x0 /home/z00250609/hybrid/5115_GPL/Hybrid_security_baseline/output/host/usr/arm-unknown-linux-uclibcgnueabi/sysroot/lib/libtr111cms.a(tr111cms.o)
 .bss           0x00084b08        0xc /home/z00250609/hybrid/5115_GPL/Hybrid_security_baseline/output/host/usr/arm-unknown-linux-uclibcgnueabi/sysroot/lib/libtraceroutecms.a(traceroutecmsmsgproc.o)
                0x00084b0c                g_pstHops
 .bss           0x00084b14        0x4 /home/z00250609/hybrid/5115_GPL/Hybrid_security_baseline/output/host/usr/arm-unknown-linux-uclibcgnueabi/sysroot/lib/libupnpcms.a(upnpcms.o)
 .bss           0x00084b18        0x0 /home/z00250609/hybrid/5115_GPL/Hybrid_security_baseline/output/host/usr/arm-unknown-linux-uclibcgnueabi/sysroot/lib/libwebcms.a(webcmsmsgproc.o)
 .bss           0x00084b18       0x9c /home/z00250609/hybrid/5115_GPL/Hybrid_security_baseline/output/host/usr/arm-unknown-linux-uclibcgnueabi/sysroot/lib/libalgcms.a(algapi.o)
 .bss           0x00084bb4        0x0 /home/z00250609/hybrid/5115_GPL/Hybrid_security_baseline/output/host/usr/arm-unknown-linux-uclibcgnueabi/sysroot/lib/libbridgecms.a(bridgecms.o)
 .bss           0x00084bb4        0x8 /home/z00250609/hybrid/5115_GPL/Hybrid_security_baseline/output/host/usr/arm-unknown-linux-uclibcgnueabi/sysroot/lib/libbridgecms.a(bridgecmsinit.o)
                0x00084bb4                g_ulDefaultBridgeInstNum
                0x00084bb8                g_lDefaultBridgeKey
 .bss           0x00084bbc       0x1c /home/z00250609/hybrid/5115_GPL/Hybrid_security_baseline/output/host/usr/arm-unknown-linux-uclibcgnueabi/sysroot/lib/libbridgecms.a(bridgecmsmsgproc.o)
 .bss           0x00084bd8        0x0 /home/z00250609/hybrid/5115_GPL/Hybrid_security_baseline/output/host/usr/arm-unknown-linux-uclibcgnueabi/sysroot/lib/libipv6commoncms.a(ipv6commoncms.o)
 .bss           0x00084bd8      0x234 /home/z00250609/hybrid/5115_GPL/Hybrid_security_baseline/output/host/usr/arm-unknown-linux-uclibcgnueabi/sysroot/lib/libipv6commoncms.a(ipv6commoncmsproc.o)
                0x00084bd8                g_ulIPV6IntWanNum
                0x00084dec                g_lManageFlagFromDhcp6s
                0x00084dfc                g_lOtherFlagFromDhcp6s
 .bss           0x00084e0c        0x4 /home/z00250609/hybrid/5115_GPL/Hybrid_security_baseline/output/host/usr/arm-unknown-linux-uclibcgnueabi/sysroot/lib/libddnscms.a(ddnscms.o)
                0x00084e0c                g_pstDDnsCfgList
 .bss           0x00084e10        0x0 /home/z00250609/hybrid/5115_GPL/Hybrid_security_baseline/output/host/usr/arm-unknown-linux-uclibcgnueabi/sysroot/lib/libddnscms.a(ddnscmsinit.o)
 .bss           0x00084e10        0x0 /home/z00250609/hybrid/5115_GPL/Hybrid_security_baseline/output/host/usr/arm-unknown-linux-uclibcgnueabi/sysroot/lib/libddnscms.a(ddnscmsmsgproc.o)
 .bss           0x00084e10        0x0 /home/z00250609/hybrid/5115_GPL/Hybrid_security_baseline/output/host/usr/arm-unknown-linux-uclibcgnueabi/sysroot/lib/libddnscms.a(ddnscmsapi.o)
 .bss           0x00084e10        0x0 /home/z00250609/hybrid/5115_GPL/Hybrid_security_baseline/output/host/usr/arm-unknown-linux-uclibcgnueabi/sysroot/lib/libdhcp6ccms.a(dhcp6ccms.o)
 .bss           0x00084e10        0x0 /home/z00250609/hybrid/5115_GPL/Hybrid_security_baseline/output/host/usr/arm-unknown-linux-uclibcgnueabi/sysroot/lib/libdhcp6ccms.a(dhcp6ccmsmsgproc.o)
 .bss           0x00084e10      0x470 /home/z00250609/hybrid/5115_GPL/Hybrid_security_baseline/output/host/usr/arm-unknown-linux-uclibcgnueabi/sysroot/lib/libdhcp6scms.a(dhcp6scms.o)
                0x00085240                g_lCurretModeFlag
                0x00085260                g_lWanCfgFlag
 .bss           0x00085280       0x20 /home/z00250609/hybrid/5115_GPL/Hybrid_security_baseline/output/host/usr/arm-unknown-linux-uclibcgnueabi/sysroot/lib/libdhcp6scms.a(dhcp6scmsinit.o)
                0x00085280                g_lDhcp6sEnablgFlag
 .bss           0x000852a0        0x0 /home/z00250609/hybrid/5115_GPL/Hybrid_security_baseline/output/host/usr/arm-unknown-linux-uclibcgnueabi/sysroot/lib/libdhcp6scms.a(dhcp6scmsmsgproc.o)
 .bss           0x000852a0        0x0 /home/z00250609/hybrid/5115_GPL/Hybrid_security_baseline/output/host/usr/arm-unknown-linux-uclibcgnueabi/sysroot/lib/libdhcp6scms.a(dhcp6scmsapi.o)
 .bss           0x000852a0        0x0 /home/z00250609/hybrid/5115_GPL/Hybrid_security_baseline/output/host/usr/arm-unknown-linux-uclibcgnueabi/sysroot/lib/libdhcpccms.a(dhcpccmsmsgproc.o)
 .bss           0x000852a0        0x0 /home/z00250609/hybrid/5115_GPL/Hybrid_security_baseline/output/host/usr/arm-unknown-linux-uclibcgnueabi/sysroot/lib/libdhcpccms.a(dhcpccmsinit.o)
 .bss           0x000852a0        0x0 /home/z00250609/hybrid/5115_GPL/Hybrid_security_baseline/output/host/usr/arm-unknown-linux-uclibcgnueabi/sysroot/lib/libdhcpccms.a(dhcpccms.o)
 .bss           0x000852a0        0x0 /home/z00250609/hybrid/5115_GPL/Hybrid_security_baseline/output/host/usr/arm-unknown-linux-uclibcgnueabi/sysroot/lib/libdhcpscms.a(lanapi.o)
 .bss           0x000852a0        0x0 /home/z00250609/hybrid/5115_GPL/Hybrid_security_baseline/output/host/usr/arm-unknown-linux-uclibcgnueabi/sysroot/lib/libdhcpscms.a(lanutil.o)
 .bss           0x000852a0        0x0 /home/z00250609/hybrid/5115_GPL/Hybrid_security_baseline/output/host/usr/arm-unknown-linux-uclibcgnueabi/sysroot/lib/libdhcpscms.a(dhcpscmsinit.o)
 .bss           0x000852a0        0x8 /home/z00250609/hybrid/5115_GPL/Hybrid_security_baseline/output/host/usr/arm-unknown-linux-uclibcgnueabi/sysroot/lib/libdhcpscms.a(dhcpscmsnotifymngr.o)
 .bss           0x000852a8        0xc /home/z00250609/hybrid/5115_GPL/Hybrid_security_baseline/output/host/usr/arm-unknown-linux-uclibcgnueabi/sysroot/lib/libdhcpscms.a(dhcpscmsmsgproc.o)
 .bss           0x000852b4        0x4 /home/z00250609/hybrid/5115_GPL/Hybrid_security_baseline/output/host/usr/arm-unknown-linux-uclibcgnueabi/sysroot/lib/libdhcpscms.a(dhcpscms.o)
                0x000852b4                nMaxpoolorder
 .bss           0x000852b8        0x0 /home/z00250609/hybrid/5115_GPL/Hybrid_security_baseline/output/host/usr/arm-unknown-linux-uclibcgnueabi/sysroot/lib/libdnscms.a(dnscmsinit.o)
 .bss           0x000852b8        0x0 /home/z00250609/hybrid/5115_GPL/Hybrid_security_baseline/output/host/usr/arm-unknown-linux-uclibcgnueabi/sysroot/lib/libdnscms.a(dnscms.o)
 .bss           0x000852b8        0x0 /home/z00250609/hybrid/5115_GPL/Hybrid_security_baseline/output/host/usr/arm-unknown-linux-uclibcgnueabi/sysroot/lib/liblanethcms.a(ethcms.o)
 .bss           0x000852b8        0x4 /home/z00250609/hybrid/5115_GPL/Hybrid_security_baseline/output/host/usr/arm-unknown-linux-uclibcgnueabi/sysroot/lib/liblanethcms.a(ethapi.o)
 .bss           0x000852bc        0x0 /home/z00250609/hybrid/5115_GPL/Hybrid_security_baseline/output/host/usr/arm-unknown-linux-uclibcgnueabi/sysroot/lib/libwanethcms.a(wecms.o)
 .bss           0x000852bc        0x0 /home/z00250609/hybrid/5115_GPL/Hybrid_security_baseline/output/host/usr/arm-unknown-linux-uclibcgnueabi/sysroot/lib/libwanethcms.a(wecmsinit.o)
 .bss           0x000852bc        0x8 /home/z00250609/hybrid/5115_GPL/Hybrid_security_baseline/output/host/usr/arm-unknown-linux-uclibcgnueabi/sysroot/lib/libwanethcms.a(wecmsmsgproc.o)
                0x000852bc                g_ulLinkStatus
 .bss           0x000852c4        0x0 /home/z00250609/hybrid/5115_GPL/Hybrid_security_baseline/output/host/usr/arm-unknown-linux-uclibcgnueabi/sysroot/lib/libfirewallcms.a(firewallapi.o)
 .bss           0x000852c4     0x4598 /home/z00250609/hybrid/5115_GPL/Hybrid_security_baseline/output/host/usr/arm-unknown-linux-uclibcgnueabi/sysroot/lib/libfirewallcms.a(firewallcmsmsgproc.o)
 .bss           0x0008985c      0x19c /home/z00250609/hybrid/5115_GPL/Hybrid_security_baseline/output/host/usr/arm-unknown-linux-uclibcgnueabi/sysroot/lib/libfirewallcms.a(firewallutil.o)
                0x000899dc                g_ulIPFilterStatu
                0x000899e0                g_ulIPFilterMode
                0x000899e4                g_ulLanMacFilterStatu
                0x000899e8                g_ulLanMacFilterMode
                0x000899ec                g_ulURLFilterStatu
                0x000899f0                g_ulURLFilterMode
                0x000899f4                g_ulWanportPingStatu
 .bss           0x000899f8        0x0 /home/z00250609/hybrid/5115_GPL/Hybrid_security_baseline/output/host/usr/arm-unknown-linux-uclibcgnueabi/sysroot/lib/libfirewallcms.a(firewallconfig.o)
 .bss           0x000899f8        0x0 /home/z00250609/hybrid/5115_GPL/Hybrid_security_baseline/output/host/usr/arm-unknown-linux-uclibcgnueabi/sysroot/lib/libfirewallcms.a(firewallservice.o)
 .bss           0x000899f8        0x4 /home/z00250609/hybrid/5115_GPL/Hybrid_security_baseline/output/host/usr/arm-unknown-linux-uclibcgnueabi/sysroot/lib/libfirewallcms.a(firewalllist.o)
 .bss           0x000899fc        0x8 /home/z00250609/hybrid/5115_GPL/Hybrid_security_baseline/output/host/usr/arm-unknown-linux-uclibcgnueabi/sysroot/lib/libfirewallcms.a(macflt.o)
                0x000899fc                g_ulCustomizedMacfltTotalNum
                0x00089a00                g_pstCustomizedMacfltList
 .bss           0x00089a04        0x8 /home/z00250609/hybrid/5115_GPL/Hybrid_security_baseline/output/host/usr/arm-unknown-linux-uclibcgnueabi/sysroot/lib/libfirewallcms.a(urlflt.o)
                0x00089a04                g_pstCustomizedUrlList
                0x00089a08                g_ulCustomizedUrlTotalCount
 .bss           0x00089a0c        0x8 /home/z00250609/hybrid/5115_GPL/Hybrid_security_baseline/output/host/usr/arm-unknown-linux-uclibcgnueabi/sysroot/lib/libfirewallcms.a(ipflt.o)
                0x00089a0c                g_pstCustomizedIpfilterList
                0x00089a10                g_ulCustomizedIpfilterTotalCount
 .bss           0x00089a14        0x8 /home/z00250609/hybrid/5115_GPL/Hybrid_security_baseline/output/host/usr/arm-unknown-linux-uclibcgnueabi/sysroot/lib/libfirewallcms.a(appflt.o)
                0x00089a14                g_pstCustomizedAppfltList
                0x00089a18                g_ulCustomizedAppfltTotalCount
 .bss           0x00089a1c        0x4 /home/z00250609/hybrid/5115_GPL/Hybrid_security_baseline/output/host/usr/arm-unknown-linux-uclibcgnueabi/sysroot/lib/libfirewallcms.a(dosattack.o)
                0x00089a1c                g_pstDoSattack
 .bss           0x00089a20        0x8 /home/z00250609/hybrid/5115_GPL/Hybrid_security_baseline/output/host/usr/arm-unknown-linux-uclibcgnueabi/sysroot/lib/libfirewallcms.a(acl.o)
                0x00089a20                g_pstAclList
                0x00089a24                g_ulAclTotal
 .bss           0x00089a28        0x0 /home/z00250609/hybrid/5115_GPL/Hybrid_security_baseline/output/host/usr/arm-unknown-linux-uclibcgnueabi/sysroot/lib/libfirewallcms.a(aclex.o)
 .bss           0x00089a28        0x0 /home/z00250609/hybrid/5115_GPL/Hybrid_security_baseline/output/host/usr/arm-unknown-linux-uclibcgnueabi/sysroot/lib/libipcheckcms.a(ipcheckcms.o)
 .bss           0x00089a28        0x0 /home/z00250609/hybrid/5115_GPL/Hybrid_security_baseline/output/host/usr/arm-unknown-linux-uclibcgnueabi/sysroot/lib/libipcheckcms.a(ipcheckcmsinit.o)
 .bss           0x00089a28        0x8 /home/z00250609/hybrid/5115_GPL/Hybrid_security_baseline/output/host/usr/arm-unknown-linux-uclibcgnueabi/sysroot/lib/libipcheckcms.a(ipcheckcmsmsgproc.o)
 .bss           0x00089a30        0x0 /home/z00250609/hybrid/5115_GPL/Hybrid_security_baseline/output/host/usr/arm-unknown-linux-uclibcgnueabi/sysroot/lib/libiptunnelcms.a(iptunnelcmsinit.o)
 .bss           0x00089a30       0x10 /home/z00250609/hybrid/5115_GPL/Hybrid_security_baseline/output/host/usr/arm-unknown-linux-uclibcgnueabi/sysroot/lib/libiptunnelcms.a(iptunnelcmsapi.o)
 .bss           0x00089a40        0xc /home/z00250609/hybrid/5115_GPL/Hybrid_security_baseline/output/host/usr/arm-unknown-linux-uclibcgnueabi/sysroot/lib/libiptunnelcms.a(iptunnelcms.o)
                0x00089a40                g_pstIpTunnelHeader
                0x00089a48                g_pstIpTunnelConf
 .bss           0x00089a4c        0x0 /home/z00250609/hybrid/5115_GPL/Hybrid_security_baseline/output/host/usr/arm-unknown-linux-uclibcgnueabi/sysroot/lib/libiptunnelcms.a(tunnel6rd.o)
 .bss           0x00089a4c        0x0 /home/z00250609/hybrid/5115_GPL/Hybrid_security_baseline/output/host/usr/arm-unknown-linux-uclibcgnueabi/sysroot/lib/libiptunnelcms.a(tunneldslite.o)
 .bss           0x00089a4c       0xac /home/z00250609/hybrid/5115_GPL/Hybrid_security_baseline/output/host/usr/arm-unknown-linux-uclibcgnueabi/sysroot/lib/liblannamecms.a(lannamecms.o)
 .bss           0x00089af8        0x0 /home/z00250609/hybrid/5115_GPL/Hybrid_security_baseline/output/host/usr/arm-unknown-linux-uclibcgnueabi/sysroot/lib/liblannamecms.a(lannamecmsmsgproc.o)
 .bss           0x00089af8       0x8c /home/z00250609/hybrid/5115_GPL/Hybrid_security_baseline/output/host/usr/arm-unknown-linux-uclibcgnueabi/sysroot/lib/libmldcms.a(mldcms.o)
                0x00089af8                g_stMldInfo
 .bss           0x00089b84        0x0 /home/z00250609/hybrid/5115_GPL/Hybrid_security_baseline/output/host/usr/arm-unknown-linux-uclibcgnueabi/sysroot/lib/libmldcms.a(mldcmsmsgproc.o)
 .bss           0x00089b84        0x4 /home/z00250609/hybrid/5115_GPL/Hybrid_security_baseline/output/host/usr/arm-unknown-linux-uclibcgnueabi/sysroot/lib/libnatcms.a(natcmsmsgproc.o)
 .bss           0x00089b88        0x0 /home/z00250609/hybrid/5115_GPL/Hybrid_security_baseline/output/host/usr/arm-unknown-linux-uclibcgnueabi/sysroot/lib/libnatcms.a(natcmsinit.o)
 .bss           0x00089b88      0x2d4 /home/z00250609/hybrid/5115_GPL/Hybrid_security_baseline/output/host/usr/arm-unknown-linux-uclibcgnueabi/sysroot/lib/libnatcms.a(natcms.o)
                0x00089b8c                g_acKrnlCtPath
                0x00089c7c                g_acKrnlNatPath
                0x00089d6c                g_acCtCleanPath
 .bss           0x00089e5c        0x0 /home/z00250609/hybrid/5115_GPL/Hybrid_security_baseline/output/host/usr/arm-unknown-linux-uclibcgnueabi/sysroot/lib/libnatcms.a(natutil.o)
 .bss           0x00089e5c        0x4 /home/z00250609/hybrid/5115_GPL/Hybrid_security_baseline/output/host/usr/arm-unknown-linux-uclibcgnueabi/sysroot/lib/libnatcms.a(natdmz.o)
 .bss           0x00089e60        0x4 /home/z00250609/hybrid/5115_GPL/Hybrid_security_baseline/output/host/usr/arm-unknown-linux-uclibcgnueabi/sysroot/lib/libnatcms.a(natportmap.o)
                0x00089e60                g_pstPortMapList
 .bss           0x00089e64        0x0 /home/z00250609/hybrid/5115_GPL/Hybrid_security_baseline/output/host/usr/arm-unknown-linux-uclibcgnueabi/sysroot/lib/libnatcms.a(prttrgapi.o)
 .bss           0x00089e64        0x4 /home/z00250609/hybrid/5115_GPL/Hybrid_security_baseline/output/host/usr/arm-unknown-linux-uclibcgnueabi/sysroot/lib/libnatcms.a(prttrgutil.o)
 .bss           0x00089e68        0x0 /home/z00250609/hybrid/5115_GPL/Hybrid_security_baseline/output/host/usr/arm-unknown-linux-uclibcgnueabi/sysroot/lib/libnatcms.a(natconenat.o)
 .bss           0x00089e68        0x0 /home/z00250609/hybrid/5115_GPL/Hybrid_security_baseline/output/host/usr/arm-unknown-linux-uclibcgnueabi/sysroot/lib/libndiscms.a(wdsapi.o)
 .bss           0x00089e68        0x0 /home/z00250609/hybrid/5115_GPL/Hybrid_security_baseline/output/host/usr/arm-unknown-linux-uclibcgnueabi/sysroot/lib/libpppccms.a(pppcapi.o)
 .bss           0x00089e68      0x418 /home/z00250609/hybrid/5115_GPL/Hybrid_security_baseline/output/host/usr/arm-unknown-linux-uclibcgnueabi/sysroot/lib/libradvdcms.a(radvdcms.o)
 .bss           0x0008a280        0x0 /home/z00250609/hybrid/5115_GPL/Hybrid_security_baseline/output/host/usr/arm-unknown-linux-uclibcgnueabi/sysroot/lib/libradvdcms.a(radvdcmsinit.o)
 .bss           0x0008a280        0x0 /home/z00250609/hybrid/5115_GPL/Hybrid_security_baseline/output/host/usr/arm-unknown-linux-uclibcgnueabi/sysroot/lib/libradvdcms.a(radvdcmsmsgproc.o)
 .bss           0x0008a280       0x10 /home/z00250609/hybrid/5115_GPL/Hybrid_security_baseline/output/host/usr/arm-unknown-linux-uclibcgnueabi/sysroot/lib/libradvdcms.a(radvdcmsapi.o)
 .bss           0x0008a290     0x29a0 /home/z00250609/hybrid/5115_GPL/Hybrid_security_baseline/output/host/usr/arm-unknown-linux-uclibcgnueabi/sysroot/lib/libroute6cms.a(route6cms.o)
                0x0008a290                g_stBindUsedIpRuleTable6
 .bss           0x0008cc30        0x0 /home/z00250609/hybrid/5115_GPL/Hybrid_security_baseline/output/host/usr/arm-unknown-linux-uclibcgnueabi/sysroot/lib/libroute6cms.a(route6cmsinit.o)
 .bss           0x0008cc30        0x0 /home/z00250609/hybrid/5115_GPL/Hybrid_security_baseline/output/host/usr/arm-unknown-linux-uclibcgnueabi/sysroot/lib/libroute6cms.a(route6cmsmsgproc.o)
 .bss           0x0008cc30        0x0 /home/z00250609/hybrid/5115_GPL/Hybrid_security_baseline/output/host/usr/arm-unknown-linux-uclibcgnueabi/sysroot/lib/libroute6cms.a(route6cmsapi.o)
 .bss           0x0008cc30        0x0 /home/z00250609/hybrid/5115_GPL/Hybrid_security_baseline/output/host/usr/arm-unknown-linux-uclibcgnueabi/sysroot/lib/libroutecms.a(routecmsmsgproc.o)
 .bss           0x0008cc30        0x0 /home/z00250609/hybrid/5115_GPL/Hybrid_security_baseline/output/host/usr/arm-unknown-linux-uclibcgnueabi/sysroot/lib/libroutecms.a(routecmsinit.o)
 .bss           0x0008cc30        0x0 /home/z00250609/hybrid/5115_GPL/Hybrid_security_baseline/output/host/usr/arm-unknown-linux-uclibcgnueabi/sysroot/lib/libroutecms.a(routecms.o)
 .bss           0x0008cc30     0x2c44 /home/z00250609/hybrid/5115_GPL/Hybrid_security_baseline/output/host/usr/arm-unknown-linux-uclibcgnueabi/sysroot/lib/libroutecms.a(routedft.o)
                0x0008f76c                g_acDftErrMsg
 .bss           0x0008f874      0xaa0 /home/z00250609/hybrid/5115_GPL/Hybrid_security_baseline/output/host/usr/arm-unknown-linux-uclibcgnueabi/sysroot/lib/libroutecms.a(routestatic.o)
 .bss           0x00090314        0x4 /home/z00250609/hybrid/5115_GPL/Hybrid_security_baseline/output/host/usr/arm-unknown-linux-uclibcgnueabi/sysroot/lib/libroutecms.a(routelist.o)
 .bss           0x00090318        0x0 /home/z00250609/hybrid/5115_GPL/Hybrid_security_baseline/output/host/usr/arm-unknown-linux-uclibcgnueabi/sysroot/lib/libroutecms.a(rip.o)
 .bss           0x00090318        0x4 /home/z00250609/hybrid/5115_GPL/Hybrid_security_baseline/output/host/usr/arm-unknown-linux-uclibcgnueabi/sysroot/lib/libroutecms.a(riplist.o)
 .bss           0x0009031c        0x4 /home/z00250609/hybrid/5115_GPL/Hybrid_security_baseline/output/host/usr/arm-unknown-linux-uclibcgnueabi/sysroot/lib/libsntpcms.a(sntpcms.o)
 .bss           0x00090320        0x0 /home/z00250609/hybrid/5115_GPL/Hybrid_security_baseline/output/host/usr/arm-unknown-linux-uclibcgnueabi/sysroot/lib/libsntpcms.a(sntpcmsposixtime.o)
 .bss           0x00090320        0x4 /home/z00250609/hybrid/5115_GPL/Hybrid_security_baseline/output/host/usr/arm-unknown-linux-uclibcgnueabi/sysroot/lib/libsntpcms.a(sntpcmsmsgproc.o)
 .bss           0x00090324       0x24 /home/z00250609/hybrid/5115_GPL/Hybrid_security_baseline/output/host/usr/arm-unknown-linux-uclibcgnueabi/sysroot/lib/libwancms.a(wancmsmsgproc.o)
 .bss           0x00090348        0x0 /home/z00250609/hybrid/5115_GPL/Hybrid_security_baseline/output/host/usr/arm-unknown-linux-uclibcgnueabi/sysroot/lib/libwancms.a(wancmsinit.o)
 .bss           0x00090348       0x18 /home/z00250609/hybrid/5115_GPL/Hybrid_security_baseline/output/host/usr/arm-unknown-linux-uclibcgnueabi/sysroot/lib/libwancms.a(wancms.o)
                0x00090348                g_pstWanHeader
                0x00090350                g_CheckFotaVersionTime
                0x00090354                g_ptrCheckFotaVersionTimer
                0x0009035c                g_pstWanConfig
 .bss           0x00090360        0x0 /home/z00250609/hybrid/5115_GPL/Hybrid_security_baseline/output/host/usr/arm-unknown-linux-uclibcgnueabi/sysroot/lib/libwancms.a(wancmsutil.o)
 .bss           0x00090360       0x50 /home/z00250609/hybrid/5115_GPL/Hybrid_security_baseline/output/host/usr/arm-unknown-linux-uclibcgnueabi/sysroot/lib/libwancms.a(wancmshookproc.o)
 .bss           0x000903b0        0x0 /home/z00250609/hybrid/5115_GPL/Hybrid_security_baseline/output/host/usr/arm-unknown-linux-uclibcgnueabi/sysroot/lib/libwancms.a(wancmscall.o)
 .bss           0x000903b0        0x0 /home/z00250609/hybrid/5115_GPL/Hybrid_security_baseline/output/host/usr/arm-unknown-linux-uclibcgnueabi/sysroot/lib/libwancms.a(wancmsget.o)
 .bss           0x000903b0       0x34 /home/z00250609/hybrid/5115_GPL/Hybrid_security_baseline/output/host/usr/arm-unknown-linux-uclibcgnueabi/sysroot/lib/libwancorecms.a(wancorecms.o)
                0x000903e0                g_ulUpdateMTUFlag
 .bss           0x000903e4        0x0 /home/z00250609/hybrid/5115_GPL/Hybrid_security_baseline/output/host/usr/arm-unknown-linux-uclibcgnueabi/sysroot/lib/libwanumtscms.a(wucms.o)
 .bss           0x000903e4        0x0 /home/z00250609/hybrid/5115_GPL/Hybrid_security_baseline/output/host/usr/arm-unknown-linux-uclibcgnueabi/sysroot/lib/libwanumtscms.a(wucmsinit.o)
 .bss           0x000903e4        0x4 /home/z00250609/hybrid/5115_GPL/Hybrid_security_baseline/output/host/usr/arm-unknown-linux-uclibcgnueabi/sysroot/lib/libwanumtscms.a(wucmsmsgproc.o)
 .bss           0x000903e8        0x4 /home/z00250609/hybrid/5115_GPL/Hybrid_security_baseline/output/host/usr/arm-unknown-linux-uclibcgnueabi/sysroot/lib/libwanumtscms.a(wuprofile.o)
                0x000903e8                g_pstProfileList
 .bss           0x000903ec        0x0 /home/z00250609/hybrid/5115_GPL/Hybrid_security_baseline/output/host/usr/arm-unknown-linux-uclibcgnueabi/sysroot/lib/libwanvlancms.a(wanvlancmsmsgproc.o)
 .bss           0x000903ec        0x0 /home/z00250609/hybrid/5115_GPL/Hybrid_security_baseline/output/host/usr/arm-unknown-linux-uclibcgnueabi/sysroot/lib/libwanvlancms.a(wanvlancmsinit.o)
 .bss           0x000903ec        0x4 /home/z00250609/hybrid/5115_GPL/Hybrid_security_baseline/output/host/usr/arm-unknown-linux-uclibcgnueabi/sysroot/lib/libwanvlancms.a(wanvlancms.o)
                0x000903ec                g_pstVlanHeader
 .bss           0x000903f0        0x0 /opt/toolchain_hisi/arm-hsan-linux-uclibcgnueabi/bin/../lib/gcc/arm-hsan-linux-uclibcgnueabi/4.4.6/libgcc.a(_divsi3.o)
 .bss           0x000903f0        0x0 /opt/toolchain_hisi/arm-hsan-linux-uclibcgnueabi/bin/../lib/gcc/arm-hsan-linux-uclibcgnueabi/4.4.6/libgcc.a(_arm_addsubdf3.o)
 .bss           0x000903f0        0x0 /opt/toolchain_hisi/arm-hsan-linux-uclibcgnueabi/bin/../lib/gcc/arm-hsan-linux-uclibcgnueabi/4.4.6/libgcc.a(_arm_muldivdf3.o)
 .bss           0x000903f0        0x0 /opt/toolchain_hisi/arm-hsan-linux-uclibcgnueabi/bin/../lib/gcc/arm-hsan-linux-uclibcgnueabi/4.4.6/libgcc.a(_arm_fixdfsi.o)
 .bss           0x000903f0        0x0 /opt/toolchain_hisi/arm-hsan-linux-uclibcgnueabi/bin/../lib/gcc/arm-hsan-linux-uclibcgnueabi/4.4.6/libgcc.a(_arm_fixunsdfsi.o)
 .bss           0x000903f0        0x0 /opt/toolchain_hisi/arm-hsan-linux-uclibcgnueabi/bin/../lib/gcc/arm-hsan-linux-uclibcgnueabi/4.4.6/libgcc.a(_arm_addsubsf3.o)
 .bss           0x000903f0        0x0 /opt/toolchain_hisi/arm-hsan-linux-uclibcgnueabi/bin/../lib/gcc/arm-hsan-linux-uclibcgnueabi/4.4.6/libgcc.a(_dvmd_lnx.o)
 .bss           0x000903f0        0x0 /opt/toolchain_hisi/arm-hsan-linux-uclibcgnueabi/bin/../lib/gcc/arm-hsan-linux-uclibcgnueabi/4.4.6/crtend.o
 .bss           0x000903f0        0x0 /home/z00250609/hybrid/5115_GPL/Hybrid_security_baseline/output/host/usr/arm-unknown-linux-uclibcgnueabi/sysroot/usr/lib/crtn.o
 *(COMMON)
 COMMON         0x000903f0      0x6b0 /home/z00250609/hybrid/5115_GPL/Hybrid_security_baseline/output/host/usr/arm-unknown-linux-uclibcgnueabi/sysroot/lib/libipv6commoncms.a(ipv6commoncmsproc.o)
                0x000903f0                g_stDHCPv6SaveWanPara
 COMMON         0x00090aa0      0x100 /home/z00250609/hybrid/5115_GPL/Hybrid_security_baseline/output/host/usr/arm-unknown-linux-uclibcgnueabi/sysroot/lib/liblanethcms.a(ethcms.o)
                0x00090aa0                g_astEthItfCfg
 COMMON         0x00090ba0      0x1c0 /home/z00250609/hybrid/5115_GPL/Hybrid_security_baseline/output/host/usr/arm-unknown-linux-uclibcgnueabi/sysroot/lib/libwanethcms.a(wecms.o)
                0x00090ba0                g_stWeInfo
 COMMON         0x00090d60       0x81 /home/z00250609/hybrid/5115_GPL/Hybrid_security_baseline/output/host/usr/arm-unknown-linux-uclibcgnueabi/sysroot/lib/libmldcms.a(mldcms.o)
                0x00090d60                g_acMldWanPath
 *fill*         0x00090de1        0x3 00
 COMMON         0x00090de4     0x1bb0 /home/z00250609/hybrid/5115_GPL/Hybrid_security_baseline/output/host/usr/arm-unknown-linux-uclibcgnueabi/sysroot/lib/libradvdcms.a(radvdcmsinit.o)
                0x00090de4                g_stRadvdInfo
                0x00091274                g_stRadvdParameter
 COMMON         0x00092994       0x34 /home/z00250609/hybrid/5115_GPL/Hybrid_security_baseline/output/host/usr/arm-unknown-linux-uclibcgnueabi/sysroot/lib/libwancms.a(wancmsinit.o)
                0x00092994                g_ACSWan
 COMMON         0x000929c8       0x90 /home/z00250609/hybrid/5115_GPL/Hybrid_security_baseline/output/host/usr/arm-unknown-linux-uclibcgnueabi/sysroot/lib/libwanumtscms.a(wucms.o)
                0x000929c8                g_stWuDevice
                0x00092a24                g_stWuInfo
                0x00092a58                . = ALIGN ((. != 0x0)?0x4:0x1)
                0x00092a58                _bss_end__ = .
                0x00092a58                __bss_end__ = .
                0x00092a58                . = ALIGN (0x4)
                0x00092a58                . = ALIGN (0x4)
                0x00092a58                __end__ = .
                0x00092a58                _end = .
                0x00092a58                PROVIDE (end, .)
                0x00092a58                . = DATA_SEGMENT_END (.)

.stab
 *(.stab)

.stabstr
 *(.stabstr)

.stab.excl
 *(.stab.excl)

.stab.exclstr
 *(.stab.exclstr)

.stab.index
 *(.stab.index)

.stab.indexstr
 *(.stab.indexstr)

.comment        0x00000000       0x5b
 *(.comment)
 .comment       0x00000000       0x2e /home/z00250609/hybrid/5115_GPL/Hybrid_security_baseline/output/host/usr/arm-unknown-linux-uclibcgnueabi/sysroot/usr/lib/crti.o
                                 0x2f (size before relaxing)
 .comment       0x0000002e       0x2d /opt/toolchain_hisi/arm-hsan-linux-uclibcgnueabi/bin/../lib/gcc/arm-hsan-linux-uclibcgnueabi/4.4.6/crtbegin.o
                                 0x2e (size before relaxing)
 .comment       0x00000000       0x2e /home/z00250609/hybrid/5115_GPL/Hybrid_security_baseline/output/package/atp/configuration/cmsmain/management.o
 .comment       0x00000000       0x2e /home/z00250609/hybrid/5115_GPL/Hybrid_security_baseline/output/package/atp/configuration/cmsmain/cmsmonitor.o
 .comment       0x00000000       0x2e /home/z00250609/hybrid/5115_GPL/Hybrid_security_baseline/output/package/atp/configuration/cmsmain/cmsinit.o
 .comment       0x00000000       0x2e /home/z00250609/hybrid/5115_GPL/Hybrid_security_baseline/output/host/usr/arm-unknown-linux-uclibcgnueabi/sysroot/lib/libcmscore.a(cmsmsgproc.o)
 .comment       0x00000000       0x2e /home/z00250609/hybrid/5115_GPL/Hybrid_security_baseline/output/host/usr/arm-unknown-linux-uclibcgnueabi/sysroot/lib/libcmscore.a(cmsutil.o)
 .comment       0x00000000       0x2e /home/z00250609/hybrid/5115_GPL/Hybrid_security_baseline/output/host/usr/arm-unknown-linux-uclibcgnueabi/sysroot/lib/libcmscore.a(cmsinitapi.o)
 .comment       0x00000000       0x2e /home/z00250609/hybrid/5115_GPL/Hybrid_security_baseline/output/host/usr/arm-unknown-linux-uclibcgnueabi/sysroot/lib/libcmscore.a(cmssigqueue.o)
 .comment       0x00000000       0x2e /home/z00250609/hybrid/5115_GPL/Hybrid_security_baseline/output/host/usr/arm-unknown-linux-uclibcgnueabi/sysroot/lib/libledservicecms.a(ledserviceini.o)
 .comment       0x00000000       0x2e /home/z00250609/hybrid/5115_GPL/Hybrid_security_baseline/output/host/usr/arm-unknown-linux-uclibcgnueabi/sysroot/lib/libtr143cms.a(tr143cmsmsgproc.o)
 .comment       0x00000000       0x2e /home/z00250609/hybrid/5115_GPL/Hybrid_security_baseline/output/host/usr/arm-unknown-linux-uclibcgnueabi/sysroot/lib/libclicms.a(clicmsmsgproc.o)
 .comment       0x00000000       0x2e /home/z00250609/hybrid/5115_GPL/Hybrid_security_baseline/output/host/usr/arm-unknown-linux-uclibcgnueabi/sysroot/lib/libcwmpcms.a(cwmpcmsmsgproc.o)
 .comment       0x00000000       0x2e /home/z00250609/hybrid/5115_GPL/Hybrid_security_baseline/output/host/usr/arm-unknown-linux-uclibcgnueabi/sysroot/lib/libcwmpcms.a(cwmpcms.o)
 .comment       0x00000000       0x2e /home/z00250609/hybrid/5115_GPL/Hybrid_security_baseline/output/host/usr/arm-unknown-linux-uclibcgnueabi/sysroot/lib/libippingcms.a(ippingcmsmsgproc.o)
 .comment       0x00000000       0x2e /home/z00250609/hybrid/5115_GPL/Hybrid_security_baseline/output/host/usr/arm-unknown-linux-uclibcgnueabi/sysroot/lib/liblogcms.a(logcms.o)
 .comment       0x00000000       0x2e /home/z00250609/hybrid/5115_GPL/Hybrid_security_baseline/output/host/usr/arm-unknown-linux-uclibcgnueabi/sysroot/lib/liblogcms.a(logcmsinit.o)
 .comment       0x00000000       0x2e /home/z00250609/hybrid/5115_GPL/Hybrid_security_baseline/output/host/usr/arm-unknown-linux-uclibcgnueabi/sysroot/lib/liblogcms.a(logcmsmsgproc.o)
 .comment       0x00000000       0x2e /home/z00250609/hybrid/5115_GPL/Hybrid_security_baseline/output/host/usr/arm-unknown-linux-uclibcgnueabi/sysroot/lib/libportmntcms.a(portmntcms.o)
 .comment       0x00000000       0x2e /home/z00250609/hybrid/5115_GPL/Hybrid_security_baseline/output/host/usr/arm-unknown-linux-uclibcgnueabi/sysroot/lib/libsyscfgcms.a(syscfginit.o)
 .comment       0x00000000       0x2e /home/z00250609/hybrid/5115_GPL/Hybrid_security_baseline/output/host/usr/arm-unknown-linux-uclibcgnueabi/sysroot/lib/libsyscfgcms.a(syscfgcmsmsgproc.o)
 .comment       0x00000000       0x2e /home/z00250609/hybrid/5115_GPL/Hybrid_security_baseline/output/host/usr/arm-unknown-linux-uclibcgnueabi/sysroot/lib/libsyscfgcms.a(syscfgcms.o)
 .comment       0x00000000       0x2e /home/z00250609/hybrid/5115_GPL/Hybrid_security_baseline/output/host/usr/arm-unknown-linux-uclibcgnueabi/sysroot/lib/libsysinfocms.a(sysinfoinit.o)
 .comment       0x00000000       0x2e /home/z00250609/hybrid/5115_GPL/Hybrid_security_baseline/output/host/usr/arm-unknown-linux-uclibcgnueabi/sysroot/lib/libsysinfocms.a(sysinfocmsmsgproc.o)
 .comment       0x00000000       0x2e /home/z00250609/hybrid/5115_GPL/Hybrid_security_baseline/output/host/usr/arm-unknown-linux-uclibcgnueabi/sysroot/lib/libsysinfocms.a(sysinfocms.o)
 .comment       0x00000000       0x2e /home/z00250609/hybrid/5115_GPL/Hybrid_security_baseline/output/host/usr/arm-unknown-linux-uclibcgnueabi/sysroot/lib/libtr111cms.a(tr111cmsmsgproc.o)
 .comment       0x00000000       0x2e /home/z00250609/hybrid/5115_GPL/Hybrid_security_baseline/output/host/usr/arm-unknown-linux-uclibcgnueabi/sysroot/lib/libtr111cms.a(tr111cms.o)
 .comment       0x00000000       0x2e /home/z00250609/hybrid/5115_GPL/Hybrid_security_baseline/output/host/usr/arm-unknown-linux-uclibcgnueabi/sysroot/lib/libtraceroutecms.a(traceroutecmsmsgproc.o)
 .comment       0x00000000       0x2e /home/z00250609/hybrid/5115_GPL/Hybrid_security_baseline/output/host/usr/arm-unknown-linux-uclibcgnueabi/sysroot/lib/libupnpcms.a(upnpcms.o)
 .comment       0x00000000       0x2e /home/z00250609/hybrid/5115_GPL/Hybrid_security_baseline/output/host/usr/arm-unknown-linux-uclibcgnueabi/sysroot/lib/libwebcms.a(webcmsmsgproc.o)
 .comment       0x00000000       0x2e /home/z00250609/hybrid/5115_GPL/Hybrid_security_baseline/output/host/usr/arm-unknown-linux-uclibcgnueabi/sysroot/lib/libalgcms.a(algapi.o)
 .comment       0x00000000       0x2e /home/z00250609/hybrid/5115_GPL/Hybrid_security_baseline/output/host/usr/arm-unknown-linux-uclibcgnueabi/sysroot/lib/libbridgecms.a(bridgecms.o)
 .comment       0x00000000       0x2e /home/z00250609/hybrid/5115_GPL/Hybrid_security_baseline/output/host/usr/arm-unknown-linux-uclibcgnueabi/sysroot/lib/libbridgecms.a(bridgecmsinit.o)
 .comment       0x00000000       0x2e /home/z00250609/hybrid/5115_GPL/Hybrid_security_baseline/output/host/usr/arm-unknown-linux-uclibcgnueabi/sysroot/lib/libbridgecms.a(bridgecmsmsgproc.o)
 .comment       0x00000000       0x2e /home/z00250609/hybrid/5115_GPL/Hybrid_security_baseline/output/host/usr/arm-unknown-linux-uclibcgnueabi/sysroot/lib/libipv6commoncms.a(ipv6commoncms.o)
 .comment       0x00000000       0x2e /home/z00250609/hybrid/5115_GPL/Hybrid_security_baseline/output/host/usr/arm-unknown-linux-uclibcgnueabi/sysroot/lib/libipv6commoncms.a(ipv6commoncmsproc.o)
 .comment       0x00000000       0x2e /home/z00250609/hybrid/5115_GPL/Hybrid_security_baseline/output/host/usr/arm-unknown-linux-uclibcgnueabi/sysroot/lib/libddnscms.a(ddnscms.o)
 .comment       0x00000000       0x2e /home/z00250609/hybrid/5115_GPL/Hybrid_security_baseline/output/host/usr/arm-unknown-linux-uclibcgnueabi/sysroot/lib/libddnscms.a(ddnscmsinit.o)
 .comment       0x00000000       0x2e /home/z00250609/hybrid/5115_GPL/Hybrid_security_baseline/output/host/usr/arm-unknown-linux-uclibcgnueabi/sysroot/lib/libddnscms.a(ddnscmsmsgproc.o)
 .comment       0x00000000       0x2e /home/z00250609/hybrid/5115_GPL/Hybrid_security_baseline/output/host/usr/arm-unknown-linux-uclibcgnueabi/sysroot/lib/libddnscms.a(ddnscmsapi.o)
 .comment       0x00000000       0x2e /home/z00250609/hybrid/5115_GPL/Hybrid_security_baseline/output/host/usr/arm-unknown-linux-uclibcgnueabi/sysroot/lib/libdhcp6ccms.a(dhcp6ccms.o)
 .comment       0x00000000       0x2e /home/z00250609/hybrid/5115_GPL/Hybrid_security_baseline/output/host/usr/arm-unknown-linux-uclibcgnueabi/sysroot/lib/libdhcp6ccms.a(dhcp6ccmsmsgproc.o)
 .comment       0x00000000       0x2e /home/z00250609/hybrid/5115_GPL/Hybrid_security_baseline/output/host/usr/arm-unknown-linux-uclibcgnueabi/sysroot/lib/libdhcp6scms.a(dhcp6scms.o)
 .comment       0x00000000       0x2e /home/z00250609/hybrid/5115_GPL/Hybrid_security_baseline/output/host/usr/arm-unknown-linux-uclibcgnueabi/sysroot/lib/libdhcp6scms.a(dhcp6scmsinit.o)
 .comment       0x00000000       0x2e /home/z00250609/hybrid/5115_GPL/Hybrid_security_baseline/output/host/usr/arm-unknown-linux-uclibcgnueabi/sysroot/lib/libdhcp6scms.a(dhcp6scmsmsgproc.o)
 .comment       0x00000000       0x2e /home/z00250609/hybrid/5115_GPL/Hybrid_security_baseline/output/host/usr/arm-unknown-linux-uclibcgnueabi/sysroot/lib/libdhcp6scms.a(dhcp6scmsapi.o)
 .comment       0x00000000       0x2e /home/z00250609/hybrid/5115_GPL/Hybrid_security_baseline/output/host/usr/arm-unknown-linux-uclibcgnueabi/sysroot/lib/libdhcpccms.a(dhcpccmsmsgproc.o)
 .comment       0x00000000       0x2e /home/z00250609/hybrid/5115_GPL/Hybrid_security_baseline/output/host/usr/arm-unknown-linux-uclibcgnueabi/sysroot/lib/libdhcpccms.a(dhcpccmsinit.o)
 .comment       0x00000000       0x2e /home/z00250609/hybrid/5115_GPL/Hybrid_security_baseline/output/host/usr/arm-unknown-linux-uclibcgnueabi/sysroot/lib/libdhcpccms.a(dhcpccms.o)
 .comment       0x00000000       0x2e /home/z00250609/hybrid/5115_GPL/Hybrid_security_baseline/output/host/usr/arm-unknown-linux-uclibcgnueabi/sysroot/lib/libdhcpscms.a(lanapi.o)
 .comment       0x00000000       0x2e /home/z00250609/hybrid/5115_GPL/Hybrid_security_baseline/output/host/usr/arm-unknown-linux-uclibcgnueabi/sysroot/lib/libdhcpscms.a(lanutil.o)
 .comment       0x00000000       0x2e /home/z00250609/hybrid/5115_GPL/Hybrid_security_baseline/output/host/usr/arm-unknown-linux-uclibcgnueabi/sysroot/lib/libdhcpscms.a(dhcpscmsinit.o)
 .comment       0x00000000       0x2e /home/z00250609/hybrid/5115_GPL/Hybrid_security_baseline/output/host/usr/arm-unknown-linux-uclibcgnueabi/sysroot/lib/libdhcpscms.a(dhcpscmsnotifymngr.o)
 .comment       0x00000000       0x2e /home/z00250609/hybrid/5115_GPL/Hybrid_security_baseline/output/host/usr/arm-unknown-linux-uclibcgnueabi/sysroot/lib/libdhcpscms.a(dhcpscmsmsgproc.o)
 .comment       0x00000000       0x2e /home/z00250609/hybrid/5115_GPL/Hybrid_security_baseline/output/host/usr/arm-unknown-linux-uclibcgnueabi/sysroot/lib/libdhcpscms.a(dhcpscms.o)
 .comment       0x00000000       0x2e /home/z00250609/hybrid/5115_GPL/Hybrid_security_baseline/output/host/usr/arm-unknown-linux-uclibcgnueabi/sysroot/lib/libdnscms.a(dnscmsinit.o)
 .comment       0x00000000       0x2e /home/z00250609/hybrid/5115_GPL/Hybrid_security_baseline/output/host/usr/arm-unknown-linux-uclibcgnueabi/sysroot/lib/libdnscms.a(dnscms.o)
 .comment       0x00000000       0x2e /home/z00250609/hybrid/5115_GPL/Hybrid_security_baseline/output/host/usr/arm-unknown-linux-uclibcgnueabi/sysroot/lib/liblanethcms.a(ethcms.o)
 .comment       0x00000000       0x2e /home/z00250609/hybrid/5115_GPL/Hybrid_security_baseline/output/host/usr/arm-unknown-linux-uclibcgnueabi/sysroot/lib/liblanethcms.a(ethapi.o)
 .comment       0x00000000       0x2e /home/z00250609/hybrid/5115_GPL/Hybrid_security_baseline/output/host/usr/arm-unknown-linux-uclibcgnueabi/sysroot/lib/libwanethcms.a(wecms.o)
 .comment       0x00000000       0x2e /home/z00250609/hybrid/5115_GPL/Hybrid_security_baseline/output/host/usr/arm-unknown-linux-uclibcgnueabi/sysroot/lib/libwanethcms.a(wecmsinit.o)
 .comment       0x00000000       0x2e /home/z00250609/hybrid/5115_GPL/Hybrid_security_baseline/output/host/usr/arm-unknown-linux-uclibcgnueabi/sysroot/lib/libwanethcms.a(wecmsmsgproc.o)
 .comment       0x00000000       0x2e /home/z00250609/hybrid/5115_GPL/Hybrid_security_baseline/output/host/usr/arm-unknown-linux-uclibcgnueabi/sysroot/lib/libfirewallcms.a(firewallapi.o)
 .comment       0x00000000       0x2e /home/z00250609/hybrid/5115_GPL/Hybrid_security_baseline/output/host/usr/arm-unknown-linux-uclibcgnueabi/sysroot/lib/libfirewallcms.a(firewallcmsmsgproc.o)
 .comment       0x00000000       0x2e /home/z00250609/hybrid/5115_GPL/Hybrid_security_baseline/output/host/usr/arm-unknown-linux-uclibcgnueabi/sysroot/lib/libfirewallcms.a(firewallutil.o)
 .comment       0x00000000       0x2e /home/z00250609/hybrid/5115_GPL/Hybrid_security_baseline/output/host/usr/arm-unknown-linux-uclibcgnueabi/sysroot/lib/libfirewallcms.a(firewallconfig.o)
 .comment       0x00000000       0x2e /home/z00250609/hybrid/5115_GPL/Hybrid_security_baseline/output/host/usr/arm-unknown-linux-uclibcgnueabi/sysroot/lib/libfirewallcms.a(firewallservice.o)
 .comment       0x00000000       0x2e /home/z00250609/hybrid/5115_GPL/Hybrid_security_baseline/output/host/usr/arm-unknown-linux-uclibcgnueabi/sysroot/lib/libfirewallcms.a(firewalllist.o)
 .comment       0x00000000       0x2e /home/z00250609/hybrid/5115_GPL/Hybrid_security_baseline/output/host/usr/arm-unknown-linux-uclibcgnueabi/sysroot/lib/libfirewallcms.a(macflt.o)
 .comment       0x00000000       0x2e /home/z00250609/hybrid/5115_GPL/Hybrid_security_baseline/output/host/usr/arm-unknown-linux-uclibcgnueabi/sysroot/lib/libfirewallcms.a(urlflt.o)
 .comment       0x00000000       0x2e /home/z00250609/hybrid/5115_GPL/Hybrid_security_baseline/output/host/usr/arm-unknown-linux-uclibcgnueabi/sysroot/lib/libfirewallcms.a(ipflt.o)
 .comment       0x00000000       0x2e /home/z00250609/hybrid/5115_GPL/Hybrid_security_baseline/output/host/usr/arm-unknown-linux-uclibcgnueabi/sysroot/lib/libfirewallcms.a(appflt.o)
 .comment       0x00000000       0x2e /home/z00250609/hybrid/5115_GPL/Hybrid_security_baseline/output/host/usr/arm-unknown-linux-uclibcgnueabi/sysroot/lib/libfirewallcms.a(dosattack.o)
 .comment       0x00000000       0x2e /home/z00250609/hybrid/5115_GPL/Hybrid_security_baseline/output/host/usr/arm-unknown-linux-uclibcgnueabi/sysroot/lib/libfirewallcms.a(acl.o)
 .comment       0x00000000       0x2e /home/z00250609/hybrid/5115_GPL/Hybrid_security_baseline/output/host/usr/arm-unknown-linux-uclibcgnueabi/sysroot/lib/libfirewallcms.a(aclex.o)
 .comment       0x00000000       0x2e /home/z00250609/hybrid/5115_GPL/Hybrid_security_baseline/output/host/usr/arm-unknown-linux-uclibcgnueabi/sysroot/lib/libipcheckcms.a(ipcheckcms.o)
 .comment       0x00000000       0x2e /home/z00250609/hybrid/5115_GPL/Hybrid_security_baseline/output/host/usr/arm-unknown-linux-uclibcgnueabi/sysroot/lib/libipcheckcms.a(ipcheckcmsinit.o)
 .comment       0x00000000       0x2e /home/z00250609/hybrid/5115_GPL/Hybrid_security_baseline/output/host/usr/arm-unknown-linux-uclibcgnueabi/sysroot/lib/libipcheckcms.a(ipcheckcmsmsgproc.o)
 .comment       0x00000000       0x2e /home/z00250609/hybrid/5115_GPL/Hybrid_security_baseline/output/host/usr/arm-unknown-linux-uclibcgnueabi/sysroot/lib/libiptunnelcms.a(iptunnelcmsinit.o)
 .comment       0x00000000       0x2e /home/z00250609/hybrid/5115_GPL/Hybrid_security_baseline/output/host/usr/arm-unknown-linux-uclibcgnueabi/sysroot/lib/libiptunnelcms.a(iptunnelcmsapi.o)
 .comment       0x00000000       0x2e /home/z00250609/hybrid/5115_GPL/Hybrid_security_baseline/output/host/usr/arm-unknown-linux-uclibcgnueabi/sysroot/lib/libiptunnelcms.a(iptunnelcms.o)
 .comment       0x00000000       0x2e /home/z00250609/hybrid/5115_GPL/Hybrid_security_baseline/output/host/usr/arm-unknown-linux-uclibcgnueabi/sysroot/lib/libiptunnelcms.a(tunnel6rd.o)
 .comment       0x00000000       0x2e /home/z00250609/hybrid/5115_GPL/Hybrid_security_baseline/output/host/usr/arm-unknown-linux-uclibcgnueabi/sysroot/lib/libiptunnelcms.a(tunneldslite.o)
 .comment       0x00000000       0x2e /home/z00250609/hybrid/5115_GPL/Hybrid_security_baseline/output/host/usr/arm-unknown-linux-uclibcgnueabi/sysroot/lib/liblannamecms.a(lannamecms.o)
 .comment       0x00000000       0x2e /home/z00250609/hybrid/5115_GPL/Hybrid_security_baseline/output/host/usr/arm-unknown-linux-uclibcgnueabi/sysroot/lib/liblannamecms.a(lannamecmsmsgproc.o)
 .comment       0x00000000       0x2e /home/z00250609/hybrid/5115_GPL/Hybrid_security_baseline/output/host/usr/arm-unknown-linux-uclibcgnueabi/sysroot/lib/libmldcms.a(mldcms.o)
 .comment       0x00000000       0x2e /home/z00250609/hybrid/5115_GPL/Hybrid_security_baseline/output/host/usr/arm-unknown-linux-uclibcgnueabi/sysroot/lib/libmldcms.a(mldcmsmsgproc.o)
 .comment       0x00000000       0x2e /home/z00250609/hybrid/5115_GPL/Hybrid_security_baseline/output/host/usr/arm-unknown-linux-uclibcgnueabi/sysroot/lib/libnatcms.a(natcmsmsgproc.o)
 .comment       0x00000000       0x2e /home/z00250609/hybrid/5115_GPL/Hybrid_security_baseline/output/host/usr/arm-unknown-linux-uclibcgnueabi/sysroot/lib/libnatcms.a(natcmsinit.o)
 .comment       0x00000000       0x2e /home/z00250609/hybrid/5115_GPL/Hybrid_security_baseline/output/host/usr/arm-unknown-linux-uclibcgnueabi/sysroot/lib/libnatcms.a(natcms.o)
 .comment       0x00000000       0x2e /home/z00250609/hybrid/5115_GPL/Hybrid_security_baseline/output/host/usr/arm-unknown-linux-uclibcgnueabi/sysroot/lib/libnatcms.a(natutil.o)
 .comment       0x00000000       0x2e /home/z00250609/hybrid/5115_GPL/Hybrid_security_baseline/output/host/usr/arm-unknown-linux-uclibcgnueabi/sysroot/lib/libnatcms.a(natdmz.o)
 .comment       0x00000000       0x2e /home/z00250609/hybrid/5115_GPL/Hybrid_security_baseline/output/host/usr/arm-unknown-linux-uclibcgnueabi/sysroot/lib/libnatcms.a(natportmap.o)
 .comment       0x00000000       0x2e /home/z00250609/hybrid/5115_GPL/Hybrid_security_baseline/output/host/usr/arm-unknown-linux-uclibcgnueabi/sysroot/lib/libnatcms.a(prttrgapi.o)
 .comment       0x00000000       0x2e /home/z00250609/hybrid/5115_GPL/Hybrid_security_baseline/output/host/usr/arm-unknown-linux-uclibcgnueabi/sysroot/lib/libnatcms.a(prttrgutil.o)
 .comment       0x00000000       0x2e /home/z00250609/hybrid/5115_GPL/Hybrid_security_baseline/output/host/usr/arm-unknown-linux-uclibcgnueabi/sysroot/lib/libnatcms.a(natconenat.o)
 .comment       0x00000000       0x2e /home/z00250609/hybrid/5115_GPL/Hybrid_security_baseline/output/host/usr/arm-unknown-linux-uclibcgnueabi/sysroot/lib/libndiscms.a(wdsapi.o)
 .comment       0x00000000       0x2e /home/z00250609/hybrid/5115_GPL/Hybrid_security_baseline/output/host/usr/arm-unknown-linux-uclibcgnueabi/sysroot/lib/libpppccms.a(pppcapi.o)
 .comment       0x00000000       0x2e /home/z00250609/hybrid/5115_GPL/Hybrid_security_baseline/output/host/usr/arm-unknown-linux-uclibcgnueabi/sysroot/lib/libradvdcms.a(radvdcms.o)
 .comment       0x00000000       0x2e /home/z00250609/hybrid/5115_GPL/Hybrid_security_baseline/output/host/usr/arm-unknown-linux-uclibcgnueabi/sysroot/lib/libradvdcms.a(radvdcmsinit.o)
 .comment       0x00000000       0x2e /home/z00250609/hybrid/5115_GPL/Hybrid_security_baseline/output/host/usr/arm-unknown-linux-uclibcgnueabi/sysroot/lib/libradvdcms.a(radvdcmsmsgproc.o)
 .comment       0x00000000       0x2e /home/z00250609/hybrid/5115_GPL/Hybrid_security_baseline/output/host/usr/arm-unknown-linux-uclibcgnueabi/sysroot/lib/libradvdcms.a(radvdcmsapi.o)
 .comment       0x00000000       0x2e /home/z00250609/hybrid/5115_GPL/Hybrid_security_baseline/output/host/usr/arm-unknown-linux-uclibcgnueabi/sysroot/lib/libroute6cms.a(route6cms.o)
 .comment       0x00000000       0x2e /home/z00250609/hybrid/5115_GPL/Hybrid_security_baseline/output/host/usr/arm-unknown-linux-uclibcgnueabi/sysroot/lib/libroute6cms.a(route6cmsinit.o)
 .comment       0x00000000       0x2e /home/z00250609/hybrid/5115_GPL/Hybrid_security_baseline/output/host/usr/arm-unknown-linux-uclibcgnueabi/sysroot/lib/libroute6cms.a(route6cmsmsgproc.o)
 .comment       0x00000000       0x2e /home/z00250609/hybrid/5115_GPL/Hybrid_security_baseline/output/host/usr/arm-unknown-linux-uclibcgnueabi/sysroot/lib/libroute6cms.a(route6cmsapi.o)
 .comment       0x00000000       0x2e /home/z00250609/hybrid/5115_GPL/Hybrid_security_baseline/output/host/usr/arm-unknown-linux-uclibcgnueabi/sysroot/lib/libroutecms.a(routecmsmsgproc.o)
 .comment       0x00000000       0x2e /home/z00250609/hybrid/5115_GPL/Hybrid_security_baseline/output/host/usr/arm-unknown-linux-uclibcgnueabi/sysroot/lib/libroutecms.a(routecmsinit.o)
 .comment       0x00000000       0x2e /home/z00250609/hybrid/5115_GPL/Hybrid_security_baseline/output/host/usr/arm-unknown-linux-uclibcgnueabi/sysroot/lib/libroutecms.a(routecms.o)
 .comment       0x00000000       0x2e /home/z00250609/hybrid/5115_GPL/Hybrid_security_baseline/output/host/usr/arm-unknown-linux-uclibcgnueabi/sysroot/lib/libroutecms.a(routedft.o)
 .comment       0x00000000       0x2e /home/z00250609/hybrid/5115_GPL/Hybrid_security_baseline/output/host/usr/arm-unknown-linux-uclibcgnueabi/sysroot/lib/libroutecms.a(routestatic.o)
 .comment       0x00000000       0x2e /home/z00250609/hybrid/5115_GPL/Hybrid_security_baseline/output/host/usr/arm-unknown-linux-uclibcgnueabi/sysroot/lib/libroutecms.a(routelist.o)
 .comment       0x00000000       0x2e /home/z00250609/hybrid/5115_GPL/Hybrid_security_baseline/output/host/usr/arm-unknown-linux-uclibcgnueabi/sysroot/lib/libroutecms.a(rip.o)
 .comment       0x00000000       0x2e /home/z00250609/hybrid/5115_GPL/Hybrid_security_baseline/output/host/usr/arm-unknown-linux-uclibcgnueabi/sysroot/lib/libroutecms.a(riplist.o)
 .comment       0x00000000       0x2e /home/z00250609/hybrid/5115_GPL/Hybrid_security_baseline/output/host/usr/arm-unknown-linux-uclibcgnueabi/sysroot/lib/libsntpcms.a(sntpcms.o)
 .comment       0x00000000       0x2e /home/z00250609/hybrid/5115_GPL/Hybrid_security_baseline/output/host/usr/arm-unknown-linux-uclibcgnueabi/sysroot/lib/libsntpcms.a(sntpcmsposixtime.o)
 .comment       0x00000000       0x2e /home/z00250609/hybrid/5115_GPL/Hybrid_security_baseline/output/host/usr/arm-unknown-linux-uclibcgnueabi/sysroot/lib/libsntpcms.a(sntpcmsmsgproc.o)
 .comment       0x00000000       0x2e /home/z00250609/hybrid/5115_GPL/Hybrid_security_baseline/output/host/usr/arm-unknown-linux-uclibcgnueabi/sysroot/lib/libwancms.a(wancmsmsgproc.o)
 .comment       0x00000000       0x2e /home/z00250609/hybrid/5115_GPL/Hybrid_security_baseline/output/host/usr/arm-unknown-linux-uclibcgnueabi/sysroot/lib/libwancms.a(wancmsinit.o)
 .comment       0x00000000       0x2e /home/z00250609/hybrid/5115_GPL/Hybrid_security_baseline/output/host/usr/arm-unknown-linux-uclibcgnueabi/sysroot/lib/libwancms.a(wancms.o)
 .comment       0x00000000       0x2e /home/z00250609/hybrid/5115_GPL/Hybrid_security_baseline/output/host/usr/arm-unknown-linux-uclibcgnueabi/sysroot/lib/libwancms.a(wancmsutil.o)
 .comment       0x00000000       0x2e /home/z00250609/hybrid/5115_GPL/Hybrid_security_baseline/output/host/usr/arm-unknown-linux-uclibcgnueabi/sysroot/lib/libwancms.a(wancmshookproc.o)
 .comment       0x00000000       0x2e /home/z00250609/hybrid/5115_GPL/Hybrid_security_baseline/output/host/usr/arm-unknown-linux-uclibcgnueabi/sysroot/lib/libwancms.a(wancmscall.o)
 .comment       0x00000000       0x2e /home/z00250609/hybrid/5115_GPL/Hybrid_security_baseline/output/host/usr/arm-unknown-linux-uclibcgnueabi/sysroot/lib/libwancms.a(wancmsget.o)
 .comment       0x00000000       0x2e /home/z00250609/hybrid/5115_GPL/Hybrid_security_baseline/output/host/usr/arm-unknown-linux-uclibcgnueabi/sysroot/lib/libwancorecms.a(wancorecms.o)
 .comment       0x00000000       0x2e /home/z00250609/hybrid/5115_GPL/Hybrid_security_baseline/output/host/usr/arm-unknown-linux-uclibcgnueabi/sysroot/lib/libwanumtscms.a(wucms.o)
 .comment       0x00000000       0x2e /home/z00250609/hybrid/5115_GPL/Hybrid_security_baseline/output/host/usr/arm-unknown-linux-uclibcgnueabi/sysroot/lib/libwanumtscms.a(wucmsinit.o)
 .comment       0x00000000       0x2e /home/z00250609/hybrid/5115_GPL/Hybrid_security_baseline/output/host/usr/arm-unknown-linux-uclibcgnueabi/sysroot/lib/libwanumtscms.a(wucmsmsgproc.o)
 .comment       0x00000000       0x2e /home/z00250609/hybrid/5115_GPL/Hybrid_security_baseline/output/host/usr/arm-unknown-linux-uclibcgnueabi/sysroot/lib/libwanumtscms.a(wuprofile.o)
 .comment       0x00000000       0x2e /home/z00250609/hybrid/5115_GPL/Hybrid_security_baseline/output/host/usr/arm-unknown-linux-uclibcgnueabi/sysroot/lib/libwanvlancms.a(wanvlancmsmsgproc.o)
 .comment       0x00000000       0x2e /home/z00250609/hybrid/5115_GPL/Hybrid_security_baseline/output/host/usr/arm-unknown-linux-uclibcgnueabi/sysroot/lib/libwanvlancms.a(wanvlancmsinit.o)
 .comment       0x00000000       0x2e /home/z00250609/hybrid/5115_GPL/Hybrid_security_baseline/output/host/usr/arm-unknown-linux-uclibcgnueabi/sysroot/lib/libwanvlancms.a(wanvlancms.o)
 .comment       0x00000000       0x2e /opt/toolchain_hisi/arm-hsan-linux-uclibcgnueabi/bin/../lib/gcc/arm-hsan-linux-uclibcgnueabi/4.4.6/crtend.o
 .comment       0x00000000       0x2f /home/z00250609/hybrid/5115_GPL/Hybrid_security_baseline/output/host/usr/arm-unknown-linux-uclibcgnueabi/sysroot/usr/lib/crtn.o

.ARM.attributes
                0x00000000       0x2d
 .ARM.attributes
                0x00000000       0x16 /home/z00250609/hybrid/5115_GPL/Hybrid_security_baseline/output/host/usr/arm-unknown-linux-uclibcgnueabi/sysroot/usr/lib/crt1.o
 .ARM.attributes
                0x00000016       0x18 /home/z00250609/hybrid/5115_GPL/Hybrid_security_baseline/output/host/usr/arm-unknown-linux-uclibcgnueabi/sysroot/usr/lib/crti.o
 .ARM.attributes
                0x0000002e       0x32 /opt/toolchain_hisi/arm-hsan-linux-uclibcgnueabi/bin/../lib/gcc/arm-hsan-linux-uclibcgnueabi/4.4.6/crtbegin.o
 .ARM.attributes
                0x00000060       0x32 /home/z00250609/hybrid/5115_GPL/Hybrid_security_baseline/output/package/atp/configuration/cmsmain/management.o
 .ARM.attributes
                0x00000092       0x32 /home/z00250609/hybrid/5115_GPL/Hybrid_security_baseline/output/package/atp/configuration/cmsmain/cmsmonitor.o
 .ARM.attributes
                0x000000c4       0x32 /home/z00250609/hybrid/5115_GPL/Hybrid_security_baseline/output/package/atp/configuration/cmsmain/cmsinit.o
 .ARM.attributes
                0x000000f6       0x32 /home/z00250609/hybrid/5115_GPL/Hybrid_security_baseline/output/host/usr/arm-unknown-linux-uclibcgnueabi/sysroot/lib/libcmscore.a(cmsmsgproc.o)
 .ARM.attributes
                0x00000128       0x32 /home/z00250609/hybrid/5115_GPL/Hybrid_security_baseline/output/host/usr/arm-unknown-linux-uclibcgnueabi/sysroot/lib/libcmscore.a(cmsutil.o)
 .ARM.attributes
                0x0000015a       0x32 /home/z00250609/hybrid/5115_GPL/Hybrid_security_baseline/output/host/usr/arm-unknown-linux-uclibcgnueabi/sysroot/lib/libcmscore.a(cmsinitapi.o)
 .ARM.attributes
                0x0000018c       0x32 /home/z00250609/hybrid/5115_GPL/Hybrid_security_baseline/output/host/usr/arm-unknown-linux-uclibcgnueabi/sysroot/lib/libcmscore.a(cmssigqueue.o)
 .ARM.attributes
                0x000001be       0x32 /home/z00250609/hybrid/5115_GPL/Hybrid_security_baseline/output/host/usr/arm-unknown-linux-uclibcgnueabi/sysroot/lib/libledservicecms.a(ledserviceini.o)
 .ARM.attributes
                0x000001f0       0x32 /home/z00250609/hybrid/5115_GPL/Hybrid_security_baseline/output/host/usr/arm-unknown-linux-uclibcgnueabi/sysroot/lib/libtr143cms.a(tr143cmsmsgproc.o)
 .ARM.attributes
                0x00000222       0x32 /home/z00250609/hybrid/5115_GPL/Hybrid_security_baseline/output/host/usr/arm-unknown-linux-uclibcgnueabi/sysroot/lib/libclicms.a(clicmsmsgproc.o)
 .ARM.attributes
                0x00000254       0x32 /home/z00250609/hybrid/5115_GPL/Hybrid_security_baseline/output/host/usr/arm-unknown-linux-uclibcgnueabi/sysroot/lib/libcwmpcms.a(cwmpcmsmsgproc.o)
 .ARM.attributes
                0x00000286       0x32 /home/z00250609/hybrid/5115_GPL/Hybrid_security_baseline/output/host/usr/arm-unknown-linux-uclibcgnueabi/sysroot/lib/libcwmpcms.a(cwmpcms.o)
 .ARM.attributes
                0x000002b8       0x32 /home/z00250609/hybrid/5115_GPL/Hybrid_security_baseline/output/host/usr/arm-unknown-linux-uclibcgnueabi/sysroot/lib/libippingcms.a(ippingcmsmsgproc.o)
 .ARM.attributes
                0x000002ea       0x32 /home/z00250609/hybrid/5115_GPL/Hybrid_security_baseline/output/host/usr/arm-unknown-linux-uclibcgnueabi/sysroot/lib/liblogcms.a(logcms.o)
 .ARM.attributes
                0x0000031c       0x32 /home/z00250609/hybrid/5115_GPL/Hybrid_security_baseline/output/host/usr/arm-unknown-linux-uclibcgnueabi/sysroot/lib/liblogcms.a(logcmsinit.o)
 .ARM.attributes
                0x0000034e       0x32 /home/z00250609/hybrid/5115_GPL/Hybrid_security_baseline/output/host/usr/arm-unknown-linux-uclibcgnueabi/sysroot/lib/liblogcms.a(logcmsmsgproc.o)
 .ARM.attributes
                0x00000380       0x32 /home/z00250609/hybrid/5115_GPL/Hybrid_security_baseline/output/host/usr/arm-unknown-linux-uclibcgnueabi/sysroot/lib/libportmntcms.a(portmntcms.o)
 .ARM.attributes
                0x000003b2       0x32 /home/z00250609/hybrid/5115_GPL/Hybrid_security_baseline/output/host/usr/arm-unknown-linux-uclibcgnueabi/sysroot/lib/libsyscfgcms.a(syscfginit.o)
 .ARM.attributes
                0x000003e4       0x32 /home/z00250609/hybrid/5115_GPL/Hybrid_security_baseline/output/host/usr/arm-unknown-linux-uclibcgnueabi/sysroot/lib/libsyscfgcms.a(syscfgcmsmsgproc.o)
 .ARM.attributes
                0x00000416       0x32 /home/z00250609/hybrid/5115_GPL/Hybrid_security_baseline/output/host/usr/arm-unknown-linux-uclibcgnueabi/sysroot/lib/libsyscfgcms.a(syscfgcms.o)
 .ARM.attributes
                0x00000448       0x32 /home/z00250609/hybrid/5115_GPL/Hybrid_security_baseline/output/host/usr/arm-unknown-linux-uclibcgnueabi/sysroot/lib/libsysinfocms.a(sysinfoinit.o)
 .ARM.attributes
                0x0000047a       0x32 /home/z00250609/hybrid/5115_GPL/Hybrid_security_baseline/output/host/usr/arm-unknown-linux-uclibcgnueabi/sysroot/lib/libsysinfocms.a(sysinfocmsmsgproc.o)
 .ARM.attributes
                0x000004ac       0x32 /home/z00250609/hybrid/5115_GPL/Hybrid_security_baseline/output/host/usr/arm-unknown-linux-uclibcgnueabi/sysroot/lib/libsysinfocms.a(sysinfocms.o)
 .ARM.attributes
                0x000004de       0x32 /home/z00250609/hybrid/5115_GPL/Hybrid_security_baseline/output/host/usr/arm-unknown-linux-uclibcgnueabi/sysroot/lib/libtr111cms.a(tr111cmsmsgproc.o)
 .ARM.attributes
                0x00000510       0x32 /home/z00250609/hybrid/5115_GPL/Hybrid_security_baseline/output/host/usr/arm-unknown-linux-uclibcgnueabi/sysroot/lib/libtr111cms.a(tr111cms.o)
 .ARM.attributes
                0x00000542       0x32 /home/z00250609/hybrid/5115_GPL/Hybrid_security_baseline/output/host/usr/arm-unknown-linux-uclibcgnueabi/sysroot/lib/libtraceroutecms.a(traceroutecmsmsgproc.o)
 .ARM.attributes
                0x00000574       0x32 /home/z00250609/hybrid/5115_GPL/Hybrid_security_baseline/output/host/usr/arm-unknown-linux-uclibcgnueabi/sysroot/lib/libupnpcms.a(upnpcms.o)
 .ARM.attributes
                0x000005a6       0x32 /home/z00250609/hybrid/5115_GPL/Hybrid_security_baseline/output/host/usr/arm-unknown-linux-uclibcgnueabi/sysroot/lib/libwebcms.a(webcmsmsgproc.o)
 .ARM.attributes
                0x000005d8       0x32 /home/z00250609/hybrid/5115_GPL/Hybrid_security_baseline/output/host/usr/arm-unknown-linux-uclibcgnueabi/sysroot/lib/libalgcms.a(algapi.o)
 .ARM.attributes
                0x0000060a       0x32 /home/z00250609/hybrid/5115_GPL/Hybrid_security_baseline/output/host/usr/arm-unknown-linux-uclibcgnueabi/sysroot/lib/libbridgecms.a(bridgecms.o)
 .ARM.attributes
                0x0000063c       0x32 /home/z00250609/hybrid/5115_GPL/Hybrid_security_baseline/output/host/usr/arm-unknown-linux-uclibcgnueabi/sysroot/lib/libbridgecms.a(bridgecmsinit.o)
 .ARM.attributes
                0x0000066e       0x32 /home/z00250609/hybrid/5115_GPL/Hybrid_security_baseline/output/host/usr/arm-unknown-linux-uclibcgnueabi/sysroot/lib/libbridgecms.a(bridgecmsmsgproc.o)
 .ARM.attributes
                0x000006a0       0x32 /home/z00250609/hybrid/5115_GPL/Hybrid_security_baseline/output/host/usr/arm-unknown-linux-uclibcgnueabi/sysroot/lib/libipv6commoncms.a(ipv6commoncms.o)
 .ARM.attributes
                0x000006d2       0x32 /home/z00250609/hybrid/5115_GPL/Hybrid_security_baseline/output/host/usr/arm-unknown-linux-uclibcgnueabi/sysroot/lib/libipv6commoncms.a(ipv6commoncmsproc.o)
 .ARM.attributes
                0x00000704       0x32 /home/z00250609/hybrid/5115_GPL/Hybrid_security_baseline/output/host/usr/arm-unknown-linux-uclibcgnueabi/sysroot/lib/libddnscms.a(ddnscms.o)
 .ARM.attributes
                0x00000736       0x32 /home/z00250609/hybrid/5115_GPL/Hybrid_security_baseline/output/host/usr/arm-unknown-linux-uclibcgnueabi/sysroot/lib/libddnscms.a(ddnscmsinit.o)
 .ARM.attributes
                0x00000768       0x32 /home/z00250609/hybrid/5115_GPL/Hybrid_security_baseline/output/host/usr/arm-unknown-linux-uclibcgnueabi/sysroot/lib/libddnscms.a(ddnscmsmsgproc.o)
 .ARM.attributes
                0x0000079a       0x32 /home/z00250609/hybrid/5115_GPL/Hybrid_security_baseline/output/host/usr/arm-unknown-linux-uclibcgnueabi/sysroot/lib/libddnscms.a(ddnscmsapi.o)
 .ARM.attributes
                0x000007cc       0x32 /home/z00250609/hybrid/5115_GPL/Hybrid_security_baseline/output/host/usr/arm-unknown-linux-uclibcgnueabi/sysroot/lib/libdhcp6ccms.a(dhcp6ccms.o)
 .ARM.attributes
                0x000007fe       0x32 /home/z00250609/hybrid/5115_GPL/Hybrid_security_baseline/output/host/usr/arm-unknown-linux-uclibcgnueabi/sysroot/lib/libdhcp6ccms.a(dhcp6ccmsmsgproc.o)
 .ARM.attributes
                0x00000830       0x32 /home/z00250609/hybrid/5115_GPL/Hybrid_security_baseline/output/host/usr/arm-unknown-linux-uclibcgnueabi/sysroot/lib/libdhcp6scms.a(dhcp6scms.o)
 .ARM.attributes
                0x00000862       0x32 /home/z00250609/hybrid/5115_GPL/Hybrid_security_baseline/output/host/usr/arm-unknown-linux-uclibcgnueabi/sysroot/lib/libdhcp6scms.a(dhcp6scmsinit.o)
 .ARM.attributes
                0x00000894       0x32 /home/z00250609/hybrid/5115_GPL/Hybrid_security_baseline/output/host/usr/arm-unknown-linux-uclibcgnueabi/sysroot/lib/libdhcp6scms.a(dhcp6scmsmsgproc.o)
 .ARM.attributes
                0x000008c6       0x32 /home/z00250609/hybrid/5115_GPL/Hybrid_security_baseline/output/host/usr/arm-unknown-linux-uclibcgnueabi/sysroot/lib/libdhcp6scms.a(dhcp6scmsapi.o)
 .ARM.attributes
                0x000008f8       0x32 /home/z00250609/hybrid/5115_GPL/Hybrid_security_baseline/output/host/usr/arm-unknown-linux-uclibcgnueabi/sysroot/lib/libdhcpccms.a(dhcpccmsmsgproc.o)
 .ARM.attributes
                0x0000092a       0x32 /home/z00250609/hybrid/5115_GPL/Hybrid_security_baseline/output/host/usr/arm-unknown-linux-uclibcgnueabi/sysroot/lib/libdhcpccms.a(dhcpccmsinit.o)
 .ARM.attributes
                0x0000095c       0x32 /home/z00250609/hybrid/5115_GPL/Hybrid_security_baseline/output/host/usr/arm-unknown-linux-uclibcgnueabi/sysroot/lib/libdhcpccms.a(dhcpccms.o)
 .ARM.attributes
                0x0000098e       0x32 /home/z00250609/hybrid/5115_GPL/Hybrid_security_baseline/output/host/usr/arm-unknown-linux-uclibcgnueabi/sysroot/lib/libdhcpscms.a(lanapi.o)
 .ARM.attributes
                0x000009c0       0x32 /home/z00250609/hybrid/5115_GPL/Hybrid_security_baseline/output/host/usr/arm-unknown-linux-uclibcgnueabi/sysroot/lib/libdhcpscms.a(lanutil.o)
 .ARM.attributes
                0x000009f2       0x32 /home/z00250609/hybrid/5115_GPL/Hybrid_security_baseline/output/host/usr/arm-unknown-linux-uclibcgnueabi/sysroot/lib/libdhcpscms.a(dhcpscmsinit.o)
 .ARM.attributes
                0x00000a24       0x32 /home/z00250609/hybrid/5115_GPL/Hybrid_security_baseline/output/host/usr/arm-unknown-linux-uclibcgnueabi/sysroot/lib/libdhcpscms.a(dhcpscmsnotifymngr.o)
 .ARM.attributes
                0x00000a56       0x32 /home/z00250609/hybrid/5115_GPL/Hybrid_security_baseline/output/host/usr/arm-unknown-linux-uclibcgnueabi/sysroot/lib/libdhcpscms.a(dhcpscmsmsgproc.o)
 .ARM.attributes
                0x00000a88       0x32 /home/z00250609/hybrid/5115_GPL/Hybrid_security_baseline/output/host/usr/arm-unknown-linux-uclibcgnueabi/sysroot/lib/libdhcpscms.a(dhcpscms.o)
 .ARM.attributes
                0x00000aba       0x32 /home/z00250609/hybrid/5115_GPL/Hybrid_security_baseline/output/host/usr/arm-unknown-linux-uclibcgnueabi/sysroot/lib/libdnscms.a(dnscmsinit.o)
 .ARM.attributes
                0x00000aec       0x32 /home/z00250609/hybrid/5115_GPL/Hybrid_security_baseline/output/host/usr/arm-unknown-linux-uclibcgnueabi/sysroot/lib/libdnscms.a(dnscms.o)
 .ARM.attributes
                0x00000b1e       0x32 /home/z00250609/hybrid/5115_GPL/Hybrid_security_baseline/output/host/usr/arm-unknown-linux-uclibcgnueabi/sysroot/lib/liblanethcms.a(ethcms.o)
 .ARM.attributes
                0x00000b50       0x32 /home/z00250609/hybrid/5115_GPL/Hybrid_security_baseline/output/host/usr/arm-unknown-linux-uclibcgnueabi/sysroot/lib/liblanethcms.a(ethapi.o)
 .ARM.attributes
                0x00000b82       0x32 /home/z00250609/hybrid/5115_GPL/Hybrid_security_baseline/output/host/usr/arm-unknown-linux-uclibcgnueabi/sysroot/lib/libwanethcms.a(wecms.o)
 .ARM.attributes
                0x00000bb4       0x32 /home/z00250609/hybrid/5115_GPL/Hybrid_security_baseline/output/host/usr/arm-unknown-linux-uclibcgnueabi/sysroot/lib/libwanethcms.a(wecmsinit.o)
 .ARM.attributes
                0x00000be6       0x32 /home/z00250609/hybrid/5115_GPL/Hybrid_security_baseline/output/host/usr/arm-unknown-linux-uclibcgnueabi/sysroot/lib/libwanethcms.a(wecmsmsgproc.o)
 .ARM.attributes
                0x00000c18       0x32 /home/z00250609/hybrid/5115_GPL/Hybrid_security_baseline/output/host/usr/arm-unknown-linux-uclibcgnueabi/sysroot/lib/libfirewallcms.a(firewallapi.o)
 .ARM.attributes
                0x00000c4a       0x32 /home/z00250609/hybrid/5115_GPL/Hybrid_security_baseline/output/host/usr/arm-unknown-linux-uclibcgnueabi/sysroot/lib/libfirewallcms.a(firewallcmsmsgproc.o)
 .ARM.attributes
                0x00000c7c       0x32 /home/z00250609/hybrid/5115_GPL/Hybrid_security_baseline/output/host/usr/arm-unknown-linux-uclibcgnueabi/sysroot/lib/libfirewallcms.a(firewallutil.o)
 .ARM.attributes
                0x00000cae       0x32 /home/z00250609/hybrid/5115_GPL/Hybrid_security_baseline/output/host/usr/arm-unknown-linux-uclibcgnueabi/sysroot/lib/libfirewallcms.a(firewallconfig.o)
 .ARM.attributes
                0x00000ce0       0x32 /home/z00250609/hybrid/5115_GPL/Hybrid_security_baseline/output/host/usr/arm-unknown-linux-uclibcgnueabi/sysroot/lib/libfirewallcms.a(firewallservice.o)
 .ARM.attributes
                0x00000d12       0x32 /home/z00250609/hybrid/5115_GPL/Hybrid_security_baseline/output/host/usr/arm-unknown-linux-uclibcgnueabi/sysroot/lib/libfirewallcms.a(firewalllist.o)
 .ARM.attributes
                0x00000d44       0x32 /home/z00250609/hybrid/5115_GPL/Hybrid_security_baseline/output/host/usr/arm-unknown-linux-uclibcgnueabi/sysroot/lib/libfirewallcms.a(macflt.o)
 .ARM.attributes
                0x00000d76       0x32 /home/z00250609/hybrid/5115_GPL/Hybrid_security_baseline/output/host/usr/arm-unknown-linux-uclibcgnueabi/sysroot/lib/libfirewallcms.a(urlflt.o)
 .ARM.attributes
                0x00000da8       0x32 /home/z00250609/hybrid/5115_GPL/Hybrid_security_baseline/output/host/usr/arm-unknown-linux-uclibcgnueabi/sysroot/lib/libfirewallcms.a(ipflt.o)
 .ARM.attributes
                0x00000dda       0x32 /home/z00250609/hybrid/5115_GPL/Hybrid_security_baseline/output/host/usr/arm-unknown-linux-uclibcgnueabi/sysroot/lib/libfirewallcms.a(appflt.o)
 .ARM.attributes
                0x00000e0c       0x32 /home/z00250609/hybrid/5115_GPL/Hybrid_security_baseline/output/host/usr/arm-unknown-linux-uclibcgnueabi/sysroot/lib/libfirewallcms.a(dosattack.o)
 .ARM.attributes
                0x00000e3e       0x32 /home/z00250609/hybrid/5115_GPL/Hybrid_security_baseline/output/host/usr/arm-unknown-linux-uclibcgnueabi/sysroot/lib/libfirewallcms.a(acl.o)
 .ARM.attributes
                0x00000e70       0x32 /home/z00250609/hybrid/5115_GPL/Hybrid_security_baseline/output/host/usr/arm-unknown-linux-uclibcgnueabi/sysroot/lib/libfirewallcms.a(aclex.o)
 .ARM.attributes
                0x00000ea2       0x32 /home/z00250609/hybrid/5115_GPL/Hybrid_security_baseline/output/host/usr/arm-unknown-linux-uclibcgnueabi/sysroot/lib/libipcheckcms.a(ipcheckcms.o)
 .ARM.attributes
                0x00000ed4       0x32 /home/z00250609/hybrid/5115_GPL/Hybrid_security_baseline/output/host/usr/arm-unknown-linux-uclibcgnueabi/sysroot/lib/libipcheckcms.a(ipcheckcmsinit.o)
 .ARM.attributes
                0x00000f06       0x32 /home/z00250609/hybrid/5115_GPL/Hybrid_security_baseline/output/host/usr/arm-unknown-linux-uclibcgnueabi/sysroot/lib/libipcheckcms.a(ipcheckcmsmsgproc.o)
 .ARM.attributes
                0x00000f38       0x32 /home/z00250609/hybrid/5115_GPL/Hybrid_security_baseline/output/host/usr/arm-unknown-linux-uclibcgnueabi/sysroot/lib/libiptunnelcms.a(iptunnelcmsinit.o)
 .ARM.attributes
                0x00000f6a       0x32 /home/z00250609/hybrid/5115_GPL/Hybrid_security_baseline/output/host/usr/arm-unknown-linux-uclibcgnueabi/sysroot/lib/libiptunnelcms.a(iptunnelcmsapi.o)
 .ARM.attributes
                0x00000f9c       0x32 /home/z00250609/hybrid/5115_GPL/Hybrid_security_baseline/output/host/usr/arm-unknown-linux-uclibcgnueabi/sysroot/lib/libiptunnelcms.a(iptunnelcms.o)
 .ARM.attributes
                0x00000fce       0x32 /home/z00250609/hybrid/5115_GPL/Hybrid_security_baseline/output/host/usr/arm-unknown-linux-uclibcgnueabi/sysroot/lib/libiptunnelcms.a(tunnel6rd.o)
 .ARM.attributes
                0x00001000       0x32 /home/z00250609/hybrid/5115_GPL/Hybrid_security_baseline/output/host/usr/arm-unknown-linux-uclibcgnueabi/sysroot/lib/libiptunnelcms.a(tunneldslite.o)
 .ARM.attributes
                0x00001032       0x32 /home/z00250609/hybrid/5115_GPL/Hybrid_security_baseline/output/host/usr/arm-unknown-linux-uclibcgnueabi/sysroot/lib/liblannamecms.a(lannamecms.o)
 .ARM.attributes
                0x00001064       0x32 /home/z00250609/hybrid/5115_GPL/Hybrid_security_baseline/output/host/usr/arm-unknown-linux-uclibcgnueabi/sysroot/lib/liblannamecms.a(lannamecmsmsgproc.o)
 .ARM.attributes
                0x00001096       0x32 /home/z00250609/hybrid/5115_GPL/Hybrid_security_baseline/output/host/usr/arm-unknown-linux-uclibcgnueabi/sysroot/lib/libmldcms.a(mldcms.o)
 .ARM.attributes
                0x000010c8       0x32 /home/z00250609/hybrid/5115_GPL/Hybrid_security_baseline/output/host/usr/arm-unknown-linux-uclibcgnueabi/sysroot/lib/libmldcms.a(mldcmsmsgproc.o)
 .ARM.attributes
                0x000010fa       0x32 /home/z00250609/hybrid/5115_GPL/Hybrid_security_baseline/output/host/usr/arm-unknown-linux-uclibcgnueabi/sysroot/lib/libnatcms.a(natcmsmsgproc.o)
 .ARM.attributes
                0x0000112c       0x32 /home/z00250609/hybrid/5115_GPL/Hybrid_security_baseline/output/host/usr/arm-unknown-linux-uclibcgnueabi/sysroot/lib/libnatcms.a(natcmsinit.o)
 .ARM.attributes
                0x0000115e       0x32 /home/z00250609/hybrid/5115_GPL/Hybrid_security_baseline/output/host/usr/arm-unknown-linux-uclibcgnueabi/sysroot/lib/libnatcms.a(natcms.o)
 .ARM.attributes
                0x00001190       0x32 /home/z00250609/hybrid/5115_GPL/Hybrid_security_baseline/output/host/usr/arm-unknown-linux-uclibcgnueabi/sysroot/lib/libnatcms.a(natutil.o)
 .ARM.attributes
                0x000011c2       0x32 /home/z00250609/hybrid/5115_GPL/Hybrid_security_baseline/output/host/usr/arm-unknown-linux-uclibcgnueabi/sysroot/lib/libnatcms.a(natdmz.o)
 .ARM.attributes
                0x000011f4       0x32 /home/z00250609/hybrid/5115_GPL/Hybrid_security_baseline/output/host/usr/arm-unknown-linux-uclibcgnueabi/sysroot/lib/libnatcms.a(natportmap.o)
 .ARM.attributes
                0x00001226       0x32 /home/z00250609/hybrid/5115_GPL/Hybrid_security_baseline/output/host/usr/arm-unknown-linux-uclibcgnueabi/sysroot/lib/libnatcms.a(prttrgapi.o)
 .ARM.attributes
                0x00001258       0x32 /home/z00250609/hybrid/5115_GPL/Hybrid_security_baseline/output/host/usr/arm-unknown-linux-uclibcgnueabi/sysroot/lib/libnatcms.a(prttrgutil.o)
 .ARM.attributes
                0x0000128a       0x32 /home/z00250609/hybrid/5115_GPL/Hybrid_security_baseline/output/host/usr/arm-unknown-linux-uclibcgnueabi/sysroot/lib/libnatcms.a(natconenat.o)
 .ARM.attributes
                0x000012bc       0x32 /home/z00250609/hybrid/5115_GPL/Hybrid_security_baseline/output/host/usr/arm-unknown-linux-uclibcgnueabi/sysroot/lib/libndiscms.a(wdsapi.o)
 .ARM.attributes
                0x000012ee       0x32 /home/z00250609/hybrid/5115_GPL/Hybrid_security_baseline/output/host/usr/arm-unknown-linux-uclibcgnueabi/sysroot/lib/libpppccms.a(pppcapi.o)
 .ARM.attributes
                0x00001320       0x32 /home/z00250609/hybrid/5115_GPL/Hybrid_security_baseline/output/host/usr/arm-unknown-linux-uclibcgnueabi/sysroot/lib/libradvdcms.a(radvdcms.o)
 .ARM.attributes
                0x00001352       0x32 /home/z00250609/hybrid/5115_GPL/Hybrid_security_baseline/output/host/usr/arm-unknown-linux-uclibcgnueabi/sysroot/lib/libradvdcms.a(radvdcmsinit.o)
 .ARM.attributes
                0x00001384       0x32 /home/z00250609/hybrid/5115_GPL/Hybrid_security_baseline/output/host/usr/arm-unknown-linux-uclibcgnueabi/sysroot/lib/libradvdcms.a(radvdcmsmsgproc.o)
 .ARM.attributes
                0x000013b6       0x32 /home/z00250609/hybrid/5115_GPL/Hybrid_security_baseline/output/host/usr/arm-unknown-linux-uclibcgnueabi/sysroot/lib/libradvdcms.a(radvdcmsapi.o)
 .ARM.attributes
                0x000013e8       0x32 /home/z00250609/hybrid/5115_GPL/Hybrid_security_baseline/output/host/usr/arm-unknown-linux-uclibcgnueabi/sysroot/lib/libroute6cms.a(route6cms.o)
 .ARM.attributes
                0x0000141a       0x32 /home/z00250609/hybrid/5115_GPL/Hybrid_security_baseline/output/host/usr/arm-unknown-linux-uclibcgnueabi/sysroot/lib/libroute6cms.a(route6cmsinit.o)
 .ARM.attributes
                0x0000144c       0x32 /home/z00250609/hybrid/5115_GPL/Hybrid_security_baseline/output/host/usr/arm-unknown-linux-uclibcgnueabi/sysroot/lib/libroute6cms.a(route6cmsmsgproc.o)
 .ARM.attributes
                0x0000147e       0x32 /home/z00250609/hybrid/5115_GPL/Hybrid_security_baseline/output/host/usr/arm-unknown-linux-uclibcgnueabi/sysroot/lib/libroute6cms.a(route6cmsapi.o)
 .ARM.attributes
                0x000014b0       0x32 /home/z00250609/hybrid/5115_GPL/Hybrid_security_baseline/output/host/usr/arm-unknown-linux-uclibcgnueabi/sysroot/lib/libroutecms.a(routecmsmsgproc.o)
 .ARM.attributes
                0x000014e2       0x32 /home/z00250609/hybrid/5115_GPL/Hybrid_security_baseline/output/host/usr/arm-unknown-linux-uclibcgnueabi/sysroot/lib/libroutecms.a(routecmsinit.o)
 .ARM.attributes
                0x00001514       0x32 /home/z00250609/hybrid/5115_GPL/Hybrid_security_baseline/output/host/usr/arm-unknown-linux-uclibcgnueabi/sysroot/lib/libroutecms.a(routecms.o)
 .ARM.attributes
                0x00001546       0x32 /home/z00250609/hybrid/5115_GPL/Hybrid_security_baseline/output/host/usr/arm-unknown-linux-uclibcgnueabi/sysroot/lib/libroutecms.a(routedft.o)
 .ARM.attributes
                0x00001578       0x32 /home/z00250609/hybrid/5115_GPL/Hybrid_security_baseline/output/host/usr/arm-unknown-linux-uclibcgnueabi/sysroot/lib/libroutecms.a(routestatic.o)
 .ARM.attributes
                0x000015aa       0x32 /home/z00250609/hybrid/5115_GPL/Hybrid_security_baseline/output/host/usr/arm-unknown-linux-uclibcgnueabi/sysroot/lib/libroutecms.a(routelist.o)
 .ARM.attributes
                0x000015dc       0x32 /home/z00250609/hybrid/5115_GPL/Hybrid_security_baseline/output/host/usr/arm-unknown-linux-uclibcgnueabi/sysroot/lib/libroutecms.a(rip.o)
 .ARM.attributes
                0x0000160e       0x32 /home/z00250609/hybrid/5115_GPL/Hybrid_security_baseline/output/host/usr/arm-unknown-linux-uclibcgnueabi/sysroot/lib/libroutecms.a(riplist.o)
 .ARM.attributes
                0x00001640       0x32 /home/z00250609/hybrid/5115_GPL/Hybrid_security_baseline/output/host/usr/arm-unknown-linux-uclibcgnueabi/sysroot/lib/libsntpcms.a(sntpcms.o)
 .ARM.attributes
                0x00001672       0x32 /home/z00250609/hybrid/5115_GPL/Hybrid_security_baseline/output/host/usr/arm-unknown-linux-uclibcgnueabi/sysroot/lib/libsntpcms.a(sntpcmsposixtime.o)
 .ARM.attributes
                0x000016a4       0x32 /home/z00250609/hybrid/5115_GPL/Hybrid_security_baseline/output/host/usr/arm-unknown-linux-uclibcgnueabi/sysroot/lib/libsntpcms.a(sntpcmsmsgproc.o)
 .ARM.attributes
                0x000016d6       0x32 /home/z00250609/hybrid/5115_GPL/Hybrid_security_baseline/output/host/usr/arm-unknown-linux-uclibcgnueabi/sysroot/lib/libwancms.a(wancmsmsgproc.o)
 .ARM.attributes
                0x00001708       0x32 /home/z00250609/hybrid/5115_GPL/Hybrid_security_baseline/output/host/usr/arm-unknown-linux-uclibcgnueabi/sysroot/lib/libwancms.a(wancmsinit.o)
 .ARM.attributes
                0x0000173a       0x32 /home/z00250609/hybrid/5115_GPL/Hybrid_security_baseline/output/host/usr/arm-unknown-linux-uclibcgnueabi/sysroot/lib/libwancms.a(wancms.o)
 .ARM.attributes
                0x0000176c       0x32 /home/z00250609/hybrid/5115_GPL/Hybrid_security_baseline/output/host/usr/arm-unknown-linux-uclibcgnueabi/sysroot/lib/libwancms.a(wancmsutil.o)
 .ARM.attributes
                0x0000179e       0x32 /home/z00250609/hybrid/5115_GPL/Hybrid_security_baseline/output/host/usr/arm-unknown-linux-uclibcgnueabi/sysroot/lib/libwancms.a(wancmshookproc.o)
 .ARM.attributes
                0x000017d0       0x32 /home/z00250609/hybrid/5115_GPL/Hybrid_security_baseline/output/host/usr/arm-unknown-linux-uclibcgnueabi/sysroot/lib/libwancms.a(wancmscall.o)
 .ARM.attributes
                0x00001802       0x32 /home/z00250609/hybrid/5115_GPL/Hybrid_security_baseline/output/host/usr/arm-unknown-linux-uclibcgnueabi/sysroot/lib/libwancms.a(wancmsget.o)
 .ARM.attributes
                0x00001834       0x32 /home/z00250609/hybrid/5115_GPL/Hybrid_security_baseline/output/host/usr/arm-unknown-linux-uclibcgnueabi/sysroot/lib/libwancorecms.a(wancorecms.o)
 .ARM.attributes
                0x00001866       0x32 /home/z00250609/hybrid/5115_GPL/Hybrid_security_baseline/output/host/usr/arm-unknown-linux-uclibcgnueabi/sysroot/lib/libwanumtscms.a(wucms.o)
 .ARM.attributes
                0x00001898       0x32 /home/z00250609/hybrid/5115_GPL/Hybrid_security_baseline/output/host/usr/arm-unknown-linux-uclibcgnueabi/sysroot/lib/libwanumtscms.a(wucmsinit.o)
 .ARM.attributes
                0x000018ca       0x32 /home/z00250609/hybrid/5115_GPL/Hybrid_security_baseline/output/host/usr/arm-unknown-linux-uclibcgnueabi/sysroot/lib/libwanumtscms.a(wucmsmsgproc.o)
 .ARM.attributes
                0x000018fc       0x32 /home/z00250609/hybrid/5115_GPL/Hybrid_security_baseline/output/host/usr/arm-unknown-linux-uclibcgnueabi/sysroot/lib/libwanumtscms.a(wuprofile.o)
 .ARM.attributes
                0x0000192e       0x32 /home/z00250609/hybrid/5115_GPL/Hybrid_security_baseline/output/host/usr/arm-unknown-linux-uclibcgnueabi/sysroot/lib/libwanvlancms.a(wanvlancmsmsgproc.o)
 .ARM.attributes
                0x00001960       0x32 /home/z00250609/hybrid/5115_GPL/Hybrid_security_baseline/output/host/usr/arm-unknown-linux-uclibcgnueabi/sysroot/lib/libwanvlancms.a(wanvlancmsinit.o)
 .ARM.attributes
                0x00001992       0x32 /home/z00250609/hybrid/5115_GPL/Hybrid_security_baseline/output/host/usr/arm-unknown-linux-uclibcgnueabi/sysroot/lib/libwanvlancms.a(wanvlancms.o)
 .ARM.attributes
                0x000019c4       0x18 /opt/toolchain_hisi/arm-hsan-linux-uclibcgnueabi/bin/../lib/gcc/arm-hsan-linux-uclibcgnueabi/4.4.6/libgcc.a(_divsi3.o)
 .ARM.attributes
                0x000019dc       0x18 /opt/toolchain_hisi/arm-hsan-linux-uclibcgnueabi/bin/../lib/gcc/arm-hsan-linux-uclibcgnueabi/4.4.6/libgcc.a(_arm_addsubdf3.o)
 .ARM.attributes
                0x000019f4       0x18 /opt/toolchain_hisi/arm-hsan-linux-uclibcgnueabi/bin/../lib/gcc/arm-hsan-linux-uclibcgnueabi/4.4.6/libgcc.a(_arm_muldivdf3.o)
 .ARM.attributes
                0x00001a0c       0x18 /opt/toolchain_hisi/arm-hsan-linux-uclibcgnueabi/bin/../lib/gcc/arm-hsan-linux-uclibcgnueabi/4.4.6/libgcc.a(_arm_fixdfsi.o)
 .ARM.attributes
                0x00001a24       0x18 /opt/toolchain_hisi/arm-hsan-linux-uclibcgnueabi/bin/../lib/gcc/arm-hsan-linux-uclibcgnueabi/4.4.6/libgcc.a(_arm_fixunsdfsi.o)
 .ARM.attributes
                0x00001a3c       0x18 /opt/toolchain_hisi/arm-hsan-linux-uclibcgnueabi/bin/../lib/gcc/arm-hsan-linux-uclibcgnueabi/4.4.6/libgcc.a(_arm_addsubsf3.o)
 .ARM.attributes
                0x00001a54       0x18 /opt/toolchain_hisi/arm-hsan-linux-uclibcgnueabi/bin/../lib/gcc/arm-hsan-linux-uclibcgnueabi/4.4.6/libgcc.a(_dvmd_lnx.o)
 .ARM.attributes
                0x00001a6c       0x32 /opt/toolchain_hisi/arm-hsan-linux-uclibcgnueabi/bin/../lib/gcc/arm-hsan-linux-uclibcgnueabi/4.4.6/crtend.o
 .ARM.attributes
                0x00001a9e       0x16 /home/z00250609/hybrid/5115_GPL/Hybrid_security_baseline/output/host/usr/arm-unknown-linux-uclibcgnueabi/sysroot/usr/lib/crtn.o

.debug
 *(.debug)

.line
 *(.line)

.debug_srcinfo
 *(.debug_srcinfo)

.debug_sfnames
 *(.debug_sfnames)

.debug_aranges
 *(.debug_aranges)

.debug_pubnames
 *(.debug_pubnames)

.debug_info
 *(.debug_info .gnu.linkonce.wi.*)

.debug_abbrev
 *(.debug_abbrev)

.debug_line
 *(.debug_line)

.debug_frame
 *(.debug_frame)

.debug_str
 *(.debug_str)

.debug_loc
 *(.debug_loc)

.debug_macinfo
 *(.debug_macinfo)

.debug_weaknames
 *(.debug_weaknames)

.debug_funcnames
 *(.debug_funcnames)

.debug_typenames
 *(.debug_typenames)

.debug_varnames
 *(.debug_varnames)

.debug_pubtypes
 *(.debug_pubtypes)

.debug_ranges
 *(.debug_ranges)

.gnu.attributes
 *(.gnu.attributes)

.note.gnu.arm.ident
 *(.note.gnu.arm.ident)

/DISCARD/
 *(.note.GNU-stack)
 *(.gnu_debuglink)
 *(.gnu.lto_*)
OUTPUT(/home/z00250609/hybrid/5115_GPL/Hybrid_security_baseline/output/package/atp/configuration/cmsmain/cms elf32-littlearm)
