Archive member included because of file (symbol)

/home/liyupeng/zengyao/6.13/DT-W724V-20140311/output/host/usr/mips-unknown-linux-uclibc/sysroot/lib/libcmscore.a(cmsmsgproc.o)
                              (--whole-archive)
/home/liyupeng/zengyao/6.13/DT-W724V-20140311/output/host/usr/mips-unknown-linux-uclibc/sysroot/lib/libcmscore.a(cmsutil.o)
                              (--whole-archive)
/home/liyupeng/zengyao/6.13/DT-W724V-20140311/output/host/usr/mips-unknown-linux-uclibc/sysroot/lib/libcmscore.a(cmsinitapi.o)
                              (--whole-archive)
/home/liyupeng/zengyao/6.13/DT-W724V-20140311/output/host/usr/mips-unknown-linux-uclibc/sysroot/lib/libcmscore.a(cmssigqueue.o)
                              (--whole-archive)
/home/liyupeng/zengyao/6.13/DT-W724V-20140311/output/host/usr/mips-unknown-linux-uclibc/sysroot/lib/libinterfacecore.a(interfaceapi.o)
                              (--whole-archive)
/home/liyupeng/zengyao/6.13/DT-W724V-20140311/output/host/usr/mips-unknown-linux-uclibc/sysroot/lib/libinterfacecore.a(intfstats.o)
                              (--whole-archive)
/home/liyupeng/zengyao/6.13/DT-W724V-20140311/output/host/usr/mips-unknown-linux-uclibc/sysroot/lib/libinterfacecore.a(intfdescriptor.o)
                              (--whole-archive)
/home/liyupeng/zengyao/6.13/DT-W724V-20140311/output/host/usr/mips-unknown-linux-uclibc/sysroot/lib/libinterfacecore.a(intfcfgmsgproc.o)
                              (--whole-archive)
/home/liyupeng/zengyao/6.13/DT-W724V-20140311/output/host/usr/mips-unknown-linux-uclibc/sysroot/lib/libinterfacecore.a(intfstack.o)
                              (--whole-archive)
/home/liyupeng/zengyao/6.13/DT-W724V-20140311/output/host/usr/mips-unknown-linux-uclibc/sysroot/lib/libdmscms.a(dmscmsmsgproc.o)
                              (--whole-archive)
/home/liyupeng/zengyao/6.13/DT-W724V-20140311/output/host/usr/mips-unknown-linux-uclibc/sysroot/lib/libledservicecms.a(ledserviceini.o)
                              (--whole-archive)
/home/liyupeng/zengyao/6.13/DT-W724V-20140311/output/host/usr/mips-unknown-linux-uclibc/sysroot/lib/libnascms.a(nascms.o)
                              (--whole-archive)
/home/liyupeng/zengyao/6.13/DT-W724V-20140311/output/host/usr/mips-unknown-linux-uclibc/sysroot/lib/liboamcms.a(oamcms.o)
                              (--whole-archive)
/home/liyupeng/zengyao/6.13/DT-W724V-20140311/output/host/usr/mips-unknown-linux-uclibc/sysroot/lib/libtr143cms.a(tr143cmsmsgproc.o)
                              (--whole-archive)
/home/liyupeng/zengyao/6.13/DT-W724V-20140311/output/host/usr/mips-unknown-linux-uclibc/sysroot/lib/libusbmngrcms.a(usbmngrcmsproc.o)
                              (--whole-archive)
/home/liyupeng/zengyao/6.13/DT-W724V-20140311/output/host/usr/mips-unknown-linux-uclibc/sysroot/lib/libusbmountcms.a(usbmntcmsmsgproc.o)
                              (--whole-archive)
/home/liyupeng/zengyao/6.13/DT-W724V-20140311/output/host/usr/mips-unknown-linux-uclibc/sysroot/lib/libusbmountcms.a(usbdiskmonitor.o)
                              (--whole-archive)
/home/liyupeng/zengyao/6.13/DT-W724V-20140311/output/host/usr/mips-unknown-linux-uclibc/sysroot/lib/libusbmountcms.a(usbmntcmsinit.o)
                              (--whole-archive)
/home/liyupeng/zengyao/6.13/DT-W724V-20140311/output/host/usr/mips-unknown-linux-uclibc/sysroot/lib/libcupscms.a(cupscms.o)
                              (--whole-archive)
/home/liyupeng/zengyao/6.13/DT-W724V-20140311/output/host/usr/mips-unknown-linux-uclibc/sysroot/lib/libusbstoragecms.a(usbstoragecmsmsgproc.o)
                              (--whole-archive)
/home/liyupeng/zengyao/6.13/DT-W724V-20140311/output/host/usr/mips-unknown-linux-uclibc/sysroot/lib/libusbstoragecms.a(usbstoragecms.o)
                              (--whole-archive)
/home/liyupeng/zengyao/6.13/DT-W724V-20140311/output/host/usr/mips-unknown-linux-uclibc/sysroot/lib/libusbstoragecms.a(usbstoragecmsinit.o)
                              (--whole-archive)
/home/liyupeng/zengyao/6.13/DT-W724V-20140311/output/host/usr/mips-unknown-linux-uclibc/sysroot/lib/libusbstoragecms.a(usbstorageloginctl.o)
                              (--whole-archive)
/home/liyupeng/zengyao/6.13/DT-W724V-20140311/output/host/usr/mips-unknown-linux-uclibc/sysroot/lib/libftpservercms.a(ftpservercmsmsgproc.o)
                              (--whole-archive)
/home/liyupeng/zengyao/6.13/DT-W724V-20140311/output/host/usr/mips-unknown-linux-uclibc/sysroot/lib/libftpservercms.a(ftpservercms.o)
                              (--whole-archive)
/home/liyupeng/zengyao/6.13/DT-W724V-20140311/output/host/usr/mips-unknown-linux-uclibc/sysroot/lib/libsambacms.a(sambacms.o)
                              (--whole-archive)
/home/liyupeng/zengyao/6.13/DT-W724V-20140311/output/host/usr/mips-unknown-linux-uclibc/sysroot/lib/libsambacms.a(sambacmsmsgproc.o)
                              (--whole-archive)
/home/liyupeng/zengyao/6.13/DT-W724V-20140311/output/host/usr/mips-unknown-linux-uclibc/sysroot/lib/libcwmpcms.a(cwmpcmsmsgproc.o)
                              (--whole-archive)
/home/liyupeng/zengyao/6.13/DT-W724V-20140311/output/host/usr/mips-unknown-linux-uclibc/sysroot/lib/libcwmpcms.a(cwmpcms.o)
                              (--whole-archive)
/home/liyupeng/zengyao/6.13/DT-W724V-20140311/output/host/usr/mips-unknown-linux-uclibc/sysroot/lib/libcwmpcms.a(cwmpschdwlmsgproc.o)
                              (--whole-archive)
/home/liyupeng/zengyao/6.13/DT-W724V-20140311/output/host/usr/mips-unknown-linux-uclibc/sysroot/lib/libippingcms.a(ippingcmsmsgproc.o)
                              (--whole-archive)
/home/liyupeng/zengyao/6.13/DT-W724V-20140311/output/host/usr/mips-unknown-linux-uclibc/sysroot/lib/liblogcms.a(logcms.o)
                              (--whole-archive)
/home/liyupeng/zengyao/6.13/DT-W724V-20140311/output/host/usr/mips-unknown-linux-uclibc/sysroot/lib/liblogcms.a(logcmsinit.o)
                              (--whole-archive)
/home/liyupeng/zengyao/6.13/DT-W724V-20140311/output/host/usr/mips-unknown-linux-uclibc/sysroot/lib/liblogcms.a(logcmsmsgproc.o)
                              (--whole-archive)
/home/liyupeng/zengyao/6.13/DT-W724V-20140311/output/host/usr/mips-unknown-linux-uclibc/sysroot/lib/libmiccms.a(miccmsmsgproc.o)
                              (--whole-archive)
/home/liyupeng/zengyao/6.13/DT-W724V-20140311/output/host/usr/mips-unknown-linux-uclibc/sysroot/lib/libmiccms.a(miccms.o)
                              (--whole-archive)
/home/liyupeng/zengyao/6.13/DT-W724V-20140311/output/host/usr/mips-unknown-linux-uclibc/sysroot/lib/libportmntcms.a(portmntcms.o)
                              (--whole-archive)
/home/liyupeng/zengyao/6.13/DT-W724V-20140311/output/host/usr/mips-unknown-linux-uclibc/sysroot/lib/libsysinfocms.a(sysinfoinit.o)
                              (--whole-archive)
/home/liyupeng/zengyao/6.13/DT-W724V-20140311/output/host/usr/mips-unknown-linux-uclibc/sysroot/lib/libsysinfocms.a(sysinfocmsmsgproc.o)
                              (--whole-archive)
/home/liyupeng/zengyao/6.13/DT-W724V-20140311/output/host/usr/mips-unknown-linux-uclibc/sysroot/lib/libsysinfocms.a(sysinfocms.o)
                              (--whole-archive)
/home/liyupeng/zengyao/6.13/DT-W724V-20140311/output/host/usr/mips-unknown-linux-uclibc/sysroot/lib/libsysinfocms.a(sysperiodicstatistics.o)
                              (--whole-archive)
/home/liyupeng/zengyao/6.13/DT-W724V-20140311/output/host/usr/mips-unknown-linux-uclibc/sysroot/lib/libtelnetdcms.a(telnetdcmsinit.o)
                              (--whole-archive)
/home/liyupeng/zengyao/6.13/DT-W724V-20140311/output/host/usr/mips-unknown-linux-uclibc/sysroot/lib/libtelnetdcms.a(telnetdcmsmsgproc.o)
                              (--whole-archive)
/home/liyupeng/zengyao/6.13/DT-W724V-20140311/output/host/usr/mips-unknown-linux-uclibc/sysroot/lib/libtr111cms.a(tr111cmsmsgproc.o)
                              (--whole-archive)
/home/liyupeng/zengyao/6.13/DT-W724V-20140311/output/host/usr/mips-unknown-linux-uclibc/sysroot/lib/libtr111cms.a(tr111cms.o)
                              (--whole-archive)
/home/liyupeng/zengyao/6.13/DT-W724V-20140311/output/host/usr/mips-unknown-linux-uclibc/sysroot/lib/libtr232cms.a(ipdrcms.o)
                              (--whole-archive)
/home/liyupeng/zengyao/6.13/DT-W724V-20140311/output/host/usr/mips-unknown-linux-uclibc/sysroot/lib/libtr232cms.a(ipdrcmsmsgproc.o)
                              (--whole-archive)
/home/liyupeng/zengyao/6.13/DT-W724V-20140311/output/host/usr/mips-unknown-linux-uclibc/sysroot/lib/libtr232cms.a(ipdrcmsinit.o)
                              (--whole-archive)
/home/liyupeng/zengyao/6.13/DT-W724V-20140311/output/host/usr/mips-unknown-linux-uclibc/sysroot/lib/libtraceroutecms.a(traceroutecmsmsgproc.o)
                              (--whole-archive)
/home/liyupeng/zengyao/6.13/DT-W724V-20140311/output/host/usr/mips-unknown-linux-uclibc/sysroot/lib/libupnpcms.a(upnpcms.o)
                              (--whole-archive)
/home/liyupeng/zengyao/6.13/DT-W724V-20140311/output/host/usr/mips-unknown-linux-uclibc/sysroot/lib/libuserintfcms.a(userintfinit.o)
                              (--whole-archive)
/home/liyupeng/zengyao/6.13/DT-W724V-20140311/output/host/usr/mips-unknown-linux-uclibc/sysroot/lib/libuserintfcms.a(userintfcmsmsgproc.o)
                              (--whole-archive)
/home/liyupeng/zengyao/6.13/DT-W724V-20140311/output/host/usr/mips-unknown-linux-uclibc/sysroot/lib/libuserintfcms.a(userintfcms.o)
                              (--whole-archive)
/home/liyupeng/zengyao/6.13/DT-W724V-20140311/output/host/usr/mips-unknown-linux-uclibc/sysroot/lib/libwebcms.a(webcmsmsgproc.o)
                              (--whole-archive)
/home/liyupeng/zengyao/6.13/DT-W724V-20140311/output/host/usr/mips-unknown-linux-uclibc/sysroot/lib/libbridgeportcms.a(bridgeportcmsapi.o)
                              (--whole-archive)
/home/liyupeng/zengyao/6.13/DT-W724V-20140311/output/host/usr/mips-unknown-linux-uclibc/sysroot/lib/libbridgeportcms.a(bridgeportcms.o)
                              (--whole-archive)
/home/liyupeng/zengyao/6.13/DT-W724V-20140311/output/host/usr/mips-unknown-linux-uclibc/sysroot/lib/libbridgeportcms.a(bridgingcmsinit.o)
                              (--whole-archive)
/home/liyupeng/zengyao/6.13/DT-W724V-20140311/output/host/usr/mips-unknown-linux-uclibc/sysroot/lib/libbridgeportcms.a(bridgingfiltercmsapi.o)
                              (--whole-archive)
/home/liyupeng/zengyao/6.13/DT-W724V-20140311/output/host/usr/mips-unknown-linux-uclibc/sysroot/lib/libbridgeportcms.a(bridgingfiltercmsinit.o)
                              (--whole-archive)
/home/liyupeng/zengyao/6.13/DT-W724V-20140311/output/host/usr/mips-unknown-linux-uclibc/sysroot/lib/libbridgeportcms.a(bridgingfiltercmsmsgproc.o)
                              (--whole-archive)
/home/liyupeng/zengyao/6.13/DT-W724V-20140311/output/host/usr/mips-unknown-linux-uclibc/sysroot/lib/libbridgeportcms.a(bridgingfilteroptions.o)
                              (--whole-archive)
/home/liyupeng/zengyao/6.13/DT-W724V-20140311/output/host/usr/mips-unknown-linux-uclibc/sysroot/lib/libipv6commoncms.a(ipv6commoncms.o)
                              (--whole-archive)
/home/liyupeng/zengyao/6.13/DT-W724V-20140311/output/host/usr/mips-unknown-linux-uclibc/sysroot/lib/libipv6commoncms.a(ipv6commoncmsproc.o)
                              (--whole-archive)
/home/liyupeng/zengyao/6.13/DT-W724V-20140311/output/host/usr/mips-unknown-linux-uclibc/sysroot/lib/libddnscms.a(ddnscms.o)
                              (--whole-archive)
/home/liyupeng/zengyao/6.13/DT-W724V-20140311/output/host/usr/mips-unknown-linux-uclibc/sysroot/lib/libddnscms.a(ddnscmsinit.o)
                              (--whole-archive)
/home/liyupeng/zengyao/6.13/DT-W724V-20140311/output/host/usr/mips-unknown-linux-uclibc/sysroot/lib/libddnscms.a(ddnscmsmsgproc.o)
                              (--whole-archive)
/home/liyupeng/zengyao/6.13/DT-W724V-20140311/output/host/usr/mips-unknown-linux-uclibc/sysroot/lib/libddnscms.a(ddnscmsapi.o)
                              (--whole-archive)
/home/liyupeng/zengyao/6.13/DT-W724V-20140311/output/host/usr/mips-unknown-linux-uclibc/sysroot/lib/libdhcp6ccms.a(dhcp6ccms.o)
                              (--whole-archive)
/home/liyupeng/zengyao/6.13/DT-W724V-20140311/output/host/usr/mips-unknown-linux-uclibc/sysroot/lib/libdhcp6ccms.a(dhcp6ccmsmsgproc.o)
                              (--whole-archive)
/home/liyupeng/zengyao/6.13/DT-W724V-20140311/output/host/usr/mips-unknown-linux-uclibc/sysroot/lib/libdhcp6scms.a(dhcp6scms.o)
                              (--whole-archive)
/home/liyupeng/zengyao/6.13/DT-W724V-20140311/output/host/usr/mips-unknown-linux-uclibc/sysroot/lib/libdhcp6scms.a(dhcp6scmsinit.o)
                              (--whole-archive)
/home/liyupeng/zengyao/6.13/DT-W724V-20140311/output/host/usr/mips-unknown-linux-uclibc/sysroot/lib/libdhcp6scms.a(dhcp6scmsapi.o)
                              (--whole-archive)
/home/liyupeng/zengyao/6.13/DT-W724V-20140311/output/host/usr/mips-unknown-linux-uclibc/sysroot/lib/libdhcp6scms.a(dhcp6scmsproctr181.o)
                              (--whole-archive)
/home/liyupeng/zengyao/6.13/DT-W724V-20140311/output/host/usr/mips-unknown-linux-uclibc/sysroot/lib/libdhcpccms.a(dhcpccmsmsgproc.o)
                              (--whole-archive)
/home/liyupeng/zengyao/6.13/DT-W724V-20140311/output/host/usr/mips-unknown-linux-uclibc/sysroot/lib/libdhcpccms.a(dhcpccmsinit.o)
                              (--whole-archive)
/home/liyupeng/zengyao/6.13/DT-W724V-20140311/output/host/usr/mips-unknown-linux-uclibc/sysroot/lib/libdhcpccms.a(dhcpccms.o)
                              (--whole-archive)
/home/liyupeng/zengyao/6.13/DT-W724V-20140311/output/host/usr/mips-unknown-linux-uclibc/sysroot/lib/libdhcpscms.a(lanapi.o)
                              (--whole-archive)
/home/liyupeng/zengyao/6.13/DT-W724V-20140311/output/host/usr/mips-unknown-linux-uclibc/sysroot/lib/libdhcpscms.a(lanutil.o)
                              (--whole-archive)
/home/liyupeng/zengyao/6.13/DT-W724V-20140311/output/host/usr/mips-unknown-linux-uclibc/sysroot/lib/libdhcpscms.a(dhcpscmsinit.o)
                              (--whole-archive)
/home/liyupeng/zengyao/6.13/DT-W724V-20140311/output/host/usr/mips-unknown-linux-uclibc/sysroot/lib/libdhcpscms.a(dhcpscmsnotifymngr.o)
                              (--whole-archive)
/home/liyupeng/zengyao/6.13/DT-W724V-20140311/output/host/usr/mips-unknown-linux-uclibc/sysroot/lib/libdhcpscms.a(dhcpscmsmsgproc.o)
                              (--whole-archive)
/home/liyupeng/zengyao/6.13/DT-W724V-20140311/output/host/usr/mips-unknown-linux-uclibc/sysroot/lib/libdhcpscms.a(dhcpscms_tr181.o)
                              (--whole-archive)
/home/liyupeng/zengyao/6.13/DT-W724V-20140311/output/host/usr/mips-unknown-linux-uclibc/sysroot/lib/libdnscms.a(dnscmsinit.o)
                              (--whole-archive)
/home/liyupeng/zengyao/6.13/DT-W724V-20140311/output/host/usr/mips-unknown-linux-uclibc/sysroot/lib/libdnscms.a(dnscms.o)
                              (--whole-archive)
/home/liyupeng/zengyao/6.13/DT-W724V-20140311/output/host/usr/mips-unknown-linux-uclibc/sysroot/lib/libdnscms.a(dnscmsdb.o)
                              (--whole-archive)
/home/liyupeng/zengyao/6.13/DT-W724V-20140311/output/host/usr/mips-unknown-linux-uclibc/sysroot/lib/libdnsdiagcms.a(dnsdiagcmsmsgproc.o)
                              (--whole-archive)
/home/liyupeng/zengyao/6.13/DT-W724V-20140311/output/host/usr/mips-unknown-linux-uclibc/sysroot/lib/libethintfcms.a(ethintfcmsapi.o)
                              (--whole-archive)
/home/liyupeng/zengyao/6.13/DT-W724V-20140311/output/host/usr/mips-unknown-linux-uclibc/sysroot/lib/libethintfcms.a(ethintfcmsutil.o)
                              (--whole-archive)
/home/liyupeng/zengyao/6.13/DT-W724V-20140311/output/host/usr/mips-unknown-linux-uclibc/sysroot/lib/libethintfcms.a(ethintfcmsmsgproc.o)
                              (--whole-archive)
/home/liyupeng/zengyao/6.13/DT-W724V-20140311/output/host/usr/mips-unknown-linux-uclibc/sysroot/lib/libethlinkcms.a(ethlinkcmsapi.o)
                              (--whole-archive)
/home/liyupeng/zengyao/6.13/DT-W724V-20140311/output/host/usr/mips-unknown-linux-uclibc/sysroot/lib/libfirewallcmsdt.a(firewallcmsdt.o)
                              (--whole-archive)
/home/liyupeng/zengyao/6.13/DT-W724V-20140311/output/host/usr/mips-unknown-linux-uclibc/sysroot/lib/libfirewallcmsdt.a(fwfilterapi.o)
                              (--whole-archive)
/home/liyupeng/zengyao/6.13/DT-W724V-20140311/output/host/usr/mips-unknown-linux-uclibc/sysroot/lib/libfirewallcmsdt.a(fwfilterutil.o)
                              (--whole-archive)
/home/liyupeng/zengyao/6.13/DT-W724V-20140311/output/host/usr/mips-unknown-linux-uclibc/sysroot/lib/libfirewallcmsdt.a(abuseapi.o)
                              (--whole-archive)
/home/liyupeng/zengyao/6.13/DT-W724V-20140311/output/host/usr/mips-unknown-linux-uclibc/sysroot/lib/libfirewallcmsdt.a(abuseutil.o)
                              (--whole-archive)
/home/liyupeng/zengyao/6.13/DT-W724V-20140311/output/host/usr/mips-unknown-linux-uclibc/sysroot/lib/libfirewallcmsdt.a(timeruleflushfcctl.o)
                              (--whole-archive)
/home/liyupeng/zengyao/6.13/DT-W724V-20140311/output/host/usr/mips-unknown-linux-uclibc/sysroot/lib/libfoncms.a(foncms.o)
                              (--whole-archive)
/home/liyupeng/zengyao/6.13/DT-W724V-20140311/output/host/usr/mips-unknown-linux-uclibc/sysroot/lib/libfoncms.a(foncmsinit.o)
                              (--whole-archive)
/home/liyupeng/zengyao/6.13/DT-W724V-20140311/output/host/usr/mips-unknown-linux-uclibc/sysroot/lib/libfoncms.a(foncmsmsgproc.o)
                              (--whole-archive)
/home/liyupeng/zengyao/6.13/DT-W724V-20140311/output/host/usr/mips-unknown-linux-uclibc/sysroot/lib/libhybridcms.a(hybridcms.o)
                              (--whole-archive)
/home/liyupeng/zengyao/6.13/DT-W724V-20140311/output/host/usr/mips-unknown-linux-uclibc/sysroot/lib/libhybridcms.a(hybridcmsfilter.o)
                              (--whole-archive)
/home/liyupeng/zengyao/6.13/DT-W724V-20140311/output/host/usr/mips-unknown-linux-uclibc/sysroot/lib/libigmpcms.a(igmpcmsmsgproc.o)
                              (--whole-archive)
/home/liyupeng/zengyao/6.13/DT-W724V-20140311/output/host/usr/mips-unknown-linux-uclibc/sysroot/lib/libigmpcms.a(igmpcms.o)
                              (--whole-archive)
/home/liyupeng/zengyao/6.13/DT-W724V-20140311/output/host/usr/mips-unknown-linux-uclibc/sysroot/lib/libipcheckcms.a(ipcheckcms.o)
                              (--whole-archive)
/home/liyupeng/zengyao/6.13/DT-W724V-20140311/output/host/usr/mips-unknown-linux-uclibc/sysroot/lib/libipcheckcms.a(ipcheckcmsinit.o)
                              (--whole-archive)
/home/liyupeng/zengyao/6.13/DT-W724V-20140311/output/host/usr/mips-unknown-linux-uclibc/sysroot/lib/libipcheckcms.a(ipcheckcmsmsgproc.o)
                              (--whole-archive)
/home/liyupeng/zengyao/6.13/DT-W724V-20140311/output/host/usr/mips-unknown-linux-uclibc/sysroot/lib/libipintfcms.a(ipintfcmsapi.o)
                              (--whole-archive)
/home/liyupeng/zengyao/6.13/DT-W724V-20140311/output/host/usr/mips-unknown-linux-uclibc/sysroot/lib/libipintfcms.a(ipintfcmsget.o)
                              (--whole-archive)
/home/liyupeng/zengyao/6.13/DT-W724V-20140311/output/host/usr/mips-unknown-linux-uclibc/sysroot/lib/libipintfcms.a(ipintfcmsset.o)
                              (--whole-archive)
/home/liyupeng/zengyao/6.13/DT-W724V-20140311/output/host/usr/mips-unknown-linux-uclibc/sysroot/lib/libipintfcms.a(ipintfcmsint.o)
                              (--whole-archive)
/home/liyupeng/zengyao/6.13/DT-W724V-20140311/output/host/usr/mips-unknown-linux-uclibc/sysroot/lib/libiptunnelcms.a(iptunnelcmsinit.o)
                              (--whole-archive)
/home/liyupeng/zengyao/6.13/DT-W724V-20140311/output/host/usr/mips-unknown-linux-uclibc/sysroot/lib/libiptunnelcms.a(iptunnelcmsapi.o)
                              (--whole-archive)
/home/liyupeng/zengyao/6.13/DT-W724V-20140311/output/host/usr/mips-unknown-linux-uclibc/sysroot/lib/libiptunnelcms.a(iptunnelcms.o)
                              (--whole-archive)
/home/liyupeng/zengyao/6.13/DT-W724V-20140311/output/host/usr/mips-unknown-linux-uclibc/sysroot/lib/liblannamecms.a(lannamecms.o)
                              (--whole-archive)
/home/liyupeng/zengyao/6.13/DT-W724V-20140311/output/host/usr/mips-unknown-linux-uclibc/sysroot/lib/liblannamecms.a(lannamecmsmsgproc.o)
                              (--whole-archive)
/home/liyupeng/zengyao/6.13/DT-W724V-20140311/output/host/usr/mips-unknown-linux-uclibc/sysroot/lib/libltecms.a(lteprofile.o)
                              (--whole-archive)
/home/liyupeng/zengyao/6.13/DT-W724V-20140311/output/host/usr/mips-unknown-linux-uclibc/sysroot/lib/libltecms.a(ltecmssimcard.o)
                              (--whole-archive)
/home/liyupeng/zengyao/6.13/DT-W724V-20140311/output/host/usr/mips-unknown-linux-uclibc/sysroot/lib/libltecms.a(ltecmswminfo.o)
                              (--whole-archive)
/home/liyupeng/zengyao/6.13/DT-W724V-20140311/output/host/usr/mips-unknown-linux-uclibc/sysroot/lib/libltecms.a(ltesmartcardreader.o)
                              (--whole-archive)
/home/liyupeng/zengyao/6.13/DT-W724V-20140311/output/host/usr/mips-unknown-linux-uclibc/sysroot/lib/libltecms.a(ltecmsmsgproc.o)
                              (--whole-archive)
/home/liyupeng/zengyao/6.13/DT-W724V-20140311/output/host/usr/mips-unknown-linux-uclibc/sysroot/lib/libltecms.a(ltecmsapi.o)
                              (--whole-archive)
/home/liyupeng/zengyao/6.13/DT-W724V-20140311/output/host/usr/mips-unknown-linux-uclibc/sysroot/lib/libltecms.a(ltecmsmobile.o)
                              (--whole-archive)
/home/liyupeng/zengyao/6.13/DT-W724V-20140311/output/host/usr/mips-unknown-linux-uclibc/sysroot/lib/libmldcms.a(mldcms.o)
                              (--whole-archive)
/home/liyupeng/zengyao/6.13/DT-W724V-20140311/output/host/usr/mips-unknown-linux-uclibc/sysroot/lib/libmldcms.a(mldcmsmsgproc.o)
                              (--whole-archive)
/home/liyupeng/zengyao/6.13/DT-W724V-20140311/output/host/usr/mips-unknown-linux-uclibc/sysroot/lib/libnatcms.a(natcmsmsgproc.o)
                              (--whole-archive)
/home/liyupeng/zengyao/6.13/DT-W724V-20140311/output/host/usr/mips-unknown-linux-uclibc/sysroot/lib/libnatcms.a(natcmsinit.o)
                              (--whole-archive)
/home/liyupeng/zengyao/6.13/DT-W724V-20140311/output/host/usr/mips-unknown-linux-uclibc/sysroot/lib/libnatcms.a(natcms.o)
                              (--whole-archive)
/home/liyupeng/zengyao/6.13/DT-W724V-20140311/output/host/usr/mips-unknown-linux-uclibc/sysroot/lib/libnatcms.a(natutil.o)
                              (--whole-archive)
/home/liyupeng/zengyao/6.13/DT-W724V-20140311/output/host/usr/mips-unknown-linux-uclibc/sysroot/lib/libnatcms.a(natdmz.o)
                              (--whole-archive)
/home/liyupeng/zengyao/6.13/DT-W724V-20140311/output/host/usr/mips-unknown-linux-uclibc/sysroot/lib/libnatcms.a(natportmap.o)
                              (--whole-archive)
/home/liyupeng/zengyao/6.13/DT-W724V-20140311/output/host/usr/mips-unknown-linux-uclibc/sysroot/lib/libnatcms.a(prttrgapi.o)
                              (--whole-archive)
/home/liyupeng/zengyao/6.13/DT-W724V-20140311/output/host/usr/mips-unknown-linux-uclibc/sysroot/lib/libnatcms.a(prttrgutil.o)
                              (--whole-archive)
/home/liyupeng/zengyao/6.13/DT-W724V-20140311/output/host/usr/mips-unknown-linux-uclibc/sysroot/lib/libnatcms.a(natcmsctclean.o)
                              (--whole-archive)
/home/liyupeng/zengyao/6.13/DT-W724V-20140311/output/host/usr/mips-unknown-linux-uclibc/sysroot/lib/libndiscms.a(ndiscmsmsgproc.o)
                              (--whole-archive)
/home/liyupeng/zengyao/6.13/DT-W724V-20140311/output/host/usr/mips-unknown-linux-uclibc/sysroot/lib/libneighdisccms.a(neighdisccms.o)
                              (--whole-archive)
/home/liyupeng/zengyao/6.13/DT-W724V-20140311/output/host/usr/mips-unknown-linux-uclibc/sysroot/lib/libpppccms.a(pppcapi.o)
                              (--whole-archive)
/home/liyupeng/zengyao/6.13/DT-W724V-20140311/output/host/usr/mips-unknown-linux-uclibc/sysroot/lib/libpppintfcms.a(pppintfcmsinit.o)
                              (--whole-archive)
/home/liyupeng/zengyao/6.13/DT-W724V-20140311/output/host/usr/mips-unknown-linux-uclibc/sysroot/lib/libpppintfcms.a(pppintfcms.o)
                              (--whole-archive)
/home/liyupeng/zengyao/6.13/DT-W724V-20140311/output/host/usr/mips-unknown-linux-uclibc/sysroot/lib/libpppintfcms.a(pppintfcmsmsg.o)
                              (--whole-archive)
/home/liyupeng/zengyao/6.13/DT-W724V-20140311/output/host/usr/mips-unknown-linux-uclibc/sysroot/lib/libpppintfcms.a(pppintfcmsadapt.o)
                              (--whole-archive)
/home/liyupeng/zengyao/6.13/DT-W724V-20140311/output/host/usr/mips-unknown-linux-uclibc/sysroot/lib/libprivacybtncms.a(privacybtncmsmsgproc.o)
                              (--whole-archive)
/home/liyupeng/zengyao/6.13/DT-W724V-20140311/output/host/usr/mips-unknown-linux-uclibc/sysroot/lib/libprivacybtncms.a(privacybtncms.o)
                              (--whole-archive)
/home/liyupeng/zengyao/6.13/DT-W724V-20140311/output/host/usr/mips-unknown-linux-uclibc/sysroot/lib/libdtqoscms.a(qosapi.o)
                              (--whole-archive)
/home/liyupeng/zengyao/6.13/DT-W724V-20140311/output/host/usr/mips-unknown-linux-uclibc/sysroot/lib/libdtqoscms.a(qosconfig.o)
                              (--whole-archive)
/home/liyupeng/zengyao/6.13/DT-W724V-20140311/output/host/usr/mips-unknown-linux-uclibc/sysroot/lib/libradvdcms.a(radvdcms.o)
                              (--whole-archive)
/home/liyupeng/zengyao/6.13/DT-W724V-20140311/output/host/usr/mips-unknown-linux-uclibc/sysroot/lib/libradvdcms.a(radvdcmsinit.o)
                              (--whole-archive)
/home/liyupeng/zengyao/6.13/DT-W724V-20140311/output/host/usr/mips-unknown-linux-uclibc/sysroot/lib/libradvdcms.a(radvdcmsmsgproc.o)
                              (--whole-archive)
/home/liyupeng/zengyao/6.13/DT-W724V-20140311/output/host/usr/mips-unknown-linux-uclibc/sysroot/lib/libradvdcms.a(radvdcmsapi.o)
                              (--whole-archive)
/home/liyupeng/zengyao/6.13/DT-W724V-20140311/output/host/usr/mips-unknown-linux-uclibc/sysroot/lib/libradvdcms.a(radvdcmsmsgproctr181.o)
                              (--whole-archive)
/home/liyupeng/zengyao/6.13/DT-W724V-20140311/output/host/usr/mips-unknown-linux-uclibc/sysroot/lib/libroute6cms.a(route6cms.o)
                              (--whole-archive)
/home/liyupeng/zengyao/6.13/DT-W724V-20140311/output/host/usr/mips-unknown-linux-uclibc/sysroot/lib/libroute6cms.a(route6cmsinit.o)
                              (--whole-archive)
/home/liyupeng/zengyao/6.13/DT-W724V-20140311/output/host/usr/mips-unknown-linux-uclibc/sysroot/lib/libroute6cms.a(route6cmsmsgproc.o)
                              (--whole-archive)
/home/liyupeng/zengyao/6.13/DT-W724V-20140311/output/host/usr/mips-unknown-linux-uclibc/sysroot/lib/libroute6cms.a(route6cmsapi.o)
                              (--whole-archive)
/home/liyupeng/zengyao/6.13/DT-W724V-20140311/output/host/usr/mips-unknown-linux-uclibc/sysroot/lib/libroutecms.a(routecmsmsgproc.o)
                              (--whole-archive)
/home/liyupeng/zengyao/6.13/DT-W724V-20140311/output/host/usr/mips-unknown-linux-uclibc/sysroot/lib/libroutecms.a(routecmsinit.o)
                              (--whole-archive)
/home/liyupeng/zengyao/6.13/DT-W724V-20140311/output/host/usr/mips-unknown-linux-uclibc/sysroot/lib/libroutecms.a(routecms.o)
                              (--whole-archive)
/home/liyupeng/zengyao/6.13/DT-W724V-20140311/output/host/usr/mips-unknown-linux-uclibc/sysroot/lib/libroutecms.a(routedft.o)
                              (--whole-archive)
/home/liyupeng/zengyao/6.13/DT-W724V-20140311/output/host/usr/mips-unknown-linux-uclibc/sysroot/lib/libroutecms.a(routestatic.o)
                              (--whole-archive)
/home/liyupeng/zengyao/6.13/DT-W724V-20140311/output/host/usr/mips-unknown-linux-uclibc/sysroot/lib/libroutecms.a(routelist.o)
                              (--whole-archive)
/home/liyupeng/zengyao/6.13/DT-W724V-20140311/output/host/usr/mips-unknown-linux-uclibc/sysroot/lib/libsntpcms.a(sntpcms.o)
                              (--whole-archive)
/home/liyupeng/zengyao/6.13/DT-W724V-20140311/output/host/usr/mips-unknown-linux-uclibc/sysroot/lib/libsntpcms.a(sntpcmsposixtime.o)
                              (--whole-archive)
/home/liyupeng/zengyao/6.13/DT-W724V-20140311/output/host/usr/mips-unknown-linux-uclibc/sysroot/lib/libsntpcms.a(sntpcmsmsgproc.o)
                              (--whole-archive)
/home/liyupeng/zengyao/6.13/DT-W724V-20140311/output/host/usr/mips-unknown-linux-uclibc/sysroot/lib/libvlancms.a(vlancms.o)
                              (--whole-archive)
/home/liyupeng/zengyao/6.13/DT-W724V-20140311/output/host/usr/mips-unknown-linux-uclibc/sysroot/lib/libvlancms.a(vlancmsint.o)
                              (--whole-archive)
/home/liyupeng/zengyao/6.13/DT-W724V-20140311/output/host/usr/mips-unknown-linux-uclibc/sysroot/lib/libvlancms.a(vlancmsmsgproc.o)
                              (--whole-archive)
/home/liyupeng/zengyao/6.13/DT-W724V-20140311/output/host/usr/mips-unknown-linux-uclibc/sysroot/lib/libwancorecms.a(wancorecms.o)
                              (--whole-archive)
/home/liyupeng/zengyao/6.13/DT-W724V-20140311/output/host/usr/mips-unknown-linux-uclibc/sysroot/lib/libvlantermcms.a(vlantermcms.o)
                              (--whole-archive)
/home/liyupeng/zengyao/6.13/DT-W724V-20140311/output/host/usr/mips-unknown-linux-uclibc/sysroot/lib/libwlancms.a(wlancmsmsgproc.o)
                              (--whole-archive)
/home/liyupeng/zengyao/6.13/DT-W724V-20140311/output/host/usr/mips-unknown-linux-uclibc/sysroot/lib/libwlancms.a(wlancmsinit.o)
                              (--whole-archive)
/home/liyupeng/zengyao/6.13/DT-W724V-20140311/output/host/usr/mips-unknown-linux-uclibc/sysroot/lib/libwlancms.a(wlancmslal.o)
                              (--whole-archive)
/home/liyupeng/zengyao/6.13/DT-W724V-20140311/output/host/usr/mips-unknown-linux-uclibc/sysroot/lib/libwlancms.a(wlan_tr181.o)
                              (--whole-archive)
/home/liyupeng/zengyao/6.13/DT-W724V-20140311/output/host/usr/mips-unknown-linux-uclibc/sysroot/lib/libwlanbcmcms.a(wlanbcmcms.o)
                              (--whole-archive)
/home/liyupeng/zengyao/6.13/DT-W724V-20140311/output/host/usr/mips-unknown-linux-uclibc/sysroot/lib/libwlanbcmcms.a(wlanbcm963268.o)
                              (--whole-archive)
/home/liyupeng/zengyao/6.13/DT-W724V-20140311/output/host/usr/mips-unknown-linux-uclibc/sysroot/lib/libwlanbcmcms.a(wlanmonitor.o)
                              (--whole-archive)
/home/liyupeng/zengyao/6.13/DT-W724V-20140311/output/host/usr/mips-unknown-linux-uclibc/sysroot/lib/libatmlinkcms.a(atmlinkcmsapi.o)
                              (--whole-archive)
/home/liyupeng/zengyao/6.13/DT-W724V-20140311/output/host/usr/mips-unknown-linux-uclibc/sysroot/lib/libatmlinkcms.a(atmlinkdiag.o)
                              (--whole-archive)
/home/liyupeng/zengyao/6.13/DT-W724V-20140311/output/host/usr/mips-unknown-linux-uclibc/sysroot/lib/libdslchannelcms.a(dslchannelcmsapi.o)
                              (--whole-archive)
/home/liyupeng/zengyao/6.13/DT-W724V-20140311/output/host/usr/mips-unknown-linux-uclibc/sysroot/lib/libdslchannelcms.a(dslchanneldiag.o)
                              (--whole-archive)
/home/liyupeng/zengyao/6.13/DT-W724V-20140311/output/host/usr/mips-unknown-linux-uclibc/sysroot/lib/libdsllinecms.a(dsllinecmsapi.o)
                              (--whole-archive)
/home/liyupeng/zengyao/6.13/DT-W724V-20140311/output/host/usr/mips-unknown-linux-uclibc/sysroot/lib/libptmlinkcms.a(ptmlinkcmsapi.o)
                              (--whole-archive)
/home/liyupeng/zengyao/6.13/DT-W724V-20140311/output/host/usr/mips-unknown-linux-uclibc/sysroot/lib/libdtvoicecms.a(voiceapi.o)
                              (--whole-archive)
/home/liyupeng/zengyao/6.13/DT-W724V-20140311/output/host/usr/mips-unknown-linux-uclibc/sysroot/lib/libdtvoicecms.a(voicecms.o)
                              (--whole-archive)
/home/liyupeng/zengyao/6.13/DT-W724V-20140311/output/host/usr/mips-unknown-linux-uclibc/sysroot/lib/libdtvoicecms.a(voiceutil.o)
                              (--whole-archive)
/home/liyupeng/zengyao/6.13/DT-W724V-20140311/output/host/usr/mips-unknown-linux-uclibc/sysroot/lib/libdtvoicecms.a(voicecfg.o)
                              (--whole-archive)
/home/liyupeng/zengyao/6.13/DT-W724V-20140311/output/host/usr/mips-unknown-linux-uclibc/sysroot/lib/libdtvoicecms.a(IniParser.o)
                              (--whole-archive)
/home/liyupeng/zengyao/6.13/DT-W724V-20140311/output/host/usr/mips-unknown-linux-uclibc/sysroot/lib/libdtvoicecms.a(voicediag.o)
                              (--whole-archive)
/home/liyupeng/zengyao/6.13/DT-W724V-20140311/output/host/usr/mips-unknown-linux-uclibc/sysroot/lib/libdtvoicecms.a(voicecmsmsgproc.o)
                              (--whole-archive)
/home/liyupeng/zengyao/6.13/DT-W724V-20140311/output/host/usr/mips-unknown-linux-uclibc/sysroot/lib/libnetpbcms.a(netphonebookapi.o)
                              (--whole-archive)
/home/liyupeng/zengyao/6.13/DT-W724V-20140311/output/host/usr/mips-unknown-linux-uclibc/sysroot/lib/librsscms.a(rssapi.o)
                              (--whole-archive)
/home/liyupeng/zengyao/6.13/DT-W724V-20140311/output/host/usr/mips-unknown-linux-uclibc/sysroot/lib/librsscms.a(voicersscmsmsgproc.o)
                              (--whole-archive)
/home/liyupeng/zengyao/6.13/DT-W724V-20140311/output/host/usr/mips-unknown-linux-uclibc/sysroot/lib/libemailcms.a(emailapi.o)
                              (--whole-archive)
/home/liyupeng/zengyao/6.13/DT-W724V-20140311/output/host/usr/mips-unknown-linux-uclibc/sysroot/lib/libemailcms.a(emailcms.o)
                              (--whole-archive)
/home/liyupeng/zengyao/6.13/DT-W724V-20140311/output/host/usr/mips-unknown-linux-uclibc/sysroot/lib/libemailcms.a(voiceemailcmsmsgproc.o)
                              (--whole-archive)
/opt/toolchains/crosstools-mips-gcc-4.6-linux-3.4-uclibc-0.9.32-binutils-2.21/usr/lib/gcc/mips-unknown-linux-uclibc/4.6.2/libgcc.a(_fixunsdfsi.o)
                              /home/liyupeng/zengyao/6.13/DT-W724V-20140311/output/host/usr/mips-unknown-linux-uclibc/sysroot/lib/libradvdcms.a(radvdcms.o) (__fixunsdfsi)
/opt/toolchains/crosstools-mips-gcc-4.6-linux-3.4-uclibc-0.9.32-binutils-2.21/usr/lib/gcc/mips-unknown-linux-uclibc/4.6.2/libgcc.a(_udivdi3.o)
                              /home/liyupeng/zengyao/6.13/DT-W724V-20140311/output/host/usr/mips-unknown-linux-uclibc/sysroot/lib/libsysinfocms.a(sysperiodicstatistics.o) (__udivdi3)
/opt/toolchains/crosstools-mips-gcc-4.6-linux-3.4-uclibc-0.9.32-binutils-2.21/usr/lib/gcc/mips-unknown-linux-uclibc/4.6.2/libgcc.a(_umoddi3.o)
                              /home/liyupeng/zengyao/6.13/DT-W724V-20140311/output/host/usr/mips-unknown-linux-uclibc/sysroot/lib/libnascms.a(nascms.o) (__umoddi3)
/opt/toolchains/crosstools-mips-gcc-4.6-linux-3.4-uclibc-0.9.32-binutils-2.21/usr/lib/gcc/mips-unknown-linux-uclibc/4.6.2/libgcc.a(_sf_to_df.o)
                              /home/liyupeng/zengyao/6.13/DT-W724V-20140311/output/host/usr/mips-unknown-linux-uclibc/sysroot/lib/libradvdcms.a(radvdcms.o) (__extendsfdf2)
/opt/toolchains/crosstools-mips-gcc-4.6-linux-3.4-uclibc-0.9.32-binutils-2.21/usr/lib/gcc/mips-unknown-linux-uclibc/4.6.2/libgcc.a(_usi_to_sf.o)
                              /home/liyupeng/zengyao/6.13/DT-W724V-20140311/output/host/usr/mips-unknown-linux-uclibc/sysroot/lib/libradvdcms.a(radvdcms.o) (__floatunsisf)
/opt/toolchains/crosstools-mips-gcc-4.6-linux-3.4-uclibc-0.9.32-binutils-2.21/usr/lib/gcc/mips-unknown-linux-uclibc/4.6.2/libgcc.a(_addsub_df.o)
                              /opt/toolchains/crosstools-mips-gcc-4.6-linux-3.4-uclibc-0.9.32-binutils-2.21/usr/lib/gcc/mips-unknown-linux-uclibc/4.6.2/libgcc.a(_fixunsdfsi.o) (__subdf3)
/opt/toolchains/crosstools-mips-gcc-4.6-linux-3.4-uclibc-0.9.32-binutils-2.21/usr/lib/gcc/mips-unknown-linux-uclibc/4.6.2/libgcc.a(_mul_df.o)
                              /home/liyupeng/zengyao/6.13/DT-W724V-20140311/output/host/usr/mips-unknown-linux-uclibc/sysroot/lib/libradvdcms.a(radvdcms.o) (__muldf3)
/opt/toolchains/crosstools-mips-gcc-4.6-linux-3.4-uclibc-0.9.32-binutils-2.21/usr/lib/gcc/mips-unknown-linux-uclibc/4.6.2/libgcc.a(_ge_df.o)
                              /opt/toolchains/crosstools-mips-gcc-4.6-linux-3.4-uclibc-0.9.32-binutils-2.21/usr/lib/gcc/mips-unknown-linux-uclibc/4.6.2/libgcc.a(_fixunsdfsi.o) (__gedf2)
/opt/toolchains/crosstools-mips-gcc-4.6-linux-3.4-uclibc-0.9.32-binutils-2.21/usr/lib/gcc/mips-unknown-linux-uclibc/4.6.2/libgcc.a(_df_to_si.o)
                              /home/liyupeng/zengyao/6.13/DT-W724V-20140311/output/host/usr/mips-unknown-linux-uclibc/sysroot/lib/libradvdcms.a(radvdcms.o) (__fixdfsi)
/opt/toolchains/crosstools-mips-gcc-4.6-linux-3.4-uclibc-0.9.32-binutils-2.21/usr/lib/gcc/mips-unknown-linux-uclibc/4.6.2/libgcc.a(_make_df.o)
                              /opt/toolchains/crosstools-mips-gcc-4.6-linux-3.4-uclibc-0.9.32-binutils-2.21/usr/lib/gcc/mips-unknown-linux-uclibc/4.6.2/libgcc.a(_sf_to_df.o) (__make_dp)
/opt/toolchains/crosstools-mips-gcc-4.6-linux-3.4-uclibc-0.9.32-binutils-2.21/usr/lib/gcc/mips-unknown-linux-uclibc/4.6.2/libgcc.a(_df_to_sf.o)
                              /home/liyupeng/zengyao/6.13/DT-W724V-20140311/output/host/usr/mips-unknown-linux-uclibc/sysroot/lib/libwlanbcmcms.a(wlanbcmcms.o) (__truncdfsf2)
/opt/toolchains/crosstools-mips-gcc-4.6-linux-3.4-uclibc-0.9.32-binutils-2.21/usr/lib/gcc/mips-unknown-linux-uclibc/4.6.2/libgcc.a(_thenan_df.o)
                              /opt/toolchains/crosstools-mips-gcc-4.6-linux-3.4-uclibc-0.9.32-binutils-2.21/usr/lib/gcc/mips-unknown-linux-uclibc/4.6.2/libgcc.a(_addsub_df.o) (__thenan_df)
/opt/toolchains/crosstools-mips-gcc-4.6-linux-3.4-uclibc-0.9.32-binutils-2.21/usr/lib/gcc/mips-unknown-linux-uclibc/4.6.2/libgcc.a(_lshrdi3.o)
                              /opt/toolchains/crosstools-mips-gcc-4.6-linux-3.4-uclibc-0.9.32-binutils-2.21/usr/lib/gcc/mips-unknown-linux-uclibc/4.6.2/libgcc.a(_addsub_df.o) (__lshrdi3)
/opt/toolchains/crosstools-mips-gcc-4.6-linux-3.4-uclibc-0.9.32-binutils-2.21/usr/lib/gcc/mips-unknown-linux-uclibc/4.6.2/libgcc.a(_ashldi3.o)
                              /opt/toolchains/crosstools-mips-gcc-4.6-linux-3.4-uclibc-0.9.32-binutils-2.21/usr/lib/gcc/mips-unknown-linux-uclibc/4.6.2/libgcc.a(_addsub_df.o) (__ashldi3)
/opt/toolchains/crosstools-mips-gcc-4.6-linux-3.4-uclibc-0.9.32-binutils-2.21/usr/lib/gcc/mips-unknown-linux-uclibc/4.6.2/libgcc.a(_pack_sf.o)
                              /opt/toolchains/crosstools-mips-gcc-4.6-linux-3.4-uclibc-0.9.32-binutils-2.21/usr/lib/gcc/mips-unknown-linux-uclibc/4.6.2/libgcc.a(_usi_to_sf.o) (__pack_f)
/opt/toolchains/crosstools-mips-gcc-4.6-linux-3.4-uclibc-0.9.32-binutils-2.21/usr/lib/gcc/mips-unknown-linux-uclibc/4.6.2/libgcc.a(_unpack_sf.o)
                              /opt/toolchains/crosstools-mips-gcc-4.6-linux-3.4-uclibc-0.9.32-binutils-2.21/usr/lib/gcc/mips-unknown-linux-uclibc/4.6.2/libgcc.a(_sf_to_df.o) (__unpack_f)
/opt/toolchains/crosstools-mips-gcc-4.6-linux-3.4-uclibc-0.9.32-binutils-2.21/usr/lib/gcc/mips-unknown-linux-uclibc/4.6.2/libgcc.a(_make_sf.o)
                              /opt/toolchains/crosstools-mips-gcc-4.6-linux-3.4-uclibc-0.9.32-binutils-2.21/usr/lib/gcc/mips-unknown-linux-uclibc/4.6.2/libgcc.a(_df_to_sf.o) (__make_fp)
/opt/toolchains/crosstools-mips-gcc-4.6-linux-3.4-uclibc-0.9.32-binutils-2.21/usr/lib/gcc/mips-unknown-linux-uclibc/4.6.2/libgcc.a(_pack_df.o)
                              /opt/toolchains/crosstools-mips-gcc-4.6-linux-3.4-uclibc-0.9.32-binutils-2.21/usr/lib/gcc/mips-unknown-linux-uclibc/4.6.2/libgcc.a(_addsub_df.o) (__pack_d)
/opt/toolchains/crosstools-mips-gcc-4.6-linux-3.4-uclibc-0.9.32-binutils-2.21/usr/lib/gcc/mips-unknown-linux-uclibc/4.6.2/libgcc.a(_unpack_df.o)
                              /opt/toolchains/crosstools-mips-gcc-4.6-linux-3.4-uclibc-0.9.32-binutils-2.21/usr/lib/gcc/mips-unknown-linux-uclibc/4.6.2/libgcc.a(_addsub_df.o) (__unpack_d)
/opt/toolchains/crosstools-mips-gcc-4.6-linux-3.4-uclibc-0.9.32-binutils-2.21/usr/lib/gcc/mips-unknown-linux-uclibc/4.6.2/libgcc.a(_fpcmp_parts_df.o)
                              /opt/toolchains/crosstools-mips-gcc-4.6-linux-3.4-uclibc-0.9.32-binutils-2.21/usr/lib/gcc/mips-unknown-linux-uclibc/4.6.2/libgcc.a(_ge_df.o) (__fpcmp_parts_d)

Allocating common symbols
Common symbol       size              file

g_stSysinfo         0x20              /home/liyupeng/zengyao/6.13/DT-W724V-20140311/output/host/usr/mips-unknown-linux-uclibc/sysroot/lib/libltecms.a(ltecmswminfo.o)
g_bVoiceUp          0x4               /home/liyupeng/zengyao/6.13/DT-W724V-20140311/output/host/usr/mips-unknown-linux-uclibc/sysroot/lib/libdtvoicecms.a(voiceapi.o)
g_ulWlan2GFonInitFlag
                    0x4               /home/liyupeng/zengyao/6.13/DT-W724V-20140311/output/host/usr/mips-unknown-linux-uclibc/sysroot/lib/libwlancms.a(wlan_tr181.o)
g_acVdbSubListInfo  0x14800           /home/liyupeng/zengyao/6.13/DT-W724V-20140311/output/host/usr/mips-unknown-linux-uclibc/sysroot/lib/librsscms.a(rssapi.o)
g_bNeedSaveVdb      0x4               /home/liyupeng/zengyao/6.13/DT-W724V-20140311/output/host/usr/mips-unknown-linux-uclibc/sysroot/lib/libdtvoicecms.a(voicecms.o)
g_stVoiceService    0x22fe8           /home/liyupeng/zengyao/6.13/DT-W724V-20140311/output/host/usr/mips-unknown-linux-uclibc/sysroot/lib/libdtvoicecms.a(voicecms.o)
g_stRadvdInfo       0x920             /home/liyupeng/zengyao/6.13/DT-W724V-20140311/output/host/usr/mips-unknown-linux-uclibc/sysroot/lib/libradvdcms.a(radvdcmsinit.o)
g_ulRefreshInterval
                    0x4               /home/liyupeng/zengyao/6.13/DT-W724V-20140311/output/host/usr/mips-unknown-linux-uclibc/sysroot/lib/librsscms.a(rssapi.o)
g_ulVdbIndx         0x4               /home/liyupeng/zengyao/6.13/DT-W724V-20140311/output/host/usr/mips-unknown-linux-uclibc/sysroot/lib/librsscms.a(rssapi.o)
g_astStoSerUserInfo
                    0x3528            /home/liyupeng/zengyao/6.13/DT-W724V-20140311/output/host/usr/mips-unknown-linux-uclibc/sysroot/lib/libusbstoragecms.a(usbstoragecms.o)
g_astStoSerPhyMediumList
                    0x720             /home/liyupeng/zengyao/6.13/DT-W724V-20140311/output/host/usr/mips-unknown-linux-uclibc/sysroot/lib/libusbstoragecms.a(usbstoragecmsmsgproc.o)
g_stLteIpv6Info     0x3c4             /home/liyupeng/zengyao/6.13/DT-W724V-20140311/output/host/usr/mips-unknown-linux-uclibc/sysroot/lib/libndiscms.a(ndiscmsmsgproc.o)
g_stLteInfoEng      0xf0              /home/liyupeng/zengyao/6.13/DT-W724V-20140311/output/host/usr/mips-unknown-linux-uclibc/sysroot/lib/libltecms.a(ltecmsapi.o)
g_astDiffValArray   0x100             /home/liyupeng/zengyao/6.13/DT-W724V-20140311/output/host/usr/mips-unknown-linux-uclibc/sysroot/lib/libcwmpcms.a(cwmpschdwlmsgproc.o)
g_stVoiceCheckUri   0x2ff4            /home/liyupeng/zengyao/6.13/DT-W724V-20140311/output/host/usr/mips-unknown-linux-uclibc/sysroot/lib/libdtvoicecms.a(voiceapi.o)
g_stRadvdParameter  0x2e40            /home/liyupeng/zengyao/6.13/DT-W724V-20140311/output/host/usr/mips-unknown-linux-uclibc/sysroot/lib/libradvdcms.a(radvdcmsinit.o)
g_acMldWanPath      0x81              /home/liyupeng/zengyao/6.13/DT-W724V-20140311/output/host/usr/mips-unknown-linux-uclibc/sysroot/lib/libmldcms.a(mldcms.o)
g_acNewSublistTitle
                    0x4200            /home/liyupeng/zengyao/6.13/DT-W724V-20140311/output/host/usr/mips-unknown-linux-uclibc/sysroot/lib/librsscms.a(rssapi.o)
g_stDHCPv6SaveWanPara
                    0xd60             /home/liyupeng/zengyao/6.13/DT-W724V-20140311/output/host/usr/mips-unknown-linux-uclibc/sysroot/lib/libipv6commoncms.a(ipv6commoncmsproc.o)
g_astWlRadio        0x120             /home/liyupeng/zengyao/6.13/DT-W724V-20140311/output/host/usr/mips-unknown-linux-uclibc/sysroot/lib/libwlancms.a(wlan_tr181.o)
g_stVoiceDectLine   0x70              /home/liyupeng/zengyao/6.13/DT-W724V-20140311/output/host/usr/mips-unknown-linux-uclibc/sysroot/lib/libdtvoicecms.a(voicecms.o)
g_pstWlanAssocList  0x10              /home/liyupeng/zengyao/6.13/DT-W724V-20140311/output/host/usr/mips-unknown-linux-uclibc/sysroot/lib/libwlanbcmcms.a(wlanmonitor.o)
g_acNewSublistText  0x10200           /home/liyupeng/zengyao/6.13/DT-W724V-20140311/output/host/usr/mips-unknown-linux-uclibc/sysroot/lib/librsscms.a(rssapi.o)
g_pstSchDwlTime     0x18              /home/liyupeng/zengyao/6.13/DT-W724V-20140311/output/host/usr/mips-unknown-linux-uclibc/sysroot/lib/libcwmpcms.a(cwmpschdwlmsgproc.o)
g_bNeedSaveDb       0x4               /home/liyupeng/zengyao/6.13/DT-W724V-20140311/output/host/usr/mips-unknown-linux-uclibc/sysroot/lib/libdtvoicecms.a(voicecms.o)
g_stStorageServiceInfo
                    0x4               /home/liyupeng/zengyao/6.13/DT-W724V-20140311/output/host/usr/mips-unknown-linux-uclibc/sysroot/lib/libusbstoragecms.a(usbstoragecmsinit.o)
g_acForkPidInfo     0x1040            /home/liyupeng/zengyao/6.13/DT-W724V-20140311/output/host/usr/mips-unknown-linux-uclibc/sysroot/lib/librsscms.a(rssapi.o)
g_stVoiceIncomRelate
                    0x1f0             /home/liyupeng/zengyao/6.13/DT-W724V-20140311/output/host/usr/mips-unknown-linux-uclibc/sysroot/lib/libdtvoicecms.a(voicecms.o)
g_bNeedCwmpLog      0x4               /home/liyupeng/zengyao/6.13/DT-W724V-20140311/output/host/usr/mips-unknown-linux-uclibc/sysroot/lib/libdtvoicecms.a(voicecms.o)
g_astWlVar          0xadb0            /home/liyupeng/zengyao/6.13/DT-W724V-20140311/output/host/usr/mips-unknown-linux-uclibc/sysroot/lib/libwlancms.a(wlancmsinit.o)
g_astLteCfg         0x208             /home/liyupeng/zengyao/6.13/DT-W724V-20140311/output/host/usr/mips-unknown-linux-uclibc/sysroot/lib/libltecms.a(ltecmsapi.o)
g_bInit             0x4               /home/liyupeng/zengyao/6.13/DT-W724V-20140311/output/host/usr/mips-unknown-linux-uclibc/sysroot/lib/libdtvoicecms.a(voicecms.o)
g_pvVdbVoiceHdl     0x4               /home/liyupeng/zengyao/6.13/DT-W724V-20140311/output/package/atp/configuration/cmsmain/cmsinit.o
g_stLteInfo         0x8               /home/liyupeng/zengyao/6.13/DT-W724V-20140311/output/host/usr/mips-unknown-linux-uclibc/sysroot/lib/libndiscms.a(ndiscmsmsgproc.o)
g_pvDummyDbHdl      0x4               /home/liyupeng/zengyao/6.13/DT-W724V-20140311/output/package/atp/configuration/cmsmain/cmsinit.o
g_astWlMapTbl       0x50              /home/liyupeng/zengyao/6.13/DT-W724V-20140311/output/host/usr/mips-unknown-linux-uclibc/sysroot/lib/libwlancms.a(wlancmsinit.o)
g_acChannelInfo     0x1500            /home/liyupeng/zengyao/6.13/DT-W724V-20140311/output/host/usr/mips-unknown-linux-uclibc/sysroot/lib/librsscms.a(rssapi.o)
g_bNeedSndNotify    0x4               /home/liyupeng/zengyao/6.13/DT-W724V-20140311/output/host/usr/mips-unknown-linux-uclibc/sysroot/lib/libdtvoicecms.a(voicecms.o)
g_stWminfo          0x10              /home/liyupeng/zengyao/6.13/DT-W724V-20140311/output/host/usr/mips-unknown-linux-uclibc/sysroot/lib/libltecms.a(ltecmswminfo.o)
g_ulWlan5GFonInitFlag
                    0x4               /home/liyupeng/zengyao/6.13/DT-W724V-20140311/output/host/usr/mips-unknown-linux-uclibc/sysroot/lib/libwlancms.a(wlan_tr181.o)
g_bFtpSerStart      0x4               /home/liyupeng/zengyao/6.13/DT-W724V-20140311/output/host/usr/mips-unknown-linux-uclibc/sysroot/lib/libftpservercms.a(ftpservercms.o)
g_astEthItfCfg      0x154             /home/liyupeng/zengyao/6.13/DT-W724V-20140311/output/host/usr/mips-unknown-linux-uclibc/sysroot/lib/libethintfcms.a(ethintfcmsutil.o)

Discarded input sections

 .reginfo       0x0000000000000000       0x18 /home/liyupeng/zengyao/6.13/DT-W724V-20140311/output/host/usr/mips-unknown-linux-uclibc/sysroot/usr/lib/crti.o
 .reginfo       0x0000000000000000       0x18 /opt/toolchains/crosstools-mips-gcc-4.6-linux-3.4-uclibc-0.9.32-binutils-2.21/usr/lib/gcc/mips-unknown-linux-uclibc/4.6.2/crtbegin.o
 .reginfo       0x0000000000000000       0x18 /home/liyupeng/zengyao/6.13/DT-W724V-20140311/output/package/atp/configuration/cmsmain/management.o
 .reginfo       0x0000000000000000       0x18 /home/liyupeng/zengyao/6.13/DT-W724V-20140311/output/package/atp/configuration/cmsmain/cmsmonitor.o
 .reginfo       0x0000000000000000       0x18 /home/liyupeng/zengyao/6.13/DT-W724V-20140311/output/package/atp/configuration/cmsmain/cmsinit.o
 .reginfo       0x0000000000000000       0x18 /home/liyupeng/zengyao/6.13/DT-W724V-20140311/output/host/usr/mips-unknown-linux-uclibc/sysroot/lib/libcmscore.a(cmsmsgproc.o)
 .reginfo       0x0000000000000000       0x18 /home/liyupeng/zengyao/6.13/DT-W724V-20140311/output/host/usr/mips-unknown-linux-uclibc/sysroot/lib/libcmscore.a(cmsutil.o)
 .reginfo       0x0000000000000000       0x18 /home/liyupeng/zengyao/6.13/DT-W724V-20140311/output/host/usr/mips-unknown-linux-uclibc/sysroot/lib/libcmscore.a(cmsinitapi.o)
 .reginfo       0x0000000000000000       0x18 /home/liyupeng/zengyao/6.13/DT-W724V-20140311/output/host/usr/mips-unknown-linux-uclibc/sysroot/lib/libcmscore.a(cmssigqueue.o)
 .reginfo       0x0000000000000000       0x18 /home/liyupeng/zengyao/6.13/DT-W724V-20140311/output/host/usr/mips-unknown-linux-uclibc/sysroot/lib/libinterfacecore.a(interfaceapi.o)
 .reginfo       0x0000000000000000       0x18 /home/liyupeng/zengyao/6.13/DT-W724V-20140311/output/host/usr/mips-unknown-linux-uclibc/sysroot/lib/libinterfacecore.a(intfstats.o)
 .reginfo       0x0000000000000000       0x18 /home/liyupeng/zengyao/6.13/DT-W724V-20140311/output/host/usr/mips-unknown-linux-uclibc/sysroot/lib/libinterfacecore.a(intfdescriptor.o)
 .reginfo       0x0000000000000000       0x18 /home/liyupeng/zengyao/6.13/DT-W724V-20140311/output/host/usr/mips-unknown-linux-uclibc/sysroot/lib/libinterfacecore.a(intfcfgmsgproc.o)
 .reginfo       0x0000000000000000       0x18 /home/liyupeng/zengyao/6.13/DT-W724V-20140311/output/host/usr/mips-unknown-linux-uclibc/sysroot/lib/libinterfacecore.a(intfstack.o)
 .reginfo       0x0000000000000000       0x18 /home/liyupeng/zengyao/6.13/DT-W724V-20140311/output/host/usr/mips-unknown-linux-uclibc/sysroot/lib/libdmscms.a(dmscmsmsgproc.o)
 .reginfo       0x0000000000000000       0x18 /home/liyupeng/zengyao/6.13/DT-W724V-20140311/output/host/usr/mips-unknown-linux-uclibc/sysroot/lib/libledservicecms.a(ledserviceini.o)
 .reginfo       0x0000000000000000       0x18 /home/liyupeng/zengyao/6.13/DT-W724V-20140311/output/host/usr/mips-unknown-linux-uclibc/sysroot/lib/libnascms.a(nascms.o)
 .reginfo       0x0000000000000000       0x18 /home/liyupeng/zengyao/6.13/DT-W724V-20140311/output/host/usr/mips-unknown-linux-uclibc/sysroot/lib/liboamcms.a(oamcms.o)
 .reginfo       0x0000000000000000       0x18 /home/liyupeng/zengyao/6.13/DT-W724V-20140311/output/host/usr/mips-unknown-linux-uclibc/sysroot/lib/libtr143cms.a(tr143cmsmsgproc.o)
 .reginfo       0x0000000000000000       0x18 /home/liyupeng/zengyao/6.13/DT-W724V-20140311/output/host/usr/mips-unknown-linux-uclibc/sysroot/lib/libusbmngrcms.a(usbmngrcmsproc.o)
 .reginfo       0x0000000000000000       0x18 /home/liyupeng/zengyao/6.13/DT-W724V-20140311/output/host/usr/mips-unknown-linux-uclibc/sysroot/lib/libusbmountcms.a(usbmntcmsmsgproc.o)
 .reginfo       0x0000000000000000       0x18 /home/liyupeng/zengyao/6.13/DT-W724V-20140311/output/host/usr/mips-unknown-linux-uclibc/sysroot/lib/libusbmountcms.a(usbdiskmonitor.o)
 .reginfo       0x0000000000000000       0x18 /home/liyupeng/zengyao/6.13/DT-W724V-20140311/output/host/usr/mips-unknown-linux-uclibc/sysroot/lib/libusbmountcms.a(usbmntcmsinit.o)
 .reginfo       0x0000000000000000       0x18 /home/liyupeng/zengyao/6.13/DT-W724V-20140311/output/host/usr/mips-unknown-linux-uclibc/sysroot/lib/libcupscms.a(cupscms.o)
 .reginfo       0x0000000000000000       0x18 /home/liyupeng/zengyao/6.13/DT-W724V-20140311/output/host/usr/mips-unknown-linux-uclibc/sysroot/lib/libusbstoragecms.a(usbstoragecmsmsgproc.o)
 .reginfo       0x0000000000000000       0x18 /home/liyupeng/zengyao/6.13/DT-W724V-20140311/output/host/usr/mips-unknown-linux-uclibc/sysroot/lib/libusbstoragecms.a(usbstoragecms.o)
 .reginfo       0x0000000000000000       0x18 /home/liyupeng/zengyao/6.13/DT-W724V-20140311/output/host/usr/mips-unknown-linux-uclibc/sysroot/lib/libusbstoragecms.a(usbstoragecmsinit.o)
 .reginfo       0x0000000000000000       0x18 /home/liyupeng/zengyao/6.13/DT-W724V-20140311/output/host/usr/mips-unknown-linux-uclibc/sysroot/lib/libusbstoragecms.a(usbstorageloginctl.o)
 .reginfo       0x0000000000000000       0x18 /home/liyupeng/zengyao/6.13/DT-W724V-20140311/output/host/usr/mips-unknown-linux-uclibc/sysroot/lib/libftpservercms.a(ftpservercmsmsgproc.o)
 .reginfo       0x0000000000000000       0x18 /home/liyupeng/zengyao/6.13/DT-W724V-20140311/output/host/usr/mips-unknown-linux-uclibc/sysroot/lib/libftpservercms.a(ftpservercms.o)
 .reginfo       0x0000000000000000       0x18 /home/liyupeng/zengyao/6.13/DT-W724V-20140311/output/host/usr/mips-unknown-linux-uclibc/sysroot/lib/libsambacms.a(sambacms.o)
 .reginfo       0x0000000000000000       0x18 /home/liyupeng/zengyao/6.13/DT-W724V-20140311/output/host/usr/mips-unknown-linux-uclibc/sysroot/lib/libsambacms.a(sambacmsmsgproc.o)
 .reginfo       0x0000000000000000       0x18 /home/liyupeng/zengyao/6.13/DT-W724V-20140311/output/host/usr/mips-unknown-linux-uclibc/sysroot/lib/libcwmpcms.a(cwmpcmsmsgproc.o)
 .reginfo       0x0000000000000000       0x18 /home/liyupeng/zengyao/6.13/DT-W724V-20140311/output/host/usr/mips-unknown-linux-uclibc/sysroot/lib/libcwmpcms.a(cwmpcms.o)
 .reginfo       0x0000000000000000       0x18 /home/liyupeng/zengyao/6.13/DT-W724V-20140311/output/host/usr/mips-unknown-linux-uclibc/sysroot/lib/libcwmpcms.a(cwmpschdwlmsgproc.o)
 .reginfo       0x0000000000000000       0x18 /home/liyupeng/zengyao/6.13/DT-W724V-20140311/output/host/usr/mips-unknown-linux-uclibc/sysroot/lib/libippingcms.a(ippingcmsmsgproc.o)
 .reginfo       0x0000000000000000       0x18 /home/liyupeng/zengyao/6.13/DT-W724V-20140311/output/host/usr/mips-unknown-linux-uclibc/sysroot/lib/liblogcms.a(logcms.o)
 .reginfo       0x0000000000000000       0x18 /home/liyupeng/zengyao/6.13/DT-W724V-20140311/output/host/usr/mips-unknown-linux-uclibc/sysroot/lib/liblogcms.a(logcmsinit.o)
 .reginfo       0x0000000000000000       0x18 /home/liyupeng/zengyao/6.13/DT-W724V-20140311/output/host/usr/mips-unknown-linux-uclibc/sysroot/lib/liblogcms.a(logcmsmsgproc.o)
 .reginfo       0x0000000000000000       0x18 /home/liyupeng/zengyao/6.13/DT-W724V-20140311/output/host/usr/mips-unknown-linux-uclibc/sysroot/lib/libmiccms.a(miccmsmsgproc.o)
 .reginfo       0x0000000000000000       0x18 /home/liyupeng/zengyao/6.13/DT-W724V-20140311/output/host/usr/mips-unknown-linux-uclibc/sysroot/lib/libmiccms.a(miccms.o)
 .reginfo       0x0000000000000000       0x18 /home/liyupeng/zengyao/6.13/DT-W724V-20140311/output/host/usr/mips-unknown-linux-uclibc/sysroot/lib/libportmntcms.a(portmntcms.o)
 .reginfo       0x0000000000000000       0x18 /home/liyupeng/zengyao/6.13/DT-W724V-20140311/output/host/usr/mips-unknown-linux-uclibc/sysroot/lib/libsysinfocms.a(sysinfoinit.o)
 .reginfo       0x0000000000000000       0x18 /home/liyupeng/zengyao/6.13/DT-W724V-20140311/output/host/usr/mips-unknown-linux-uclibc/sysroot/lib/libsysinfocms.a(sysinfocmsmsgproc.o)
 .reginfo       0x0000000000000000       0x18 /home/liyupeng/zengyao/6.13/DT-W724V-20140311/output/host/usr/mips-unknown-linux-uclibc/sysroot/lib/libsysinfocms.a(sysinfocms.o)
 .reginfo       0x0000000000000000       0x18 /home/liyupeng/zengyao/6.13/DT-W724V-20140311/output/host/usr/mips-unknown-linux-uclibc/sysroot/lib/libsysinfocms.a(sysperiodicstatistics.o)
 .reginfo       0x0000000000000000       0x18 /home/liyupeng/zengyao/6.13/DT-W724V-20140311/output/host/usr/mips-unknown-linux-uclibc/sysroot/lib/libtelnetdcms.a(telnetdcmsinit.o)
 .reginfo       0x0000000000000000       0x18 /home/liyupeng/zengyao/6.13/DT-W724V-20140311/output/host/usr/mips-unknown-linux-uclibc/sysroot/lib/libtelnetdcms.a(telnetdcmsmsgproc.o)
 .reginfo       0x0000000000000000       0x18 /home/liyupeng/zengyao/6.13/DT-W724V-20140311/output/host/usr/mips-unknown-linux-uclibc/sysroot/lib/libtr111cms.a(tr111cmsmsgproc.o)
 .reginfo       0x0000000000000000       0x18 /home/liyupeng/zengyao/6.13/DT-W724V-20140311/output/host/usr/mips-unknown-linux-uclibc/sysroot/lib/libtr111cms.a(tr111cms.o)
 .reginfo       0x0000000000000000       0x18 /home/liyupeng/zengyao/6.13/DT-W724V-20140311/output/host/usr/mips-unknown-linux-uclibc/sysroot/lib/libtr232cms.a(ipdrcms.o)
 .reginfo       0x0000000000000000       0x18 /home/liyupeng/zengyao/6.13/DT-W724V-20140311/output/host/usr/mips-unknown-linux-uclibc/sysroot/lib/libtr232cms.a(ipdrcmsmsgproc.o)
 .reginfo       0x0000000000000000       0x18 /home/liyupeng/zengyao/6.13/DT-W724V-20140311/output/host/usr/mips-unknown-linux-uclibc/sysroot/lib/libtr232cms.a(ipdrcmsinit.o)
 .reginfo       0x0000000000000000       0x18 /home/liyupeng/zengyao/6.13/DT-W724V-20140311/output/host/usr/mips-unknown-linux-uclibc/sysroot/lib/libtraceroutecms.a(traceroutecmsmsgproc.o)
 .reginfo       0x0000000000000000       0x18 /home/liyupeng/zengyao/6.13/DT-W724V-20140311/output/host/usr/mips-unknown-linux-uclibc/sysroot/lib/libupnpcms.a(upnpcms.o)
 .reginfo       0x0000000000000000       0x18 /home/liyupeng/zengyao/6.13/DT-W724V-20140311/output/host/usr/mips-unknown-linux-uclibc/sysroot/lib/libuserintfcms.a(userintfinit.o)
 .reginfo       0x0000000000000000       0x18 /home/liyupeng/zengyao/6.13/DT-W724V-20140311/output/host/usr/mips-unknown-linux-uclibc/sysroot/lib/libuserintfcms.a(userintfcmsmsgproc.o)
 .reginfo       0x0000000000000000       0x18 /home/liyupeng/zengyao/6.13/DT-W724V-20140311/output/host/usr/mips-unknown-linux-uclibc/sysroot/lib/libuserintfcms.a(userintfcms.o)
 .reginfo       0x0000000000000000       0x18 /home/liyupeng/zengyao/6.13/DT-W724V-20140311/output/host/usr/mips-unknown-linux-uclibc/sysroot/lib/libwebcms.a(webcmsmsgproc.o)
 .reginfo       0x0000000000000000       0x18 /home/liyupeng/zengyao/6.13/DT-W724V-20140311/output/host/usr/mips-unknown-linux-uclibc/sysroot/lib/libbridgeportcms.a(bridgeportcmsapi.o)
 .reginfo       0x0000000000000000       0x18 /home/liyupeng/zengyao/6.13/DT-W724V-20140311/output/host/usr/mips-unknown-linux-uclibc/sysroot/lib/libbridgeportcms.a(bridgeportcms.o)
 .reginfo       0x0000000000000000       0x18 /home/liyupeng/zengyao/6.13/DT-W724V-20140311/output/host/usr/mips-unknown-linux-uclibc/sysroot/lib/libbridgeportcms.a(bridgingcmsinit.o)
 .reginfo       0x0000000000000000       0x18 /home/liyupeng/zengyao/6.13/DT-W724V-20140311/output/host/usr/mips-unknown-linux-uclibc/sysroot/lib/libbridgeportcms.a(bridgingfiltercmsapi.o)
 .reginfo       0x0000000000000000       0x18 /home/liyupeng/zengyao/6.13/DT-W724V-20140311/output/host/usr/mips-unknown-linux-uclibc/sysroot/lib/libbridgeportcms.a(bridgingfiltercmsinit.o)
 .reginfo       0x0000000000000000       0x18 /home/liyupeng/zengyao/6.13/DT-W724V-20140311/output/host/usr/mips-unknown-linux-uclibc/sysroot/lib/libbridgeportcms.a(bridgingfiltercmsmsgproc.o)
 .reginfo       0x0000000000000000       0x18 /home/liyupeng/zengyao/6.13/DT-W724V-20140311/output/host/usr/mips-unknown-linux-uclibc/sysroot/lib/libbridgeportcms.a(bridgingfilteroptions.o)
 .reginfo       0x0000000000000000       0x18 /home/liyupeng/zengyao/6.13/DT-W724V-20140311/output/host/usr/mips-unknown-linux-uclibc/sysroot/lib/libipv6commoncms.a(ipv6commoncms.o)
 .reginfo       0x0000000000000000       0x18 /home/liyupeng/zengyao/6.13/DT-W724V-20140311/output/host/usr/mips-unknown-linux-uclibc/sysroot/lib/libipv6commoncms.a(ipv6commoncmsproc.o)
 .reginfo       0x0000000000000000       0x18 /home/liyupeng/zengyao/6.13/DT-W724V-20140311/output/host/usr/mips-unknown-linux-uclibc/sysroot/lib/libddnscms.a(ddnscms.o)
 .reginfo       0x0000000000000000       0x18 /home/liyupeng/zengyao/6.13/DT-W724V-20140311/output/host/usr/mips-unknown-linux-uclibc/sysroot/lib/libddnscms.a(ddnscmsinit.o)
 .reginfo       0x0000000000000000       0x18 /home/liyupeng/zengyao/6.13/DT-W724V-20140311/output/host/usr/mips-unknown-linux-uclibc/sysroot/lib/libddnscms.a(ddnscmsmsgproc.o)
 .reginfo       0x0000000000000000       0x18 /home/liyupeng/zengyao/6.13/DT-W724V-20140311/output/host/usr/mips-unknown-linux-uclibc/sysroot/lib/libddnscms.a(ddnscmsapi.o)
 .reginfo       0x0000000000000000       0x18 /home/liyupeng/zengyao/6.13/DT-W724V-20140311/output/host/usr/mips-unknown-linux-uclibc/sysroot/lib/libdhcp6ccms.a(dhcp6ccms.o)
 .reginfo       0x0000000000000000       0x18 /home/liyupeng/zengyao/6.13/DT-W724V-20140311/output/host/usr/mips-unknown-linux-uclibc/sysroot/lib/libdhcp6ccms.a(dhcp6ccmsmsgproc.o)
 .reginfo       0x0000000000000000       0x18 /home/liyupeng/zengyao/6.13/DT-W724V-20140311/output/host/usr/mips-unknown-linux-uclibc/sysroot/lib/libdhcp6scms.a(dhcp6scms.o)
 .reginfo       0x0000000000000000       0x18 /home/liyupeng/zengyao/6.13/DT-W724V-20140311/output/host/usr/mips-unknown-linux-uclibc/sysroot/lib/libdhcp6scms.a(dhcp6scmsinit.o)
 .reginfo       0x0000000000000000       0x18 /home/liyupeng/zengyao/6.13/DT-W724V-20140311/output/host/usr/mips-unknown-linux-uclibc/sysroot/lib/libdhcp6scms.a(dhcp6scmsapi.o)
 .reginfo       0x0000000000000000       0x18 /home/liyupeng/zengyao/6.13/DT-W724V-20140311/output/host/usr/mips-unknown-linux-uclibc/sysroot/lib/libdhcp6scms.a(dhcp6scmsproctr181.o)
 .reginfo       0x0000000000000000       0x18 /home/liyupeng/zengyao/6.13/DT-W724V-20140311/output/host/usr/mips-unknown-linux-uclibc/sysroot/lib/libdhcpccms.a(dhcpccmsmsgproc.o)
 .reginfo       0x0000000000000000       0x18 /home/liyupeng/zengyao/6.13/DT-W724V-20140311/output/host/usr/mips-unknown-linux-uclibc/sysroot/lib/libdhcpccms.a(dhcpccmsinit.o)
 .reginfo       0x0000000000000000       0x18 /home/liyupeng/zengyao/6.13/DT-W724V-20140311/output/host/usr/mips-unknown-linux-uclibc/sysroot/lib/libdhcpccms.a(dhcpccms.o)
 .reginfo       0x0000000000000000       0x18 /home/liyupeng/zengyao/6.13/DT-W724V-20140311/output/host/usr/mips-unknown-linux-uclibc/sysroot/lib/libdhcpscms.a(lanapi.o)
 .reginfo       0x0000000000000000       0x18 /home/liyupeng/zengyao/6.13/DT-W724V-20140311/output/host/usr/mips-unknown-linux-uclibc/sysroot/lib/libdhcpscms.a(lanutil.o)
 .reginfo       0x0000000000000000       0x18 /home/liyupeng/zengyao/6.13/DT-W724V-20140311/output/host/usr/mips-unknown-linux-uclibc/sysroot/lib/libdhcpscms.a(dhcpscmsinit.o)
 .reginfo       0x0000000000000000       0x18 /home/liyupeng/zengyao/6.13/DT-W724V-20140311/output/host/usr/mips-unknown-linux-uclibc/sysroot/lib/libdhcpscms.a(dhcpscmsnotifymngr.o)
 .reginfo       0x0000000000000000       0x18 /home/liyupeng/zengyao/6.13/DT-W724V-20140311/output/host/usr/mips-unknown-linux-uclibc/sysroot/lib/libdhcpscms.a(dhcpscmsmsgproc.o)
 .reginfo       0x0000000000000000       0x18 /home/liyupeng/zengyao/6.13/DT-W724V-20140311/output/host/usr/mips-unknown-linux-uclibc/sysroot/lib/libdhcpscms.a(dhcpscms_tr181.o)
 .reginfo       0x0000000000000000       0x18 /home/liyupeng/zengyao/6.13/DT-W724V-20140311/output/host/usr/mips-unknown-linux-uclibc/sysroot/lib/libdnscms.a(dnscmsinit.o)
 .reginfo       0x0000000000000000       0x18 /home/liyupeng/zengyao/6.13/DT-W724V-20140311/output/host/usr/mips-unknown-linux-uclibc/sysroot/lib/libdnscms.a(dnscms.o)
 .reginfo       0x0000000000000000       0x18 /home/liyupeng/zengyao/6.13/DT-W724V-20140311/output/host/usr/mips-unknown-linux-uclibc/sysroot/lib/libdnscms.a(dnscmsdb.o)
 .reginfo       0x0000000000000000       0x18 /home/liyupeng/zengyao/6.13/DT-W724V-20140311/output/host/usr/mips-unknown-linux-uclibc/sysroot/lib/libdnsdiagcms.a(dnsdiagcmsmsgproc.o)
 .reginfo       0x0000000000000000       0x18 /home/liyupeng/zengyao/6.13/DT-W724V-20140311/output/host/usr/mips-unknown-linux-uclibc/sysroot/lib/libethintfcms.a(ethintfcmsapi.o)
 .reginfo       0x0000000000000000       0x18 /home/liyupeng/zengyao/6.13/DT-W724V-20140311/output/host/usr/mips-unknown-linux-uclibc/sysroot/lib/libethintfcms.a(ethintfcmsutil.o)
 .reginfo       0x0000000000000000       0x18 /home/liyupeng/zengyao/6.13/DT-W724V-20140311/output/host/usr/mips-unknown-linux-uclibc/sysroot/lib/libethintfcms.a(ethintfcmsmsgproc.o)
 .reginfo       0x0000000000000000       0x18 /home/liyupeng/zengyao/6.13/DT-W724V-20140311/output/host/usr/mips-unknown-linux-uclibc/sysroot/lib/libethlinkcms.a(ethlinkcmsapi.o)
 .reginfo       0x0000000000000000       0x18 /home/liyupeng/zengyao/6.13/DT-W724V-20140311/output/host/usr/mips-unknown-linux-uclibc/sysroot/lib/libfirewallcmsdt.a(firewallcmsdt.o)
 .reginfo       0x0000000000000000       0x18 /home/liyupeng/zengyao/6.13/DT-W724V-20140311/output/host/usr/mips-unknown-linux-uclibc/sysroot/lib/libfirewallcmsdt.a(fwfilterapi.o)
 .reginfo       0x0000000000000000       0x18 /home/liyupeng/zengyao/6.13/DT-W724V-20140311/output/host/usr/mips-unknown-linux-uclibc/sysroot/lib/libfirewallcmsdt.a(fwfilterutil.o)
 .reginfo       0x0000000000000000       0x18 /home/liyupeng/zengyao/6.13/DT-W724V-20140311/output/host/usr/mips-unknown-linux-uclibc/sysroot/lib/libfirewallcmsdt.a(abuseapi.o)
 .reginfo       0x0000000000000000       0x18 /home/liyupeng/zengyao/6.13/DT-W724V-20140311/output/host/usr/mips-unknown-linux-uclibc/sysroot/lib/libfirewallcmsdt.a(abuseutil.o)
 .reginfo       0x0000000000000000       0x18 /home/liyupeng/zengyao/6.13/DT-W724V-20140311/output/host/usr/mips-unknown-linux-uclibc/sysroot/lib/libfirewallcmsdt.a(timeruleflushfcctl.o)
 .reginfo       0x0000000000000000       0x18 /home/liyupeng/zengyao/6.13/DT-W724V-20140311/output/host/usr/mips-unknown-linux-uclibc/sysroot/lib/libfoncms.a(foncms.o)
 .reginfo       0x0000000000000000       0x18 /home/liyupeng/zengyao/6.13/DT-W724V-20140311/output/host/usr/mips-unknown-linux-uclibc/sysroot/lib/libfoncms.a(foncmsinit.o)
 .reginfo       0x0000000000000000       0x18 /home/liyupeng/zengyao/6.13/DT-W724V-20140311/output/host/usr/mips-unknown-linux-uclibc/sysroot/lib/libfoncms.a(foncmsmsgproc.o)
 .reginfo       0x0000000000000000       0x18 /home/liyupeng/zengyao/6.13/DT-W724V-20140311/output/host/usr/mips-unknown-linux-uclibc/sysroot/lib/libhybridcms.a(hybridcms.o)
 .reginfo       0x0000000000000000       0x18 /home/liyupeng/zengyao/6.13/DT-W724V-20140311/output/host/usr/mips-unknown-linux-uclibc/sysroot/lib/libhybridcms.a(hybridcmsfilter.o)
 .reginfo       0x0000000000000000       0x18 /home/liyupeng/zengyao/6.13/DT-W724V-20140311/output/host/usr/mips-unknown-linux-uclibc/sysroot/lib/libigmpcms.a(igmpcmsmsgproc.o)
 .reginfo       0x0000000000000000       0x18 /home/liyupeng/zengyao/6.13/DT-W724V-20140311/output/host/usr/mips-unknown-linux-uclibc/sysroot/lib/libigmpcms.a(igmpcms.o)
 .reginfo       0x0000000000000000       0x18 /home/liyupeng/zengyao/6.13/DT-W724V-20140311/output/host/usr/mips-unknown-linux-uclibc/sysroot/lib/libipcheckcms.a(ipcheckcms.o)
 .reginfo       0x0000000000000000       0x18 /home/liyupeng/zengyao/6.13/DT-W724V-20140311/output/host/usr/mips-unknown-linux-uclibc/sysroot/lib/libipcheckcms.a(ipcheckcmsinit.o)
 .reginfo       0x0000000000000000       0x18 /home/liyupeng/zengyao/6.13/DT-W724V-20140311/output/host/usr/mips-unknown-linux-uclibc/sysroot/lib/libipcheckcms.a(ipcheckcmsmsgproc.o)
 .reginfo       0x0000000000000000       0x18 /home/liyupeng/zengyao/6.13/DT-W724V-20140311/output/host/usr/mips-unknown-linux-uclibc/sysroot/lib/libipintfcms.a(ipintfcmsapi.o)
 .reginfo       0x0000000000000000       0x18 /home/liyupeng/zengyao/6.13/DT-W724V-20140311/output/host/usr/mips-unknown-linux-uclibc/sysroot/lib/libipintfcms.a(ipintfcmsget.o)
 .reginfo       0x0000000000000000       0x18 /home/liyupeng/zengyao/6.13/DT-W724V-20140311/output/host/usr/mips-unknown-linux-uclibc/sysroot/lib/libipintfcms.a(ipintfcmsset.o)
 .reginfo       0x0000000000000000       0x18 /home/liyupeng/zengyao/6.13/DT-W724V-20140311/output/host/usr/mips-unknown-linux-uclibc/sysroot/lib/libipintfcms.a(ipintfcmsint.o)
 .reginfo       0x0000000000000000       0x18 /home/liyupeng/zengyao/6.13/DT-W724V-20140311/output/host/usr/mips-unknown-linux-uclibc/sysroot/lib/libiptunnelcms.a(iptunnelcmsinit.o)
 .reginfo       0x0000000000000000       0x18 /home/liyupeng/zengyao/6.13/DT-W724V-20140311/output/host/usr/mips-unknown-linux-uclibc/sysroot/lib/libiptunnelcms.a(iptunnelcmsapi.o)
 .reginfo       0x0000000000000000       0x18 /home/liyupeng/zengyao/6.13/DT-W724V-20140311/output/host/usr/mips-unknown-linux-uclibc/sysroot/lib/libiptunnelcms.a(iptunnelcms.o)
 .reginfo       0x0000000000000000       0x18 /home/liyupeng/zengyao/6.13/DT-W724V-20140311/output/host/usr/mips-unknown-linux-uclibc/sysroot/lib/liblannamecms.a(lannamecms.o)
 .reginfo       0x0000000000000000       0x18 /home/liyupeng/zengyao/6.13/DT-W724V-20140311/output/host/usr/mips-unknown-linux-uclibc/sysroot/lib/liblannamecms.a(lannamecmsmsgproc.o)
 .reginfo       0x0000000000000000       0x18 /home/liyupeng/zengyao/6.13/DT-W724V-20140311/output/host/usr/mips-unknown-linux-uclibc/sysroot/lib/libltecms.a(lteprofile.o)
 .reginfo       0x0000000000000000       0x18 /home/liyupeng/zengyao/6.13/DT-W724V-20140311/output/host/usr/mips-unknown-linux-uclibc/sysroot/lib/libltecms.a(ltecmssimcard.o)
 .reginfo       0x0000000000000000       0x18 /home/liyupeng/zengyao/6.13/DT-W724V-20140311/output/host/usr/mips-unknown-linux-uclibc/sysroot/lib/libltecms.a(ltecmswminfo.o)
 .reginfo       0x0000000000000000       0x18 /home/liyupeng/zengyao/6.13/DT-W724V-20140311/output/host/usr/mips-unknown-linux-uclibc/sysroot/lib/libltecms.a(ltesmartcardreader.o)
 .reginfo       0x0000000000000000       0x18 /home/liyupeng/zengyao/6.13/DT-W724V-20140311/output/host/usr/mips-unknown-linux-uclibc/sysroot/lib/libltecms.a(ltecmsmsgproc.o)
 .reginfo       0x0000000000000000       0x18 /home/liyupeng/zengyao/6.13/DT-W724V-20140311/output/host/usr/mips-unknown-linux-uclibc/sysroot/lib/libltecms.a(ltecmsapi.o)
 .reginfo       0x0000000000000000       0x18 /home/liyupeng/zengyao/6.13/DT-W724V-20140311/output/host/usr/mips-unknown-linux-uclibc/sysroot/lib/libltecms.a(ltecmsmobile.o)
 .reginfo       0x0000000000000000       0x18 /home/liyupeng/zengyao/6.13/DT-W724V-20140311/output/host/usr/mips-unknown-linux-uclibc/sysroot/lib/libmldcms.a(mldcms.o)
 .reginfo       0x0000000000000000       0x18 /home/liyupeng/zengyao/6.13/DT-W724V-20140311/output/host/usr/mips-unknown-linux-uclibc/sysroot/lib/libmldcms.a(mldcmsmsgproc.o)
 .reginfo       0x0000000000000000       0x18 /home/liyupeng/zengyao/6.13/DT-W724V-20140311/output/host/usr/mips-unknown-linux-uclibc/sysroot/lib/libnatcms.a(natcmsmsgproc.o)
 .reginfo       0x0000000000000000       0x18 /home/liyupeng/zengyao/6.13/DT-W724V-20140311/output/host/usr/mips-unknown-linux-uclibc/sysroot/lib/libnatcms.a(natcmsinit.o)
 .reginfo       0x0000000000000000       0x18 /home/liyupeng/zengyao/6.13/DT-W724V-20140311/output/host/usr/mips-unknown-linux-uclibc/sysroot/lib/libnatcms.a(natcms.o)
 .reginfo       0x0000000000000000       0x18 /home/liyupeng/zengyao/6.13/DT-W724V-20140311/output/host/usr/mips-unknown-linux-uclibc/sysroot/lib/libnatcms.a(natutil.o)
 .reginfo       0x0000000000000000       0x18 /home/liyupeng/zengyao/6.13/DT-W724V-20140311/output/host/usr/mips-unknown-linux-uclibc/sysroot/lib/libnatcms.a(natdmz.o)
 .reginfo       0x0000000000000000       0x18 /home/liyupeng/zengyao/6.13/DT-W724V-20140311/output/host/usr/mips-unknown-linux-uclibc/sysroot/lib/libnatcms.a(natportmap.o)
 .reginfo       0x0000000000000000       0x18 /home/liyupeng/zengyao/6.13/DT-W724V-20140311/output/host/usr/mips-unknown-linux-uclibc/sysroot/lib/libnatcms.a(prttrgapi.o)
 .reginfo       0x0000000000000000       0x18 /home/liyupeng/zengyao/6.13/DT-W724V-20140311/output/host/usr/mips-unknown-linux-uclibc/sysroot/lib/libnatcms.a(prttrgutil.o)
 .reginfo       0x0000000000000000       0x18 /home/liyupeng/zengyao/6.13/DT-W724V-20140311/output/host/usr/mips-unknown-linux-uclibc/sysroot/lib/libnatcms.a(natcmsctclean.o)
 .reginfo       0x0000000000000000       0x18 /home/liyupeng/zengyao/6.13/DT-W724V-20140311/output/host/usr/mips-unknown-linux-uclibc/sysroot/lib/libndiscms.a(ndiscmsmsgproc.o)
 .reginfo       0x0000000000000000       0x18 /home/liyupeng/zengyao/6.13/DT-W724V-20140311/output/host/usr/mips-unknown-linux-uclibc/sysroot/lib/libneighdisccms.a(neighdisccms.o)
 .reginfo       0x0000000000000000       0x18 /home/liyupeng/zengyao/6.13/DT-W724V-20140311/output/host/usr/mips-unknown-linux-uclibc/sysroot/lib/libpppccms.a(pppcapi.o)
 .reginfo       0x0000000000000000       0x18 /home/liyupeng/zengyao/6.13/DT-W724V-20140311/output/host/usr/mips-unknown-linux-uclibc/sysroot/lib/libpppintfcms.a(pppintfcmsinit.o)
 .reginfo       0x0000000000000000       0x18 /home/liyupeng/zengyao/6.13/DT-W724V-20140311/output/host/usr/mips-unknown-linux-uclibc/sysroot/lib/libpppintfcms.a(pppintfcms.o)
 .reginfo       0x0000000000000000       0x18 /home/liyupeng/zengyao/6.13/DT-W724V-20140311/output/host/usr/mips-unknown-linux-uclibc/sysroot/lib/libpppintfcms.a(pppintfcmsmsg.o)
 .reginfo       0x0000000000000000       0x18 /home/liyupeng/zengyao/6.13/DT-W724V-20140311/output/host/usr/mips-unknown-linux-uclibc/sysroot/lib/libpppintfcms.a(pppintfcmsadapt.o)
 .reginfo       0x0000000000000000       0x18 /home/liyupeng/zengyao/6.13/DT-W724V-20140311/output/host/usr/mips-unknown-linux-uclibc/sysroot/lib/libprivacybtncms.a(privacybtncmsmsgproc.o)
 .reginfo       0x0000000000000000       0x18 /home/liyupeng/zengyao/6.13/DT-W724V-20140311/output/host/usr/mips-unknown-linux-uclibc/sysroot/lib/libprivacybtncms.a(privacybtncms.o)
 .reginfo       0x0000000000000000       0x18 /home/liyupeng/zengyao/6.13/DT-W724V-20140311/output/host/usr/mips-unknown-linux-uclibc/sysroot/lib/libdtqoscms.a(qosapi.o)
 .reginfo       0x0000000000000000       0x18 /home/liyupeng/zengyao/6.13/DT-W724V-20140311/output/host/usr/mips-unknown-linux-uclibc/sysroot/lib/libdtqoscms.a(qosconfig.o)
 .reginfo       0x0000000000000000       0x18 /home/liyupeng/zengyao/6.13/DT-W724V-20140311/output/host/usr/mips-unknown-linux-uclibc/sysroot/lib/libradvdcms.a(radvdcms.o)
 .reginfo       0x0000000000000000       0x18 /home/liyupeng/zengyao/6.13/DT-W724V-20140311/output/host/usr/mips-unknown-linux-uclibc/sysroot/lib/libradvdcms.a(radvdcmsinit.o)
 .reginfo       0x0000000000000000       0x18 /home/liyupeng/zengyao/6.13/DT-W724V-20140311/output/host/usr/mips-unknown-linux-uclibc/sysroot/lib/libradvdcms.a(radvdcmsmsgproc.o)
 .reginfo       0x0000000000000000       0x18 /home/liyupeng/zengyao/6.13/DT-W724V-20140311/output/host/usr/mips-unknown-linux-uclibc/sysroot/lib/libradvdcms.a(radvdcmsapi.o)
 .reginfo       0x0000000000000000       0x18 /home/liyupeng/zengyao/6.13/DT-W724V-20140311/output/host/usr/mips-unknown-linux-uclibc/sysroot/lib/libradvdcms.a(radvdcmsmsgproctr181.o)
 .reginfo       0x0000000000000000       0x18 /home/liyupeng/zengyao/6.13/DT-W724V-20140311/output/host/usr/mips-unknown-linux-uclibc/sysroot/lib/libroute6cms.a(route6cms.o)
 .reginfo       0x0000000000000000       0x18 /home/liyupeng/zengyao/6.13/DT-W724V-20140311/output/host/usr/mips-unknown-linux-uclibc/sysroot/lib/libroute6cms.a(route6cmsinit.o)
 .reginfo       0x0000000000000000       0x18 /home/liyupeng/zengyao/6.13/DT-W724V-20140311/output/host/usr/mips-unknown-linux-uclibc/sysroot/lib/libroute6cms.a(route6cmsmsgproc.o)
 .reginfo       0x0000000000000000       0x18 /home/liyupeng/zengyao/6.13/DT-W724V-20140311/output/host/usr/mips-unknown-linux-uclibc/sysroot/lib/libroute6cms.a(route6cmsapi.o)
 .reginfo       0x0000000000000000       0x18 /home/liyupeng/zengyao/6.13/DT-W724V-20140311/output/host/usr/mips-unknown-linux-uclibc/sysroot/lib/libroutecms.a(routecmsmsgproc.o)
 .reginfo       0x0000000000000000       0x18 /home/liyupeng/zengyao/6.13/DT-W724V-20140311/output/host/usr/mips-unknown-linux-uclibc/sysroot/lib/libroutecms.a(routecmsinit.o)
 .reginfo       0x0000000000000000       0x18 /home/liyupeng/zengyao/6.13/DT-W724V-20140311/output/host/usr/mips-unknown-linux-uclibc/sysroot/lib/libroutecms.a(routecms.o)
 .reginfo       0x0000000000000000       0x18 /home/liyupeng/zengyao/6.13/DT-W724V-20140311/output/host/usr/mips-unknown-linux-uclibc/sysroot/lib/libroutecms.a(routedft.o)
 .reginfo       0x0000000000000000       0x18 /home/liyupeng/zengyao/6.13/DT-W724V-20140311/output/host/usr/mips-unknown-linux-uclibc/sysroot/lib/libroutecms.a(routestatic.o)
 .reginfo       0x0000000000000000       0x18 /home/liyupeng/zengyao/6.13/DT-W724V-20140311/output/host/usr/mips-unknown-linux-uclibc/sysroot/lib/libroutecms.a(routelist.o)
 .reginfo       0x0000000000000000       0x18 /home/liyupeng/zengyao/6.13/DT-W724V-20140311/output/host/usr/mips-unknown-linux-uclibc/sysroot/lib/libsntpcms.a(sntpcms.o)
 .reginfo       0x0000000000000000       0x18 /home/liyupeng/zengyao/6.13/DT-W724V-20140311/output/host/usr/mips-unknown-linux-uclibc/sysroot/lib/libsntpcms.a(sntpcmsposixtime.o)
 .reginfo       0x0000000000000000       0x18 /home/liyupeng/zengyao/6.13/DT-W724V-20140311/output/host/usr/mips-unknown-linux-uclibc/sysroot/lib/libsntpcms.a(sntpcmsmsgproc.o)
 .reginfo       0x0000000000000000       0x18 /home/liyupeng/zengyao/6.13/DT-W724V-20140311/output/host/usr/mips-unknown-linux-uclibc/sysroot/lib/libvlancms.a(vlancms.o)
 .reginfo       0x0000000000000000       0x18 /home/liyupeng/zengyao/6.13/DT-W724V-20140311/output/host/usr/mips-unknown-linux-uclibc/sysroot/lib/libvlancms.a(vlancmsint.o)
 .reginfo       0x0000000000000000       0x18 /home/liyupeng/zengyao/6.13/DT-W724V-20140311/output/host/usr/mips-unknown-linux-uclibc/sysroot/lib/libvlancms.a(vlancmsmsgproc.o)
 .reginfo       0x0000000000000000       0x18 /home/liyupeng/zengyao/6.13/DT-W724V-20140311/output/host/usr/mips-unknown-linux-uclibc/sysroot/lib/libwancorecms.a(wancorecms.o)
 .reginfo       0x0000000000000000       0x18 /home/liyupeng/zengyao/6.13/DT-W724V-20140311/output/host/usr/mips-unknown-linux-uclibc/sysroot/lib/libvlantermcms.a(vlantermcms.o)
 .reginfo       0x0000000000000000       0x18 /home/liyupeng/zengyao/6.13/DT-W724V-20140311/output/host/usr/mips-unknown-linux-uclibc/sysroot/lib/libwlancms.a(wlancmsmsgproc.o)
 .reginfo       0x0000000000000000       0x18 /home/liyupeng/zengyao/6.13/DT-W724V-20140311/output/host/usr/mips-unknown-linux-uclibc/sysroot/lib/libwlancms.a(wlancmsinit.o)
 .reginfo       0x0000000000000000       0x18 /home/liyupeng/zengyao/6.13/DT-W724V-20140311/output/host/usr/mips-unknown-linux-uclibc/sysroot/lib/libwlancms.a(wlancmslal.o)
 .reginfo       0x0000000000000000       0x18 /home/liyupeng/zengyao/6.13/DT-W724V-20140311/output/host/usr/mips-unknown-linux-uclibc/sysroot/lib/libwlancms.a(wlan_tr181.o)
 .reginfo       0x0000000000000000       0x18 /home/liyupeng/zengyao/6.13/DT-W724V-20140311/output/host/usr/mips-unknown-linux-uclibc/sysroot/lib/libwlanbcmcms.a(wlanbcmcms.o)
 .reginfo       0x0000000000000000       0x18 /home/liyupeng/zengyao/6.13/DT-W724V-20140311/output/host/usr/mips-unknown-linux-uclibc/sysroot/lib/libwlanbcmcms.a(wlanbcm963268.o)
 .reginfo       0x0000000000000000       0x18 /home/liyupeng/zengyao/6.13/DT-W724V-20140311/output/host/usr/mips-unknown-linux-uclibc/sysroot/lib/libwlanbcmcms.a(wlanmonitor.o)
 .reginfo       0x0000000000000000       0x18 /home/liyupeng/zengyao/6.13/DT-W724V-20140311/output/host/usr/mips-unknown-linux-uclibc/sysroot/lib/libatmlinkcms.a(atmlinkcmsapi.o)
 .reginfo       0x0000000000000000       0x18 /home/liyupeng/zengyao/6.13/DT-W724V-20140311/output/host/usr/mips-unknown-linux-uclibc/sysroot/lib/libatmlinkcms.a(atmlinkdiag.o)
 .reginfo       0x0000000000000000       0x18 /home/liyupeng/zengyao/6.13/DT-W724V-20140311/output/host/usr/mips-unknown-linux-uclibc/sysroot/lib/libdslchannelcms.a(dslchannelcmsapi.o)
 .reginfo       0x0000000000000000       0x18 /home/liyupeng/zengyao/6.13/DT-W724V-20140311/output/host/usr/mips-unknown-linux-uclibc/sysroot/lib/libdslchannelcms.a(dslchanneldiag.o)
 .reginfo       0x0000000000000000       0x18 /home/liyupeng/zengyao/6.13/DT-W724V-20140311/output/host/usr/mips-unknown-linux-uclibc/sysroot/lib/libdsllinecms.a(dsllinecmsapi.o)
 .reginfo       0x0000000000000000       0x18 /home/liyupeng/zengyao/6.13/DT-W724V-20140311/output/host/usr/mips-unknown-linux-uclibc/sysroot/lib/libptmlinkcms.a(ptmlinkcmsapi.o)
 .reginfo       0x0000000000000000       0x18 /home/liyupeng/zengyao/6.13/DT-W724V-20140311/output/host/usr/mips-unknown-linux-uclibc/sysroot/lib/libdtvoicecms.a(voiceapi.o)
 .reginfo       0x0000000000000000       0x18 /home/liyupeng/zengyao/6.13/DT-W724V-20140311/output/host/usr/mips-unknown-linux-uclibc/sysroot/lib/libdtvoicecms.a(voicecms.o)
 .reginfo       0x0000000000000000       0x18 /home/liyupeng/zengyao/6.13/DT-W724V-20140311/output/host/usr/mips-unknown-linux-uclibc/sysroot/lib/libdtvoicecms.a(voiceutil.o)
 .reginfo       0x0000000000000000       0x18 /home/liyupeng/zengyao/6.13/DT-W724V-20140311/output/host/usr/mips-unknown-linux-uclibc/sysroot/lib/libdtvoicecms.a(voicecfg.o)
 .reginfo       0x0000000000000000       0x18 /home/liyupeng/zengyao/6.13/DT-W724V-20140311/output/host/usr/mips-unknown-linux-uclibc/sysroot/lib/libdtvoicecms.a(IniParser.o)
 .reginfo       0x0000000000000000       0x18 /home/liyupeng/zengyao/6.13/DT-W724V-20140311/output/host/usr/mips-unknown-linux-uclibc/sysroot/lib/libdtvoicecms.a(voicediag.o)
 .reginfo       0x0000000000000000       0x18 /home/liyupeng/zengyao/6.13/DT-W724V-20140311/output/host/usr/mips-unknown-linux-uclibc/sysroot/lib/libdtvoicecms.a(voicecmsmsgproc.o)
 .reginfo       0x0000000000000000       0x18 /home/liyupeng/zengyao/6.13/DT-W724V-20140311/output/host/usr/mips-unknown-linux-uclibc/sysroot/lib/libnetpbcms.a(netphonebookapi.o)
 .reginfo       0x0000000000000000       0x18 /home/liyupeng/zengyao/6.13/DT-W724V-20140311/output/host/usr/mips-unknown-linux-uclibc/sysroot/lib/librsscms.a(rssapi.o)
 .reginfo       0x0000000000000000       0x18 /home/liyupeng/zengyao/6.13/DT-W724V-20140311/output/host/usr/mips-unknown-linux-uclibc/sysroot/lib/librsscms.a(voicersscmsmsgproc.o)
 .reginfo       0x0000000000000000       0x18 /home/liyupeng/zengyao/6.13/DT-W724V-20140311/output/host/usr/mips-unknown-linux-uclibc/sysroot/lib/libemailcms.a(emailapi.o)
 .reginfo       0x0000000000000000       0x18 /home/liyupeng/zengyao/6.13/DT-W724V-20140311/output/host/usr/mips-unknown-linux-uclibc/sysroot/lib/libemailcms.a(emailcms.o)
 .reginfo       0x0000000000000000       0x18 /home/liyupeng/zengyao/6.13/DT-W724V-20140311/output/host/usr/mips-unknown-linux-uclibc/sysroot/lib/libemailcms.a(voiceemailcmsmsgproc.o)
 .reginfo       0x0000000000000000       0x18 /opt/toolchains/crosstools-mips-gcc-4.6-linux-3.4-uclibc-0.9.32-binutils-2.21/usr/lib/gcc/mips-unknown-linux-uclibc/4.6.2/libgcc.a(_fixunsdfsi.o)
 .debug_info    0x0000000000000000       0xd9 /opt/toolchains/crosstools-mips-gcc-4.6-linux-3.4-uclibc-0.9.32-binutils-2.21/usr/lib/gcc/mips-unknown-linux-uclibc/4.6.2/libgcc.a(_fixunsdfsi.o)
 .debug_abbrev  0x0000000000000000       0x5d /opt/toolchains/crosstools-mips-gcc-4.6-linux-3.4-uclibc-0.9.32-binutils-2.21/usr/lib/gcc/mips-unknown-linux-uclibc/4.6.2/libgcc.a(_fixunsdfsi.o)
 .debug_loc     0x0000000000000000       0x38 /opt/toolchains/crosstools-mips-gcc-4.6-linux-3.4-uclibc-0.9.32-binutils-2.21/usr/lib/gcc/mips-unknown-linux-uclibc/4.6.2/libgcc.a(_fixunsdfsi.o)
 .debug_aranges
                0x0000000000000000       0x20 /opt/toolchains/crosstools-mips-gcc-4.6-linux-3.4-uclibc-0.9.32-binutils-2.21/usr/lib/gcc/mips-unknown-linux-uclibc/4.6.2/libgcc.a(_fixunsdfsi.o)
 .debug_line    0x0000000000000000       0xa4 /opt/toolchains/crosstools-mips-gcc-4.6-linux-3.4-uclibc-0.9.32-binutils-2.21/usr/lib/gcc/mips-unknown-linux-uclibc/4.6.2/libgcc.a(_fixunsdfsi.o)
 .debug_str     0x0000000000000000      0x1ab /opt/toolchains/crosstools-mips-gcc-4.6-linux-3.4-uclibc-0.9.32-binutils-2.21/usr/lib/gcc/mips-unknown-linux-uclibc/4.6.2/libgcc.a(_fixunsdfsi.o)
 .debug_frame   0x0000000000000000       0x30 /opt/toolchains/crosstools-mips-gcc-4.6-linux-3.4-uclibc-0.9.32-binutils-2.21/usr/lib/gcc/mips-unknown-linux-uclibc/4.6.2/libgcc.a(_fixunsdfsi.o)
 .reginfo       0x0000000000000000       0x18 /opt/toolchains/crosstools-mips-gcc-4.6-linux-3.4-uclibc-0.9.32-binutils-2.21/usr/lib/gcc/mips-unknown-linux-uclibc/4.6.2/libgcc.a(_udivdi3.o)
 .debug_info    0x0000000000000000      0x5c2 /opt/toolchains/crosstools-mips-gcc-4.6-linux-3.4-uclibc-0.9.32-binutils-2.21/usr/lib/gcc/mips-unknown-linux-uclibc/4.6.2/libgcc.a(_udivdi3.o)
 .debug_abbrev  0x0000000000000000      0x163 /opt/toolchains/crosstools-mips-gcc-4.6-linux-3.4-uclibc-0.9.32-binutils-2.21/usr/lib/gcc/mips-unknown-linux-uclibc/4.6.2/libgcc.a(_udivdi3.o)
 .debug_loc     0x0000000000000000      0x7c6 /opt/toolchains/crosstools-mips-gcc-4.6-linux-3.4-uclibc-0.9.32-binutils-2.21/usr/lib/gcc/mips-unknown-linux-uclibc/4.6.2/libgcc.a(_udivdi3.o)
 .debug_aranges
                0x0000000000000000       0x20 /opt/toolchains/crosstools-mips-gcc-4.6-linux-3.4-uclibc-0.9.32-binutils-2.21/usr/lib/gcc/mips-unknown-linux-uclibc/4.6.2/libgcc.a(_udivdi3.o)
 .debug_ranges  0x0000000000000000       0x58 /opt/toolchains/crosstools-mips-gcc-4.6-linux-3.4-uclibc-0.9.32-binutils-2.21/usr/lib/gcc/mips-unknown-linux-uclibc/4.6.2/libgcc.a(_udivdi3.o)
 .debug_line    0x0000000000000000       0xf4 /opt/toolchains/crosstools-mips-gcc-4.6-linux-3.4-uclibc-0.9.32-binutils-2.21/usr/lib/gcc/mips-unknown-linux-uclibc/4.6.2/libgcc.a(_udivdi3.o)
 .debug_str     0x0000000000000000      0x1f1 /opt/toolchains/crosstools-mips-gcc-4.6-linux-3.4-uclibc-0.9.32-binutils-2.21/usr/lib/gcc/mips-unknown-linux-uclibc/4.6.2/libgcc.a(_udivdi3.o)
 .reginfo       0x0000000000000000       0x18 /opt/toolchains/crosstools-mips-gcc-4.6-linux-3.4-uclibc-0.9.32-binutils-2.21/usr/lib/gcc/mips-unknown-linux-uclibc/4.6.2/libgcc.a(_umoddi3.o)
 .debug_info    0x0000000000000000      0x61b /opt/toolchains/crosstools-mips-gcc-4.6-linux-3.4-uclibc-0.9.32-binutils-2.21/usr/lib/gcc/mips-unknown-linux-uclibc/4.6.2/libgcc.a(_umoddi3.o)
 .debug_abbrev  0x0000000000000000      0x16b /opt/toolchains/crosstools-mips-gcc-4.6-linux-3.4-uclibc-0.9.32-binutils-2.21/usr/lib/gcc/mips-unknown-linux-uclibc/4.6.2/libgcc.a(_umoddi3.o)
 .debug_loc     0x0000000000000000      0x7f1 /opt/toolchains/crosstools-mips-gcc-4.6-linux-3.4-uclibc-0.9.32-binutils-2.21/usr/lib/gcc/mips-unknown-linux-uclibc/4.6.2/libgcc.a(_umoddi3.o)
 .debug_aranges
                0x0000000000000000       0x20 /opt/toolchains/crosstools-mips-gcc-4.6-linux-3.4-uclibc-0.9.32-binutils-2.21/usr/lib/gcc/mips-unknown-linux-uclibc/4.6.2/libgcc.a(_umoddi3.o)
 .debug_ranges  0x0000000000000000       0x68 /opt/toolchains/crosstools-mips-gcc-4.6-linux-3.4-uclibc-0.9.32-binutils-2.21/usr/lib/gcc/mips-unknown-linux-uclibc/4.6.2/libgcc.a(_umoddi3.o)
 .debug_line    0x0000000000000000       0xf4 /opt/toolchains/crosstools-mips-gcc-4.6-linux-3.4-uclibc-0.9.32-binutils-2.21/usr/lib/gcc/mips-unknown-linux-uclibc/4.6.2/libgcc.a(_umoddi3.o)
 .debug_str     0x0000000000000000      0x1f1 /opt/toolchains/crosstools-mips-gcc-4.6-linux-3.4-uclibc-0.9.32-binutils-2.21/usr/lib/gcc/mips-unknown-linux-uclibc/4.6.2/libgcc.a(_umoddi3.o)
 .reginfo       0x0000000000000000       0x18 /opt/toolchains/crosstools-mips-gcc-4.6-linux-3.4-uclibc-0.9.32-binutils-2.21/usr/lib/gcc/mips-unknown-linux-uclibc/4.6.2/libgcc.a(_sf_to_df.o)
 .debug_info    0x0000000000000000      0x20a /opt/toolchains/crosstools-mips-gcc-4.6-linux-3.4-uclibc-0.9.32-binutils-2.21/usr/lib/gcc/mips-unknown-linux-uclibc/4.6.2/libgcc.a(_sf_to_df.o)
 .debug_abbrev  0x0000000000000000       0xfe /opt/toolchains/crosstools-mips-gcc-4.6-linux-3.4-uclibc-0.9.32-binutils-2.21/usr/lib/gcc/mips-unknown-linux-uclibc/4.6.2/libgcc.a(_sf_to_df.o)
 .debug_loc     0x0000000000000000       0x40 /opt/toolchains/crosstools-mips-gcc-4.6-linux-3.4-uclibc-0.9.32-binutils-2.21/usr/lib/gcc/mips-unknown-linux-uclibc/4.6.2/libgcc.a(_sf_to_df.o)
 .debug_aranges
                0x0000000000000000       0x20 /opt/toolchains/crosstools-mips-gcc-4.6-linux-3.4-uclibc-0.9.32-binutils-2.21/usr/lib/gcc/mips-unknown-linux-uclibc/4.6.2/libgcc.a(_sf_to_df.o)
 .debug_line    0x0000000000000000       0xb9 /opt/toolchains/crosstools-mips-gcc-4.6-linux-3.4-uclibc-0.9.32-binutils-2.21/usr/lib/gcc/mips-unknown-linux-uclibc/4.6.2/libgcc.a(_sf_to_df.o)
 .debug_str     0x0000000000000000      0x1eb /opt/toolchains/crosstools-mips-gcc-4.6-linux-3.4-uclibc-0.9.32-binutils-2.21/usr/lib/gcc/mips-unknown-linux-uclibc/4.6.2/libgcc.a(_sf_to_df.o)
 .debug_frame   0x0000000000000000       0x28 /opt/toolchains/crosstools-mips-gcc-4.6-linux-3.4-uclibc-0.9.32-binutils-2.21/usr/lib/gcc/mips-unknown-linux-uclibc/4.6.2/libgcc.a(_sf_to_df.o)
 .reginfo       0x0000000000000000       0x18 /opt/toolchains/crosstools-mips-gcc-4.6-linux-3.4-uclibc-0.9.32-binutils-2.21/usr/lib/gcc/mips-unknown-linux-uclibc/4.6.2/libgcc.a(_usi_to_sf.o)
 .debug_info    0x0000000000000000      0x242 /opt/toolchains/crosstools-mips-gcc-4.6-linux-3.4-uclibc-0.9.32-binutils-2.21/usr/lib/gcc/mips-unknown-linux-uclibc/4.6.2/libgcc.a(_usi_to_sf.o)
 .debug_abbrev  0x0000000000000000      0x166 /opt/toolchains/crosstools-mips-gcc-4.6-linux-3.4-uclibc-0.9.32-binutils-2.21/usr/lib/gcc/mips-unknown-linux-uclibc/4.6.2/libgcc.a(_usi_to_sf.o)
 .debug_loc     0x0000000000000000       0xd6 /opt/toolchains/crosstools-mips-gcc-4.6-linux-3.4-uclibc-0.9.32-binutils-2.21/usr/lib/gcc/mips-unknown-linux-uclibc/4.6.2/libgcc.a(_usi_to_sf.o)
 .debug_aranges
                0x0000000000000000       0x20 /opt/toolchains/crosstools-mips-gcc-4.6-linux-3.4-uclibc-0.9.32-binutils-2.21/usr/lib/gcc/mips-unknown-linux-uclibc/4.6.2/libgcc.a(_usi_to_sf.o)
 .debug_line    0x0000000000000000       0xc5 /opt/toolchains/crosstools-mips-gcc-4.6-linux-3.4-uclibc-0.9.32-binutils-2.21/usr/lib/gcc/mips-unknown-linux-uclibc/4.6.2/libgcc.a(_usi_to_sf.o)
 .debug_str     0x0000000000000000      0x1d9 /opt/toolchains/crosstools-mips-gcc-4.6-linux-3.4-uclibc-0.9.32-binutils-2.21/usr/lib/gcc/mips-unknown-linux-uclibc/4.6.2/libgcc.a(_usi_to_sf.o)
 .debug_frame   0x0000000000000000       0x28 /opt/toolchains/crosstools-mips-gcc-4.6-linux-3.4-uclibc-0.9.32-binutils-2.21/usr/lib/gcc/mips-unknown-linux-uclibc/4.6.2/libgcc.a(_usi_to_sf.o)
 .reginfo       0x0000000000000000       0x18 /opt/toolchains/crosstools-mips-gcc-4.6-linux-3.4-uclibc-0.9.32-binutils-2.21/usr/lib/gcc/mips-unknown-linux-uclibc/4.6.2/libgcc.a(_addsub_df.o)
 .debug_info    0x0000000000000000      0x463 /opt/toolchains/crosstools-mips-gcc-4.6-linux-3.4-uclibc-0.9.32-binutils-2.21/usr/lib/gcc/mips-unknown-linux-uclibc/4.6.2/libgcc.a(_addsub_df.o)
 .debug_abbrev  0x0000000000000000      0x19f /opt/toolchains/crosstools-mips-gcc-4.6-linux-3.4-uclibc-0.9.32-binutils-2.21/usr/lib/gcc/mips-unknown-linux-uclibc/4.6.2/libgcc.a(_addsub_df.o)
 .debug_loc     0x0000000000000000      0x2cb /opt/toolchains/crosstools-mips-gcc-4.6-linux-3.4-uclibc-0.9.32-binutils-2.21/usr/lib/gcc/mips-unknown-linux-uclibc/4.6.2/libgcc.a(_addsub_df.o)
 .debug_aranges
                0x0000000000000000       0x20 /opt/toolchains/crosstools-mips-gcc-4.6-linux-3.4-uclibc-0.9.32-binutils-2.21/usr/lib/gcc/mips-unknown-linux-uclibc/4.6.2/libgcc.a(_addsub_df.o)
 .debug_line    0x0000000000000000      0x16e /opt/toolchains/crosstools-mips-gcc-4.6-linux-3.4-uclibc-0.9.32-binutils-2.21/usr/lib/gcc/mips-unknown-linux-uclibc/4.6.2/libgcc.a(_addsub_df.o)
 .debug_str     0x0000000000000000      0x268 /opt/toolchains/crosstools-mips-gcc-4.6-linux-3.4-uclibc-0.9.32-binutils-2.21/usr/lib/gcc/mips-unknown-linux-uclibc/4.6.2/libgcc.a(_addsub_df.o)
 .debug_frame   0x0000000000000000       0x68 /opt/toolchains/crosstools-mips-gcc-4.6-linux-3.4-uclibc-0.9.32-binutils-2.21/usr/lib/gcc/mips-unknown-linux-uclibc/4.6.2/libgcc.a(_addsub_df.o)
 .reginfo       0x0000000000000000       0x18 /opt/toolchains/crosstools-mips-gcc-4.6-linux-3.4-uclibc-0.9.32-binutils-2.21/usr/lib/gcc/mips-unknown-linux-uclibc/4.6.2/libgcc.a(_mul_df.o)
 .debug_info    0x0000000000000000      0x463 /opt/toolchains/crosstools-mips-gcc-4.6-linux-3.4-uclibc-0.9.32-binutils-2.21/usr/lib/gcc/mips-unknown-linux-uclibc/4.6.2/libgcc.a(_mul_df.o)
 .debug_abbrev  0x0000000000000000      0x1c0 /opt/toolchains/crosstools-mips-gcc-4.6-linux-3.4-uclibc-0.9.32-binutils-2.21/usr/lib/gcc/mips-unknown-linux-uclibc/4.6.2/libgcc.a(_mul_df.o)
 .debug_loc     0x0000000000000000      0x2ea /opt/toolchains/crosstools-mips-gcc-4.6-linux-3.4-uclibc-0.9.32-binutils-2.21/usr/lib/gcc/mips-unknown-linux-uclibc/4.6.2/libgcc.a(_mul_df.o)
 .debug_aranges
                0x0000000000000000       0x20 /opt/toolchains/crosstools-mips-gcc-4.6-linux-3.4-uclibc-0.9.32-binutils-2.21/usr/lib/gcc/mips-unknown-linux-uclibc/4.6.2/libgcc.a(_mul_df.o)
 .debug_ranges  0x0000000000000000       0x50 /opt/toolchains/crosstools-mips-gcc-4.6-linux-3.4-uclibc-0.9.32-binutils-2.21/usr/lib/gcc/mips-unknown-linux-uclibc/4.6.2/libgcc.a(_mul_df.o)
 .debug_line    0x0000000000000000      0x135 /opt/toolchains/crosstools-mips-gcc-4.6-linux-3.4-uclibc-0.9.32-binutils-2.21/usr/lib/gcc/mips-unknown-linux-uclibc/4.6.2/libgcc.a(_mul_df.o)
 .debug_str     0x0000000000000000      0x23a /opt/toolchains/crosstools-mips-gcc-4.6-linux-3.4-uclibc-0.9.32-binutils-2.21/usr/lib/gcc/mips-unknown-linux-uclibc/4.6.2/libgcc.a(_mul_df.o)
 .debug_frame   0x0000000000000000       0x28 /opt/toolchains/crosstools-mips-gcc-4.6-linux-3.4-uclibc-0.9.32-binutils-2.21/usr/lib/gcc/mips-unknown-linux-uclibc/4.6.2/libgcc.a(_mul_df.o)
 .reginfo       0x0000000000000000       0x18 /opt/toolchains/crosstools-mips-gcc-4.6-linux-3.4-uclibc-0.9.32-binutils-2.21/usr/lib/gcc/mips-unknown-linux-uclibc/4.6.2/libgcc.a(_ge_df.o)
 .debug_info    0x0000000000000000      0x257 /opt/toolchains/crosstools-mips-gcc-4.6-linux-3.4-uclibc-0.9.32-binutils-2.21/usr/lib/gcc/mips-unknown-linux-uclibc/4.6.2/libgcc.a(_ge_df.o)
 .debug_abbrev  0x0000000000000000      0x127 /opt/toolchains/crosstools-mips-gcc-4.6-linux-3.4-uclibc-0.9.32-binutils-2.21/usr/lib/gcc/mips-unknown-linux-uclibc/4.6.2/libgcc.a(_ge_df.o)
 .debug_loc     0x0000000000000000       0x51 /opt/toolchains/crosstools-mips-gcc-4.6-linux-3.4-uclibc-0.9.32-binutils-2.21/usr/lib/gcc/mips-unknown-linux-uclibc/4.6.2/libgcc.a(_ge_df.o)
 .debug_aranges
                0x0000000000000000       0x20 /opt/toolchains/crosstools-mips-gcc-4.6-linux-3.4-uclibc-0.9.32-binutils-2.21/usr/lib/gcc/mips-unknown-linux-uclibc/4.6.2/libgcc.a(_ge_df.o)
 .debug_line    0x0000000000000000       0xbf /opt/toolchains/crosstools-mips-gcc-4.6-linux-3.4-uclibc-0.9.32-binutils-2.21/usr/lib/gcc/mips-unknown-linux-uclibc/4.6.2/libgcc.a(_ge_df.o)
 .debug_str     0x0000000000000000      0x1f0 /opt/toolchains/crosstools-mips-gcc-4.6-linux-3.4-uclibc-0.9.32-binutils-2.21/usr/lib/gcc/mips-unknown-linux-uclibc/4.6.2/libgcc.a(_ge_df.o)
 .debug_frame   0x0000000000000000       0x28 /opt/toolchains/crosstools-mips-gcc-4.6-linux-3.4-uclibc-0.9.32-binutils-2.21/usr/lib/gcc/mips-unknown-linux-uclibc/4.6.2/libgcc.a(_ge_df.o)
 .reginfo       0x0000000000000000       0x18 /opt/toolchains/crosstools-mips-gcc-4.6-linux-3.4-uclibc-0.9.32-binutils-2.21/usr/lib/gcc/mips-unknown-linux-uclibc/4.6.2/libgcc.a(_df_to_si.o)
 .debug_info    0x0000000000000000      0x28b /opt/toolchains/crosstools-mips-gcc-4.6-linux-3.4-uclibc-0.9.32-binutils-2.21/usr/lib/gcc/mips-unknown-linux-uclibc/4.6.2/libgcc.a(_df_to_si.o)
 .debug_abbrev  0x0000000000000000      0x14e /opt/toolchains/crosstools-mips-gcc-4.6-linux-3.4-uclibc-0.9.32-binutils-2.21/usr/lib/gcc/mips-unknown-linux-uclibc/4.6.2/libgcc.a(_df_to_si.o)
 .debug_loc     0x0000000000000000       0x65 /opt/toolchains/crosstools-mips-gcc-4.6-linux-3.4-uclibc-0.9.32-binutils-2.21/usr/lib/gcc/mips-unknown-linux-uclibc/4.6.2/libgcc.a(_df_to_si.o)
 .debug_aranges
                0x0000000000000000       0x20 /opt/toolchains/crosstools-mips-gcc-4.6-linux-3.4-uclibc-0.9.32-binutils-2.21/usr/lib/gcc/mips-unknown-linux-uclibc/4.6.2/libgcc.a(_df_to_si.o)
 .debug_line    0x0000000000000000       0xcf /opt/toolchains/crosstools-mips-gcc-4.6-linux-3.4-uclibc-0.9.32-binutils-2.21/usr/lib/gcc/mips-unknown-linux-uclibc/4.6.2/libgcc.a(_df_to_si.o)
 .debug_str     0x0000000000000000      0x1f8 /opt/toolchains/crosstools-mips-gcc-4.6-linux-3.4-uclibc-0.9.32-binutils-2.21/usr/lib/gcc/mips-unknown-linux-uclibc/4.6.2/libgcc.a(_df_to_si.o)
 .debug_frame   0x0000000000000000       0x28 /opt/toolchains/crosstools-mips-gcc-4.6-linux-3.4-uclibc-0.9.32-binutils-2.21/usr/lib/gcc/mips-unknown-linux-uclibc/4.6.2/libgcc.a(_df_to_si.o)
 .reginfo       0x0000000000000000       0x18 /opt/toolchains/crosstools-mips-gcc-4.6-linux-3.4-uclibc-0.9.32-binutils-2.21/usr/lib/gcc/mips-unknown-linux-uclibc/4.6.2/libgcc.a(_make_df.o)
 .debug_info    0x0000000000000000      0x1dc /opt/toolchains/crosstools-mips-gcc-4.6-linux-3.4-uclibc-0.9.32-binutils-2.21/usr/lib/gcc/mips-unknown-linux-uclibc/4.6.2/libgcc.a(_make_df.o)
 .debug_abbrev  0x0000000000000000      0x10f /opt/toolchains/crosstools-mips-gcc-4.6-linux-3.4-uclibc-0.9.32-binutils-2.21/usr/lib/gcc/mips-unknown-linux-uclibc/4.6.2/libgcc.a(_make_df.o)
 .debug_loc     0x0000000000000000       0x65 /opt/toolchains/crosstools-mips-gcc-4.6-linux-3.4-uclibc-0.9.32-binutils-2.21/usr/lib/gcc/mips-unknown-linux-uclibc/4.6.2/libgcc.a(_make_df.o)
 .debug_aranges
                0x0000000000000000       0x20 /opt/toolchains/crosstools-mips-gcc-4.6-linux-3.4-uclibc-0.9.32-binutils-2.21/usr/lib/gcc/mips-unknown-linux-uclibc/4.6.2/libgcc.a(_make_df.o)
 .debug_line    0x0000000000000000       0xbb /opt/toolchains/crosstools-mips-gcc-4.6-linux-3.4-uclibc-0.9.32-binutils-2.21/usr/lib/gcc/mips-unknown-linux-uclibc/4.6.2/libgcc.a(_make_df.o)
 .debug_str     0x0000000000000000      0x1af /opt/toolchains/crosstools-mips-gcc-4.6-linux-3.4-uclibc-0.9.32-binutils-2.21/usr/lib/gcc/mips-unknown-linux-uclibc/4.6.2/libgcc.a(_make_df.o)
 .debug_frame   0x0000000000000000       0x28 /opt/toolchains/crosstools-mips-gcc-4.6-linux-3.4-uclibc-0.9.32-binutils-2.21/usr/lib/gcc/mips-unknown-linux-uclibc/4.6.2/libgcc.a(_make_df.o)
 .reginfo       0x0000000000000000       0x18 /opt/toolchains/crosstools-mips-gcc-4.6-linux-3.4-uclibc-0.9.32-binutils-2.21/usr/lib/gcc/mips-unknown-linux-uclibc/4.6.2/libgcc.a(_df_to_sf.o)
 .debug_info    0x0000000000000000      0x21b /opt/toolchains/crosstools-mips-gcc-4.6-linux-3.4-uclibc-0.9.32-binutils-2.21/usr/lib/gcc/mips-unknown-linux-uclibc/4.6.2/libgcc.a(_df_to_sf.o)
 .debug_abbrev  0x0000000000000000      0x10d /opt/toolchains/crosstools-mips-gcc-4.6-linux-3.4-uclibc-0.9.32-binutils-2.21/usr/lib/gcc/mips-unknown-linux-uclibc/4.6.2/libgcc.a(_df_to_sf.o)
 .debug_loc     0x0000000000000000       0x6f /opt/toolchains/crosstools-mips-gcc-4.6-linux-3.4-uclibc-0.9.32-binutils-2.21/usr/lib/gcc/mips-unknown-linux-uclibc/4.6.2/libgcc.a(_df_to_sf.o)
 .debug_aranges
                0x0000000000000000       0x20 /opt/toolchains/crosstools-mips-gcc-4.6-linux-3.4-uclibc-0.9.32-binutils-2.21/usr/lib/gcc/mips-unknown-linux-uclibc/4.6.2/libgcc.a(_df_to_sf.o)
 .debug_line    0x0000000000000000       0xc7 /opt/toolchains/crosstools-mips-gcc-4.6-linux-3.4-uclibc-0.9.32-binutils-2.21/usr/lib/gcc/mips-unknown-linux-uclibc/4.6.2/libgcc.a(_df_to_sf.o)
 .debug_str     0x0000000000000000      0x1ef /opt/toolchains/crosstools-mips-gcc-4.6-linux-3.4-uclibc-0.9.32-binutils-2.21/usr/lib/gcc/mips-unknown-linux-uclibc/4.6.2/libgcc.a(_df_to_sf.o)
 .debug_frame   0x0000000000000000       0x28 /opt/toolchains/crosstools-mips-gcc-4.6-linux-3.4-uclibc-0.9.32-binutils-2.21/usr/lib/gcc/mips-unknown-linux-uclibc/4.6.2/libgcc.a(_df_to_sf.o)
 .reginfo       0x0000000000000000       0x18 /opt/toolchains/crosstools-mips-gcc-4.6-linux-3.4-uclibc-0.9.32-binutils-2.21/usr/lib/gcc/mips-unknown-linux-uclibc/4.6.2/libgcc.a(_thenan_df.o)
 .debug_info    0x0000000000000000      0x16a /opt/toolchains/crosstools-mips-gcc-4.6-linux-3.4-uclibc-0.9.32-binutils-2.21/usr/lib/gcc/mips-unknown-linux-uclibc/4.6.2/libgcc.a(_thenan_df.o)
 .debug_abbrev  0x0000000000000000       0xcb /opt/toolchains/crosstools-mips-gcc-4.6-linux-3.4-uclibc-0.9.32-binutils-2.21/usr/lib/gcc/mips-unknown-linux-uclibc/4.6.2/libgcc.a(_thenan_df.o)
 .debug_line    0x0000000000000000       0x9b /opt/toolchains/crosstools-mips-gcc-4.6-linux-3.4-uclibc-0.9.32-binutils-2.21/usr/lib/gcc/mips-unknown-linux-uclibc/4.6.2/libgcc.a(_thenan_df.o)
 .debug_str     0x0000000000000000      0x199 /opt/toolchains/crosstools-mips-gcc-4.6-linux-3.4-uclibc-0.9.32-binutils-2.21/usr/lib/gcc/mips-unknown-linux-uclibc/4.6.2/libgcc.a(_thenan_df.o)
 .reginfo       0x0000000000000000       0x18 /opt/toolchains/crosstools-mips-gcc-4.6-linux-3.4-uclibc-0.9.32-binutils-2.21/usr/lib/gcc/mips-unknown-linux-uclibc/4.6.2/libgcc.a(_lshrdi3.o)
 .debug_info    0x0000000000000000      0x197 /opt/toolchains/crosstools-mips-gcc-4.6-linux-3.4-uclibc-0.9.32-binutils-2.21/usr/lib/gcc/mips-unknown-linux-uclibc/4.6.2/libgcc.a(_lshrdi3.o)
 .debug_abbrev  0x0000000000000000       0xfd /opt/toolchains/crosstools-mips-gcc-4.6-linux-3.4-uclibc-0.9.32-binutils-2.21/usr/lib/gcc/mips-unknown-linux-uclibc/4.6.2/libgcc.a(_lshrdi3.o)
 .debug_loc     0x0000000000000000       0x53 /opt/toolchains/crosstools-mips-gcc-4.6-linux-3.4-uclibc-0.9.32-binutils-2.21/usr/lib/gcc/mips-unknown-linux-uclibc/4.6.2/libgcc.a(_lshrdi3.o)
 .debug_aranges
                0x0000000000000000       0x20 /opt/toolchains/crosstools-mips-gcc-4.6-linux-3.4-uclibc-0.9.32-binutils-2.21/usr/lib/gcc/mips-unknown-linux-uclibc/4.6.2/libgcc.a(_lshrdi3.o)
 .debug_line    0x0000000000000000       0xa5 /opt/toolchains/crosstools-mips-gcc-4.6-linux-3.4-uclibc-0.9.32-binutils-2.21/usr/lib/gcc/mips-unknown-linux-uclibc/4.6.2/libgcc.a(_lshrdi3.o)
 .debug_str     0x0000000000000000      0x1d7 /opt/toolchains/crosstools-mips-gcc-4.6-linux-3.4-uclibc-0.9.32-binutils-2.21/usr/lib/gcc/mips-unknown-linux-uclibc/4.6.2/libgcc.a(_lshrdi3.o)
 .debug_frame   0x0000000000000000       0x20 /opt/toolchains/crosstools-mips-gcc-4.6-linux-3.4-uclibc-0.9.32-binutils-2.21/usr/lib/gcc/mips-unknown-linux-uclibc/4.6.2/libgcc.a(_lshrdi3.o)
 .reginfo       0x0000000000000000       0x18 /opt/toolchains/crosstools-mips-gcc-4.6-linux-3.4-uclibc-0.9.32-binutils-2.21/usr/lib/gcc/mips-unknown-linux-uclibc/4.6.2/libgcc.a(_ashldi3.o)
 .debug_info    0x0000000000000000      0x197 /opt/toolchains/crosstools-mips-gcc-4.6-linux-3.4-uclibc-0.9.32-binutils-2.21/usr/lib/gcc/mips-unknown-linux-uclibc/4.6.2/libgcc.a(_ashldi3.o)
 .debug_abbrev  0x0000000000000000       0xfd /opt/toolchains/crosstools-mips-gcc-4.6-linux-3.4-uclibc-0.9.32-binutils-2.21/usr/lib/gcc/mips-unknown-linux-uclibc/4.6.2/libgcc.a(_ashldi3.o)
 .debug_loc     0x0000000000000000       0x4e /opt/toolchains/crosstools-mips-gcc-4.6-linux-3.4-uclibc-0.9.32-binutils-2.21/usr/lib/gcc/mips-unknown-linux-uclibc/4.6.2/libgcc.a(_ashldi3.o)
 .debug_aranges
                0x0000000000000000       0x20 /opt/toolchains/crosstools-mips-gcc-4.6-linux-3.4-uclibc-0.9.32-binutils-2.21/usr/lib/gcc/mips-unknown-linux-uclibc/4.6.2/libgcc.a(_ashldi3.o)
 .debug_line    0x0000000000000000       0xa5 /opt/toolchains/crosstools-mips-gcc-4.6-linux-3.4-uclibc-0.9.32-binutils-2.21/usr/lib/gcc/mips-unknown-linux-uclibc/4.6.2/libgcc.a(_ashldi3.o)
 .debug_str     0x0000000000000000      0x1d7 /opt/toolchains/crosstools-mips-gcc-4.6-linux-3.4-uclibc-0.9.32-binutils-2.21/usr/lib/gcc/mips-unknown-linux-uclibc/4.6.2/libgcc.a(_ashldi3.o)
 .debug_frame   0x0000000000000000       0x20 /opt/toolchains/crosstools-mips-gcc-4.6-linux-3.4-uclibc-0.9.32-binutils-2.21/usr/lib/gcc/mips-unknown-linux-uclibc/4.6.2/libgcc.a(_ashldi3.o)
 .reginfo       0x0000000000000000       0x18 /opt/toolchains/crosstools-mips-gcc-4.6-linux-3.4-uclibc-0.9.32-binutils-2.21/usr/lib/gcc/mips-unknown-linux-uclibc/4.6.2/libgcc.a(_pack_sf.o)
 .debug_info    0x0000000000000000      0x2b9 /opt/toolchains/crosstools-mips-gcc-4.6-linux-3.4-uclibc-0.9.32-binutils-2.21/usr/lib/gcc/mips-unknown-linux-uclibc/4.6.2/libgcc.a(_pack_sf.o)
 .debug_abbrev  0x0000000000000000      0x168 /opt/toolchains/crosstools-mips-gcc-4.6-linux-3.4-uclibc-0.9.32-binutils-2.21/usr/lib/gcc/mips-unknown-linux-uclibc/4.6.2/libgcc.a(_pack_sf.o)
 .debug_loc     0x0000000000000000      0x1e8 /opt/toolchains/crosstools-mips-gcc-4.6-linux-3.4-uclibc-0.9.32-binutils-2.21/usr/lib/gcc/mips-unknown-linux-uclibc/4.6.2/libgcc.a(_pack_sf.o)
 .debug_aranges
                0x0000000000000000       0x20 /opt/toolchains/crosstools-mips-gcc-4.6-linux-3.4-uclibc-0.9.32-binutils-2.21/usr/lib/gcc/mips-unknown-linux-uclibc/4.6.2/libgcc.a(_pack_sf.o)
 .debug_line    0x0000000000000000       0xe8 /opt/toolchains/crosstools-mips-gcc-4.6-linux-3.4-uclibc-0.9.32-binutils-2.21/usr/lib/gcc/mips-unknown-linux-uclibc/4.6.2/libgcc.a(_pack_sf.o)
 .debug_str     0x0000000000000000      0x1f1 /opt/toolchains/crosstools-mips-gcc-4.6-linux-3.4-uclibc-0.9.32-binutils-2.21/usr/lib/gcc/mips-unknown-linux-uclibc/4.6.2/libgcc.a(_pack_sf.o)
 .debug_frame   0x0000000000000000       0x20 /opt/toolchains/crosstools-mips-gcc-4.6-linux-3.4-uclibc-0.9.32-binutils-2.21/usr/lib/gcc/mips-unknown-linux-uclibc/4.6.2/libgcc.a(_pack_sf.o)
 .reginfo       0x0000000000000000       0x18 /opt/toolchains/crosstools-mips-gcc-4.6-linux-3.4-uclibc-0.9.32-binutils-2.21/usr/lib/gcc/mips-unknown-linux-uclibc/4.6.2/libgcc.a(_unpack_sf.o)
 .debug_info    0x0000000000000000      0x21d /opt/toolchains/crosstools-mips-gcc-4.6-linux-3.4-uclibc-0.9.32-binutils-2.21/usr/lib/gcc/mips-unknown-linux-uclibc/4.6.2/libgcc.a(_unpack_sf.o)
 .debug_abbrev  0x0000000000000000      0x123 /opt/toolchains/crosstools-mips-gcc-4.6-linux-3.4-uclibc-0.9.32-binutils-2.21/usr/lib/gcc/mips-unknown-linux-uclibc/4.6.2/libgcc.a(_unpack_sf.o)
 .debug_loc     0x0000000000000000       0xa6 /opt/toolchains/crosstools-mips-gcc-4.6-linux-3.4-uclibc-0.9.32-binutils-2.21/usr/lib/gcc/mips-unknown-linux-uclibc/4.6.2/libgcc.a(_unpack_sf.o)
 .debug_aranges
                0x0000000000000000       0x20 /opt/toolchains/crosstools-mips-gcc-4.6-linux-3.4-uclibc-0.9.32-binutils-2.21/usr/lib/gcc/mips-unknown-linux-uclibc/4.6.2/libgcc.a(_unpack_sf.o)
 .debug_line    0x0000000000000000       0xd3 /opt/toolchains/crosstools-mips-gcc-4.6-linux-3.4-uclibc-0.9.32-binutils-2.21/usr/lib/gcc/mips-unknown-linux-uclibc/4.6.2/libgcc.a(_unpack_sf.o)
 .debug_str     0x0000000000000000      0x1d3 /opt/toolchains/crosstools-mips-gcc-4.6-linux-3.4-uclibc-0.9.32-binutils-2.21/usr/lib/gcc/mips-unknown-linux-uclibc/4.6.2/libgcc.a(_unpack_sf.o)
 .debug_frame   0x0000000000000000       0x20 /opt/toolchains/crosstools-mips-gcc-4.6-linux-3.4-uclibc-0.9.32-binutils-2.21/usr/lib/gcc/mips-unknown-linux-uclibc/4.6.2/libgcc.a(_unpack_sf.o)
 .reginfo       0x0000000000000000       0x18 /opt/toolchains/crosstools-mips-gcc-4.6-linux-3.4-uclibc-0.9.32-binutils-2.21/usr/lib/gcc/mips-unknown-linux-uclibc/4.6.2/libgcc.a(_make_sf.o)
 .debug_info    0x0000000000000000      0x1dd /opt/toolchains/crosstools-mips-gcc-4.6-linux-3.4-uclibc-0.9.32-binutils-2.21/usr/lib/gcc/mips-unknown-linux-uclibc/4.6.2/libgcc.a(_make_sf.o)
 .debug_abbrev  0x0000000000000000      0x100 /opt/toolchains/crosstools-mips-gcc-4.6-linux-3.4-uclibc-0.9.32-binutils-2.21/usr/lib/gcc/mips-unknown-linux-uclibc/4.6.2/libgcc.a(_make_sf.o)
 .debug_loc     0x0000000000000000       0x78 /opt/toolchains/crosstools-mips-gcc-4.6-linux-3.4-uclibc-0.9.32-binutils-2.21/usr/lib/gcc/mips-unknown-linux-uclibc/4.6.2/libgcc.a(_make_sf.o)
 .debug_aranges
                0x0000000000000000       0x20 /opt/toolchains/crosstools-mips-gcc-4.6-linux-3.4-uclibc-0.9.32-binutils-2.21/usr/lib/gcc/mips-unknown-linux-uclibc/4.6.2/libgcc.a(_make_sf.o)
 .debug_line    0x0000000000000000       0xba /opt/toolchains/crosstools-mips-gcc-4.6-linux-3.4-uclibc-0.9.32-binutils-2.21/usr/lib/gcc/mips-unknown-linux-uclibc/4.6.2/libgcc.a(_make_sf.o)
 .debug_str     0x0000000000000000      0x1af /opt/toolchains/crosstools-mips-gcc-4.6-linux-3.4-uclibc-0.9.32-binutils-2.21/usr/lib/gcc/mips-unknown-linux-uclibc/4.6.2/libgcc.a(_make_sf.o)
 .debug_frame   0x0000000000000000       0x28 /opt/toolchains/crosstools-mips-gcc-4.6-linux-3.4-uclibc-0.9.32-binutils-2.21/usr/lib/gcc/mips-unknown-linux-uclibc/4.6.2/libgcc.a(_make_sf.o)
 .reginfo       0x0000000000000000       0x18 /opt/toolchains/crosstools-mips-gcc-4.6-linux-3.4-uclibc-0.9.32-binutils-2.21/usr/lib/gcc/mips-unknown-linux-uclibc/4.6.2/libgcc.a(_pack_df.o)
 .debug_info    0x0000000000000000      0x2be /opt/toolchains/crosstools-mips-gcc-4.6-linux-3.4-uclibc-0.9.32-binutils-2.21/usr/lib/gcc/mips-unknown-linux-uclibc/4.6.2/libgcc.a(_pack_df.o)
 .debug_abbrev  0x0000000000000000      0x182 /opt/toolchains/crosstools-mips-gcc-4.6-linux-3.4-uclibc-0.9.32-binutils-2.21/usr/lib/gcc/mips-unknown-linux-uclibc/4.6.2/libgcc.a(_pack_df.o)
 .debug_loc     0x0000000000000000      0x1bc /opt/toolchains/crosstools-mips-gcc-4.6-linux-3.4-uclibc-0.9.32-binutils-2.21/usr/lib/gcc/mips-unknown-linux-uclibc/4.6.2/libgcc.a(_pack_df.o)
 .debug_aranges
                0x0000000000000000       0x20 /opt/toolchains/crosstools-mips-gcc-4.6-linux-3.4-uclibc-0.9.32-binutils-2.21/usr/lib/gcc/mips-unknown-linux-uclibc/4.6.2/libgcc.a(_pack_df.o)
 .debug_line    0x0000000000000000      0x106 /opt/toolchains/crosstools-mips-gcc-4.6-linux-3.4-uclibc-0.9.32-binutils-2.21/usr/lib/gcc/mips-unknown-linux-uclibc/4.6.2/libgcc.a(_pack_df.o)
 .debug_str     0x0000000000000000      0x1f7 /opt/toolchains/crosstools-mips-gcc-4.6-linux-3.4-uclibc-0.9.32-binutils-2.21/usr/lib/gcc/mips-unknown-linux-uclibc/4.6.2/libgcc.a(_pack_df.o)
 .debug_frame   0x0000000000000000       0x38 /opt/toolchains/crosstools-mips-gcc-4.6-linux-3.4-uclibc-0.9.32-binutils-2.21/usr/lib/gcc/mips-unknown-linux-uclibc/4.6.2/libgcc.a(_pack_df.o)
 .reginfo       0x0000000000000000       0x18 /opt/toolchains/crosstools-mips-gcc-4.6-linux-3.4-uclibc-0.9.32-binutils-2.21/usr/lib/gcc/mips-unknown-linux-uclibc/4.6.2/libgcc.a(_unpack_df.o)
 .debug_info    0x0000000000000000      0x225 /opt/toolchains/crosstools-mips-gcc-4.6-linux-3.4-uclibc-0.9.32-binutils-2.21/usr/lib/gcc/mips-unknown-linux-uclibc/4.6.2/libgcc.a(_unpack_df.o)
 .debug_abbrev  0x0000000000000000      0x130 /opt/toolchains/crosstools-mips-gcc-4.6-linux-3.4-uclibc-0.9.32-binutils-2.21/usr/lib/gcc/mips-unknown-linux-uclibc/4.6.2/libgcc.a(_unpack_df.o)
 .debug_loc     0x0000000000000000       0xa8 /opt/toolchains/crosstools-mips-gcc-4.6-linux-3.4-uclibc-0.9.32-binutils-2.21/usr/lib/gcc/mips-unknown-linux-uclibc/4.6.2/libgcc.a(_unpack_df.o)
 .debug_aranges
                0x0000000000000000       0x20 /opt/toolchains/crosstools-mips-gcc-4.6-linux-3.4-uclibc-0.9.32-binutils-2.21/usr/lib/gcc/mips-unknown-linux-uclibc/4.6.2/libgcc.a(_unpack_df.o)
 .debug_line    0x0000000000000000       0xe3 /opt/toolchains/crosstools-mips-gcc-4.6-linux-3.4-uclibc-0.9.32-binutils-2.21/usr/lib/gcc/mips-unknown-linux-uclibc/4.6.2/libgcc.a(_unpack_df.o)
 .debug_str     0x0000000000000000      0x1d9 /opt/toolchains/crosstools-mips-gcc-4.6-linux-3.4-uclibc-0.9.32-binutils-2.21/usr/lib/gcc/mips-unknown-linux-uclibc/4.6.2/libgcc.a(_unpack_df.o)
 .debug_frame   0x0000000000000000       0x20 /opt/toolchains/crosstools-mips-gcc-4.6-linux-3.4-uclibc-0.9.32-binutils-2.21/usr/lib/gcc/mips-unknown-linux-uclibc/4.6.2/libgcc.a(_unpack_df.o)
 .reginfo       0x0000000000000000       0x18 /opt/toolchains/crosstools-mips-gcc-4.6-linux-3.4-uclibc-0.9.32-binutils-2.21/usr/lib/gcc/mips-unknown-linux-uclibc/4.6.2/libgcc.a(_fpcmp_parts_df.o)
 .debug_info    0x0000000000000000      0x234 /opt/toolchains/crosstools-mips-gcc-4.6-linux-3.4-uclibc-0.9.32-binutils-2.21/usr/lib/gcc/mips-unknown-linux-uclibc/4.6.2/libgcc.a(_fpcmp_parts_df.o)
 .debug_abbrev  0x0000000000000000      0x134 /opt/toolchains/crosstools-mips-gcc-4.6-linux-3.4-uclibc-0.9.32-binutils-2.21/usr/lib/gcc/mips-unknown-linux-uclibc/4.6.2/libgcc.a(_fpcmp_parts_df.o)
 .debug_loc     0x0000000000000000       0xa4 /opt/toolchains/crosstools-mips-gcc-4.6-linux-3.4-uclibc-0.9.32-binutils-2.21/usr/lib/gcc/mips-unknown-linux-uclibc/4.6.2/libgcc.a(_fpcmp_parts_df.o)
 .debug_aranges
                0x0000000000000000       0x20 /opt/toolchains/crosstools-mips-gcc-4.6-linux-3.4-uclibc-0.9.32-binutils-2.21/usr/lib/gcc/mips-unknown-linux-uclibc/4.6.2/libgcc.a(_fpcmp_parts_df.o)
 .debug_line    0x0000000000000000       0xd4 /opt/toolchains/crosstools-mips-gcc-4.6-linux-3.4-uclibc-0.9.32-binutils-2.21/usr/lib/gcc/mips-unknown-linux-uclibc/4.6.2/libgcc.a(_fpcmp_parts_df.o)
 .debug_str     0x0000000000000000      0x1bc /opt/toolchains/crosstools-mips-gcc-4.6-linux-3.4-uclibc-0.9.32-binutils-2.21/usr/lib/gcc/mips-unknown-linux-uclibc/4.6.2/libgcc.a(_fpcmp_parts_df.o)
 .debug_frame   0x0000000000000000       0x20 /opt/toolchains/crosstools-mips-gcc-4.6-linux-3.4-uclibc-0.9.32-binutils-2.21/usr/lib/gcc/mips-unknown-linux-uclibc/4.6.2/libgcc.a(_fpcmp_parts_df.o)
 .reginfo       0x0000000000000000       0x18 /opt/toolchains/crosstools-mips-gcc-4.6-linux-3.4-uclibc-0.9.32-binutils-2.21/usr/lib/gcc/mips-unknown-linux-uclibc/4.6.2/crtend.o
 .reginfo       0x0000000000000000       0x18 /home/liyupeng/zengyao/6.13/DT-W724V-20140311/output/host/usr/mips-unknown-linux-uclibc/sysroot/usr/lib/crtn.o

Memory Configuration

Name             Origin             Length             Attributes
*default*        0x0000000000000000 0xffffffffffffffff

Linker script and memory map

LOAD /home/liyupeng/zengyao/6.13/DT-W724V-20140311/output/host/usr/mips-unknown-linux-uclibc/sysroot/usr/lib/crt1.o
LOAD /home/liyupeng/zengyao/6.13/DT-W724V-20140311/output/host/usr/mips-unknown-linux-uclibc/sysroot/usr/lib/crti.o
LOAD /opt/toolchains/crosstools-mips-gcc-4.6-linux-3.4-uclibc-0.9.32-binutils-2.21/usr/lib/gcc/mips-unknown-linux-uclibc/4.6.2/crtbegin.o
LOAD /home/liyupeng/zengyao/6.13/DT-W724V-20140311/output/package/atp/configuration/cmsmain/management.o
LOAD /home/liyupeng/zengyao/6.13/DT-W724V-20140311/output/package/atp/configuration/cmsmain/cmsmonitor.o
LOAD /home/liyupeng/zengyao/6.13/DT-W724V-20140311/output/package/atp/configuration/cmsmain/cmsinit.o
LOAD /home/liyupeng/zengyao/6.13/DT-W724V-20140311/output/host/usr/mips-unknown-linux-uclibc/sysroot/lib/libcmscore.a
LOAD /home/liyupeng/zengyao/6.13/DT-W724V-20140311/output/host/usr/mips-unknown-linux-uclibc/sysroot/lib/libinterfacecore.a
LOAD /home/liyupeng/zengyao/6.13/DT-W724V-20140311/output/host/usr/mips-unknown-linux-uclibc/sysroot/lib/libdmscms.a
LOAD /home/liyupeng/zengyao/6.13/DT-W724V-20140311/output/host/usr/mips-unknown-linux-uclibc/sysroot/lib/libledservicecms.a
LOAD /home/liyupeng/zengyao/6.13/DT-W724V-20140311/output/host/usr/mips-unknown-linux-uclibc/sysroot/lib/libnascms.a
LOAD /home/liyupeng/zengyao/6.13/DT-W724V-20140311/output/host/usr/mips-unknown-linux-uclibc/sysroot/lib/liboamcms.a
LOAD /home/liyupeng/zengyao/6.13/DT-W724V-20140311/output/host/usr/mips-unknown-linux-uclibc/sysroot/lib/libtr143cms.a
LOAD /home/liyupeng/zengyao/6.13/DT-W724V-20140311/output/host/usr/mips-unknown-linux-uclibc/sysroot/lib/libusbmngrcms.a
LOAD /home/liyupeng/zengyao/6.13/DT-W724V-20140311/output/host/usr/mips-unknown-linux-uclibc/sysroot/lib/libusbmountcms.a
LOAD /home/liyupeng/zengyao/6.13/DT-W724V-20140311/output/host/usr/mips-unknown-linux-uclibc/sysroot/lib/libcupscms.a
LOAD /home/liyupeng/zengyao/6.13/DT-W724V-20140311/output/host/usr/mips-unknown-linux-uclibc/sysroot/lib/libusbstoragecms.a
LOAD /home/liyupeng/zengyao/6.13/DT-W724V-20140311/output/host/usr/mips-unknown-linux-uclibc/sysroot/lib/libftpservercms.a
LOAD /home/liyupeng/zengyao/6.13/DT-W724V-20140311/output/host/usr/mips-unknown-linux-uclibc/sysroot/lib/libsambacms.a
LOAD /home/liyupeng/zengyao/6.13/DT-W724V-20140311/output/host/usr/mips-unknown-linux-uclibc/sysroot/lib/libcwmpcms.a
LOAD /home/liyupeng/zengyao/6.13/DT-W724V-20140311/output/host/usr/mips-unknown-linux-uclibc/sysroot/lib/libippingcms.a
LOAD /home/liyupeng/zengyao/6.13/DT-W724V-20140311/output/host/usr/mips-unknown-linux-uclibc/sysroot/lib/liblogcms.a
LOAD /home/liyupeng/zengyao/6.13/DT-W724V-20140311/output/host/usr/mips-unknown-linux-uclibc/sysroot/lib/libmiccms.a
LOAD /home/liyupeng/zengyao/6.13/DT-W724V-20140311/output/host/usr/mips-unknown-linux-uclibc/sysroot/lib/libportmntcms.a
LOAD /home/liyupeng/zengyao/6.13/DT-W724V-20140311/output/host/usr/mips-unknown-linux-uclibc/sysroot/lib/libsysinfocms.a
LOAD /home/liyupeng/zengyao/6.13/DT-W724V-20140311/output/host/usr/mips-unknown-linux-uclibc/sysroot/lib/libtelnetdcms.a
LOAD /home/liyupeng/zengyao/6.13/DT-W724V-20140311/output/host/usr/mips-unknown-linux-uclibc/sysroot/lib/libtr111cms.a
LOAD /home/liyupeng/zengyao/6.13/DT-W724V-20140311/output/host/usr/mips-unknown-linux-uclibc/sysroot/lib/libtr232cms.a
LOAD /home/liyupeng/zengyao/6.13/DT-W724V-20140311/output/host/usr/mips-unknown-linux-uclibc/sysroot/lib/libtraceroutecms.a
LOAD /home/liyupeng/zengyao/6.13/DT-W724V-20140311/output/host/usr/mips-unknown-linux-uclibc/sysroot/lib/libupnpcms.a
LOAD /home/liyupeng/zengyao/6.13/DT-W724V-20140311/output/host/usr/mips-unknown-linux-uclibc/sysroot/lib/libuserintfcms.a
LOAD /home/liyupeng/zengyao/6.13/DT-W724V-20140311/output/host/usr/mips-unknown-linux-uclibc/sysroot/lib/libwebcms.a
LOAD /home/liyupeng/zengyao/6.13/DT-W724V-20140311/output/host/usr/mips-unknown-linux-uclibc/sysroot/lib/libbridgeportcms.a
LOAD /home/liyupeng/zengyao/6.13/DT-W724V-20140311/output/host/usr/mips-unknown-linux-uclibc/sysroot/lib/libipv6commoncms.a
LOAD /home/liyupeng/zengyao/6.13/DT-W724V-20140311/output/host/usr/mips-unknown-linux-uclibc/sysroot/lib/libddnscms.a
LOAD /home/liyupeng/zengyao/6.13/DT-W724V-20140311/output/host/usr/mips-unknown-linux-uclibc/sysroot/lib/libdhcp6ccms.a
LOAD /home/liyupeng/zengyao/6.13/DT-W724V-20140311/output/host/usr/mips-unknown-linux-uclibc/sysroot/lib/libdhcp6scms.a
LOAD /home/liyupeng/zengyao/6.13/DT-W724V-20140311/output/host/usr/mips-unknown-linux-uclibc/sysroot/lib/libdhcpccms.a
LOAD /home/liyupeng/zengyao/6.13/DT-W724V-20140311/output/host/usr/mips-unknown-linux-uclibc/sysroot/lib/libdhcpscms.a
LOAD /home/liyupeng/zengyao/6.13/DT-W724V-20140311/output/host/usr/mips-unknown-linux-uclibc/sysroot/lib/libdnscms.a
LOAD /home/liyupeng/zengyao/6.13/DT-W724V-20140311/output/host/usr/mips-unknown-linux-uclibc/sysroot/lib/libdnsdiagcms.a
LOAD /home/liyupeng/zengyao/6.13/DT-W724V-20140311/output/host/usr/mips-unknown-linux-uclibc/sysroot/lib/libethintfcms.a
LOAD /home/liyupeng/zengyao/6.13/DT-W724V-20140311/output/host/usr/mips-unknown-linux-uclibc/sysroot/lib/libethlinkcms.a
LOAD /home/liyupeng/zengyao/6.13/DT-W724V-20140311/output/host/usr/mips-unknown-linux-uclibc/sysroot/lib/libfirewallcmsdt.a
LOAD /home/liyupeng/zengyao/6.13/DT-W724V-20140311/output/host/usr/mips-unknown-linux-uclibc/sysroot/lib/libfoncms.a
LOAD /home/liyupeng/zengyao/6.13/DT-W724V-20140311/output/host/usr/mips-unknown-linux-uclibc/sysroot/lib/libhybridcms.a
LOAD /home/liyupeng/zengyao/6.13/DT-W724V-20140311/output/host/usr/mips-unknown-linux-uclibc/sysroot/lib/libigmpcms.a
LOAD /home/liyupeng/zengyao/6.13/DT-W724V-20140311/output/host/usr/mips-unknown-linux-uclibc/sysroot/lib/libipcheckcms.a
LOAD /home/liyupeng/zengyao/6.13/DT-W724V-20140311/output/host/usr/mips-unknown-linux-uclibc/sysroot/lib/libipintfcms.a
LOAD /home/liyupeng/zengyao/6.13/DT-W724V-20140311/output/host/usr/mips-unknown-linux-uclibc/sysroot/lib/libiptunnelcms.a
LOAD /home/liyupeng/zengyao/6.13/DT-W724V-20140311/output/host/usr/mips-unknown-linux-uclibc/sysroot/lib/liblannamecms.a
LOAD /home/liyupeng/zengyao/6.13/DT-W724V-20140311/output/host/usr/mips-unknown-linux-uclibc/sysroot/lib/libltecms.a
LOAD /home/liyupeng/zengyao/6.13/DT-W724V-20140311/output/host/usr/mips-unknown-linux-uclibc/sysroot/lib/libmldcms.a
LOAD /home/liyupeng/zengyao/6.13/DT-W724V-20140311/output/host/usr/mips-unknown-linux-uclibc/sysroot/lib/libnatcms.a
LOAD /home/liyupeng/zengyao/6.13/DT-W724V-20140311/output/host/usr/mips-unknown-linux-uclibc/sysroot/lib/libndiscms.a
LOAD /home/liyupeng/zengyao/6.13/DT-W724V-20140311/output/host/usr/mips-unknown-linux-uclibc/sysroot/lib/libneighdisccms.a
LOAD /home/liyupeng/zengyao/6.13/DT-W724V-20140311/output/host/usr/mips-unknown-linux-uclibc/sysroot/lib/libpppccms.a
LOAD /home/liyupeng/zengyao/6.13/DT-W724V-20140311/output/host/usr/mips-unknown-linux-uclibc/sysroot/lib/libpppintfcms.a
LOAD /home/liyupeng/zengyao/6.13/DT-W724V-20140311/output/host/usr/mips-unknown-linux-uclibc/sysroot/lib/libprivacybtncms.a
LOAD /home/liyupeng/zengyao/6.13/DT-W724V-20140311/output/host/usr/mips-unknown-linux-uclibc/sysroot/lib/libdtqoscms.a
LOAD /home/liyupeng/zengyao/6.13/DT-W724V-20140311/output/host/usr/mips-unknown-linux-uclibc/sysroot/lib/libradvdcms.a
LOAD /home/liyupeng/zengyao/6.13/DT-W724V-20140311/output/host/usr/mips-unknown-linux-uclibc/sysroot/lib/libroute6cms.a
LOAD /home/liyupeng/zengyao/6.13/DT-W724V-20140311/output/host/usr/mips-unknown-linux-uclibc/sysroot/lib/libroutecms.a
LOAD /home/liyupeng/zengyao/6.13/DT-W724V-20140311/output/host/usr/mips-unknown-linux-uclibc/sysroot/lib/libsntpcms.a
LOAD /home/liyupeng/zengyao/6.13/DT-W724V-20140311/output/host/usr/mips-unknown-linux-uclibc/sysroot/lib/libvlancms.a
LOAD /home/liyupeng/zengyao/6.13/DT-W724V-20140311/output/host/usr/mips-unknown-linux-uclibc/sysroot/lib/libwancorecms.a
LOAD /home/liyupeng/zengyao/6.13/DT-W724V-20140311/output/host/usr/mips-unknown-linux-uclibc/sysroot/lib/libvlantermcms.a
LOAD /home/liyupeng/zengyao/6.13/DT-W724V-20140311/output/host/usr/mips-unknown-linux-uclibc/sysroot/lib/libwlancms.a
LOAD /home/liyupeng/zengyao/6.13/DT-W724V-20140311/output/host/usr/mips-unknown-linux-uclibc/sysroot/lib/libwlanbcmcms.a
LOAD /home/liyupeng/zengyao/6.13/DT-W724V-20140311/output/host/usr/mips-unknown-linux-uclibc/sysroot/lib/libatmlinkcms.a
LOAD /home/liyupeng/zengyao/6.13/DT-W724V-20140311/output/host/usr/mips-unknown-linux-uclibc/sysroot/lib/libdslchannelcms.a
LOAD /home/liyupeng/zengyao/6.13/DT-W724V-20140311/output/host/usr/mips-unknown-linux-uclibc/sysroot/lib/libdsllinecms.a
LOAD /home/liyupeng/zengyao/6.13/DT-W724V-20140311/output/host/usr/mips-unknown-linux-uclibc/sysroot/lib/libptmlinkcms.a
LOAD /home/liyupeng/zengyao/6.13/DT-W724V-20140311/output/host/usr/mips-unknown-linux-uclibc/sysroot/lib/libdtvoicecms.a
LOAD /home/liyupeng/zengyao/6.13/DT-W724V-20140311/output/host/usr/mips-unknown-linux-uclibc/sysroot/lib/libnetpbcms.a
LOAD /home/liyupeng/zengyao/6.13/DT-W724V-20140311/output/host/usr/mips-unknown-linux-uclibc/sysroot/lib/librsscms.a
LOAD /home/liyupeng/zengyao/6.13/DT-W724V-20140311/output/host/usr/mips-unknown-linux-uclibc/sysroot/lib/libemailcms.a
LOAD /home/liyupeng/zengyao/6.13/DT-W724V-20140311/output/host/usr/mips-unknown-linux-uclibc/sysroot/lib/libhttpapi.so
LOAD /home/liyupeng/zengyao/6.13/DT-W724V-20140311/output/host/usr/mips-unknown-linux-uclibc/sysroot/lib/libcfmapi.so
LOAD /home/liyupeng/zengyao/6.13/DT-W724V-20140311/output/host/usr/mips-unknown-linux-uclibc/sysroot/lib/libmsgapi.so
LOAD /home/liyupeng/zengyao/6.13/DT-W724V-20140311/output/host/usr/mips-unknown-linux-uclibc/sysroot/lib/libxmlapi.so
LOAD /home/liyupeng/zengyao/6.13/DT-W724V-20140311/output/host/usr/mips-unknown-linux-uclibc/sysroot/lib/libbhalapi.so
LOAD /home/liyupeng/zengyao/6.13/DT-W724V-20140311/output/host/usr/mips-unknown-linux-uclibc/sysroot/lib/liblgplutil.so
LOAD /home/liyupeng/zengyao/6.13/DT-W724V-20140311/output/host/usr/mips-unknown-linux-uclibc/sysroot/usr/lib/libpthread.so
LOAD /home/liyupeng/zengyao/6.13/DT-W724V-20140311/output/host/usr/mips-unknown-linux-uclibc/sysroot/lib/libatshared.so
LOAD /home/liyupeng/zengyao/6.13/DT-W724V-20140311/output/host/usr/mips-unknown-linux-uclibc/sysroot/lib/libvdb.so
LOAD /home/liyupeng/zengyao/6.13/DT-W724V-20140311/output/host/usr/mips-unknown-linux-uclibc/sysroot/lib/libiconv.so
LOAD /home/liyupeng/zengyao/6.13/DT-W724V-20140311/output/host/usr/mips-unknown-linux-uclibc/sysroot/lib/libsqlite.so
LOAD /home/liyupeng/zengyao/6.13/DT-W724V-20140311/output/host/usr/mips-unknown-linux-uclibc/sysroot/usr/lib/libcrypt.so
LOAD /home/liyupeng/zengyao/6.13/DT-W724V-20140311/output/host/usr/mips-unknown-linux-uclibc/sysroot/lib/libcrypto.so
LOAD /home/liyupeng/zengyao/6.13/DT-W724V-20140311/output/host/usr/mips-unknown-linux-uclibc/sysroot/lib/libz.so
LOAD /home/liyupeng/zengyao/6.13/DT-W724V-20140311/output/host/usr/mips-unknown-linux-uclibc/sysroot/lib/libnasiowrapper.so
LOAD /opt/toolchains/crosstools-mips-gcc-4.6-linux-3.4-uclibc-0.9.32-binutils-2.21/usr/lib/gcc/mips-unknown-linux-uclibc/4.6.2/libgcc.a
LOAD /home/liyupeng/zengyao/6.13/DT-W724V-20140311/output/host/usr/mips-unknown-linux-uclibc/sysroot/lib/libgcc_s.so
LOAD /home/liyupeng/zengyao/6.13/DT-W724V-20140311/output/host/usr/mips-unknown-linux-uclibc/sysroot/usr/lib/libc.so
START GROUP
LOAD /home/liyupeng/zengyao/6.13/DT-W724V-20140311/output/host/usr/mips-unknown-linux-uclibc/sysroot/lib/libc.so.0
LOAD /home/liyupeng/zengyao/6.13/DT-W724V-20140311/output/host/usr/mips-unknown-linux-uclibc/sysroot/usr/lib/uclibc_nonshared.a
LOAD /home/liyupeng/zengyao/6.13/DT-W724V-20140311/output/host/usr/mips-unknown-linux-uclibc/sysroot/lib/ld-uClibc.so.0
END GROUP
LOAD /opt/toolchains/crosstools-mips-gcc-4.6-linux-3.4-uclibc-0.9.32-binutils-2.21/usr/lib/gcc/mips-unknown-linux-uclibc/4.6.2/libgcc.a
LOAD /home/liyupeng/zengyao/6.13/DT-W724V-20140311/output/host/usr/mips-unknown-linux-uclibc/sysroot/lib/libgcc_s.so
LOAD /opt/toolchains/crosstools-mips-gcc-4.6-linux-3.4-uclibc-0.9.32-binutils-2.21/usr/lib/gcc/mips-unknown-linux-uclibc/4.6.2/crtend.o
LOAD /home/liyupeng/zengyao/6.13/DT-W724V-20140311/output/host/usr/mips-unknown-linux-uclibc/sysroot/usr/lib/crtn.o
                0x0000000000400000                PROVIDE (__executable_start, 0x400000)
                0x0000000000400134                . = (0x400000 + SIZEOF_HEADERS)

.interp         0x0000000000400134       0x14
 *(.interp)
 .interp        0x0000000000400134       0x14 /home/liyupeng/zengyao/6.13/DT-W724V-20140311/output/host/usr/mips-unknown-linux-uclibc/sysroot/usr/lib/crt1.o

.reginfo        0x0000000000400148       0x18
 *(.reginfo)
 .reginfo       0x0000000000400148       0x18 /home/liyupeng/zengyao/6.13/DT-W724V-20140311/output/host/usr/mips-unknown-linux-uclibc/sysroot/usr/lib/crt1.o

.note.gnu.build-id
 *(.note.gnu.build-id)

.dynamic        0x0000000000400160      0x158
 *(.dynamic)
 .dynamic       0x0000000000400160      0x158 /home/liyupeng/zengyao/6.13/DT-W724V-20140311/output/host/usr/mips-unknown-linux-uclibc/sysroot/usr/lib/crt1.o
                0x0000000000400160                _DYNAMIC

.hash           0x00000000004002b8     0x2728
 *(.hash)
 .hash          0x00000000004002b8     0x2728 /home/liyupeng/zengyao/6.13/DT-W724V-20140311/output/host/usr/mips-unknown-linux-uclibc/sysroot/usr/lib/crt1.o

.gnu.hash
 *(.gnu.hash)

.dynsym         0x00000000004029e0     0x5c10
 *(.dynsym)
 .dynsym        0x00000000004029e0     0x5c10 /home/liyupeng/zengyao/6.13/DT-W724V-20140311/output/host/usr/mips-unknown-linux-uclibc/sysroot/usr/lib/crt1.o

.dynstr         0x00000000004085f0     0x7966
 *(.dynstr)
 .dynstr        0x00000000004085f0     0x7966 /home/liyupeng/zengyao/6.13/DT-W724V-20140311/output/host/usr/mips-unknown-linux-uclibc/sysroot/usr/lib/crt1.o

.gnu.version    0x000000000040ff56      0xb82
 *(.gnu.version)
 .gnu.version   0x000000000040ff56      0xb82 /home/liyupeng/zengyao/6.13/DT-W724V-20140311/output/host/usr/mips-unknown-linux-uclibc/sysroot/usr/lib/crt1.o

.gnu.version_d  0x0000000000410ad8        0x0
 *(.gnu.version_d)
 .gnu.version_d
                0x0000000000000000        0x0 /home/liyupeng/zengyao/6.13/DT-W724V-20140311/output/host/usr/mips-unknown-linux-uclibc/sysroot/usr/lib/crt1.o

.gnu.version_r  0x0000000000410ad8       0x20
 *(.gnu.version_r)
 .gnu.version_r
                0x0000000000410ad8       0x20 /home/liyupeng/zengyao/6.13/DT-W724V-20140311/output/host/usr/mips-unknown-linux-uclibc/sysroot/usr/lib/crt1.o

.rel.dyn        0x0000000000410af8        0x0
 *(.rel.init)
 *(.rel.text .rel.text.* .rel.gnu.linkonce.t.*)
 *(.rel.fini)
 *(.rel.rodata .rel.rodata.* .rel.gnu.linkonce.r.*)
 *(.rel.data.rel.ro* .rel.gnu.linkonce.d.rel.ro.*)
 *(.rel.data .rel.data.* .rel.gnu.linkonce.d.*)
 *(.rel.tdata .rel.tdata.* .rel.gnu.linkonce.td.*)
 *(.rel.tbss .rel.tbss.* .rel.gnu.linkonce.tb.*)
 *(.rel.ctors)
 *(.rel.dtors)
 *(.rel.got)
 *(.rel.dyn)
 .rel.dyn       0x0000000000000000        0x0 /home/liyupeng/zengyao/6.13/DT-W724V-20140311/output/host/usr/mips-unknown-linux-uclibc/sysroot/usr/lib/crt1.o
 *(.rel.sdata .rel.sdata.* .rel.gnu.linkonce.s.*)
 *(.rel.sbss .rel.sbss.* .rel.gnu.linkonce.sb.*)
 *(.rel.sdata2 .rel.sdata2.* .rel.gnu.linkonce.s2.*)
 *(.rel.sbss2 .rel.sbss2.* .rel.gnu.linkonce.sb2.*)
 *(.rel.bss .rel.bss.* .rel.gnu.linkonce.b.*)
 .rel.bss       0x0000000000000000        0x0 /home/liyupeng/zengyao/6.13/DT-W724V-20140311/output/host/usr/mips-unknown-linux-uclibc/sysroot/usr/lib/crt1.o
                0x0000000000410af8                PROVIDE (__rel_iplt_start, .)
 *(.rel.iplt)
                0x0000000000410af8                PROVIDE (__rel_iplt_end, .)
                0x0000000000410af8                PROVIDE (__rela_iplt_start, .)
                0x0000000000410af8                PROVIDE (__rela_iplt_end, .)

.rela.dyn       0x0000000000410af8        0x0
 *(.rela.init)
 *(.rela.text .rela.text.* .rela.gnu.linkonce.t.*)
 *(.rela.fini)
 *(.rela.rodata .rela.rodata.* .rela.gnu.linkonce.r.*)
 *(.rela.data .rela.data.* .rela.gnu.linkonce.d.*)
 *(.rela.tdata .rela.tdata.* .rela.gnu.linkonce.td.*)
 *(.rela.tbss .rela.tbss.* .rela.gnu.linkonce.tb.*)
 *(.rela.ctors)
 *(.rela.dtors)
 *(.rela.got)
 *(.rela.sdata .rela.sdata.* .rela.gnu.linkonce.s.*)
 *(.rela.sbss .rela.sbss.* .rela.gnu.linkonce.sb.*)
 *(.rela.sdata2 .rela.sdata2.* .rela.gnu.linkonce.s2.*)
 *(.rela.sbss2 .rela.sbss2.* .rela.gnu.linkonce.sb2.*)
 *(.rela.bss .rela.bss.* .rela.gnu.linkonce.b.*)
                0x0000000000410af8                PROVIDE (__rel_iplt_start, .)
                0x0000000000410af8                PROVIDE (__rel_iplt_end, .)
                0x0000000000410af8                PROVIDE (__rela_iplt_start, .)
 *(.rela.iplt)
                0x0000000000410af8                PROVIDE (__rela_iplt_end, .)

.rel.plt        0x0000000000410af8        0x0
 *(.rel.plt)
 .rel.plt       0x0000000000000000        0x0 /home/liyupeng/zengyao/6.13/DT-W724V-20140311/output/host/usr/mips-unknown-linux-uclibc/sysroot/usr/lib/crt1.o

.rela.plt
 *(.rela.plt)

.init           0x0000000000410af8       0x6c
 *(.init)
 .init          0x0000000000410af8       0x1c /home/liyupeng/zengyao/6.13/DT-W724V-20140311/output/host/usr/mips-unknown-linux-uclibc/sysroot/usr/lib/crti.o
                0x0000000000410af8                _init
 .init          0x0000000000410b14       0x24 /opt/toolchains/crosstools-mips-gcc-4.6-linux-3.4-uclibc-0.9.32-binutils-2.21/usr/lib/gcc/mips-unknown-linux-uclibc/4.6.2/crtbegin.o
 .init          0x0000000000410b38       0x20 /opt/toolchains/crosstools-mips-gcc-4.6-linux-3.4-uclibc-0.9.32-binutils-2.21/usr/lib/gcc/mips-unknown-linux-uclibc/4.6.2/crtend.o
 .init          0x0000000000410b58        0xc /home/liyupeng/zengyao/6.13/DT-W724V-20140311/output/host/usr/mips-unknown-linux-uclibc/sysroot/usr/lib/crtn.o

.plt            0x0000000000410b64        0x0
 *(.plt)
 .plt           0x0000000000000000        0x0 /home/liyupeng/zengyao/6.13/DT-W724V-20140311/output/host/usr/mips-unknown-linux-uclibc/sysroot/usr/lib/crt1.o

.iplt
 *(.iplt)

.text           0x0000000000410b70   0x101af0
                0x0000000000410b70                _ftext = .
 *(.text.unlikely .text.*_unlikely)
 .text.unlikely
                0x0000000000410b70      0x184 /home/liyupeng/zengyao/6.13/DT-W724V-20140311/output/host/usr/mips-unknown-linux-uclibc/sysroot/lib/libusbstoragecms.a(usbstoragecmsmsgproc.o)
 .text.unlikely
                0x0000000000410cf4     0x21c4 /home/liyupeng/zengyao/6.13/DT-W724V-20140311/output/host/usr/mips-unknown-linux-uclibc/sysroot/lib/librsscms.a(rssapi.o)
 *(.text.exit .text.exit.*)
 *(.text.startup .text.startup.*)
 .text.startup  0x0000000000412eb8      0x270 /home/liyupeng/zengyao/6.13/DT-W724V-20140311/output/package/atp/configuration/cmsmain/management.o
                0x0000000000412ed0                main
 .text.startup  0x0000000000413128      0x148 /home/liyupeng/zengyao/6.13/DT-W724V-20140311/output/host/usr/mips-unknown-linux-uclibc/sysroot/lib/libcmscore.a(cmsmsgproc.o)
 .text.startup  0x0000000000413270       0x4c /home/liyupeng/zengyao/6.13/DT-W724V-20140311/output/host/usr/mips-unknown-linux-uclibc/sysroot/lib/libinterfacecore.a(intfstack.o)
 .text.startup  0x00000000004132bc       0xec /home/liyupeng/zengyao/6.13/DT-W724V-20140311/output/host/usr/mips-unknown-linux-uclibc/sysroot/lib/libdmscms.a(dmscmsmsgproc.o)
 .text.startup  0x00000000004133a8      0x1a0 /home/liyupeng/zengyao/6.13/DT-W724V-20140311/output/host/usr/mips-unknown-linux-uclibc/sysroot/lib/libledservicecms.a(ledserviceini.o)
 .text.startup  0x0000000000413548      0x230 /home/liyupeng/zengyao/6.13/DT-W724V-20140311/output/host/usr/mips-unknown-linux-uclibc/sysroot/lib/libnascms.a(nascms.o)
 .text.startup  0x0000000000413778       0x50 /home/liyupeng/zengyao/6.13/DT-W724V-20140311/output/host/usr/mips-unknown-linux-uclibc/sysroot/lib/liboamcms.a(oamcms.o)
 .text.startup  0x00000000004137c8       0x88 /home/liyupeng/zengyao/6.13/DT-W724V-20140311/output/host/usr/mips-unknown-linux-uclibc/sysroot/lib/libtr143cms.a(tr143cmsmsgproc.o)
 .text.startup  0x0000000000413850       0xc4 /home/liyupeng/zengyao/6.13/DT-W724V-20140311/output/host/usr/mips-unknown-linux-uclibc/sysroot/lib/libusbmngrcms.a(usbmngrcmsproc.o)
 .text.startup  0x0000000000413914       0xe4 /home/liyupeng/zengyao/6.13/DT-W724V-20140311/output/host/usr/mips-unknown-linux-uclibc/sysroot/lib/libusbmountcms.a(usbmntcmsmsgproc.o)
 .text.startup  0x00000000004139f8       0x84 /home/liyupeng/zengyao/6.13/DT-W724V-20140311/output/host/usr/mips-unknown-linux-uclibc/sysroot/lib/libcupscms.a(cupscms.o)
 .text.startup  0x0000000000413a7c      0x358 /home/liyupeng/zengyao/6.13/DT-W724V-20140311/output/host/usr/mips-unknown-linux-uclibc/sysroot/lib/libusbstoragecms.a(usbstoragecmsmsgproc.o)
 .text.startup  0x0000000000413dd4       0xe0 /home/liyupeng/zengyao/6.13/DT-W724V-20140311/output/host/usr/mips-unknown-linux-uclibc/sysroot/lib/libftpservercms.a(ftpservercmsmsgproc.o)
 .text.startup  0x0000000000413eb4      0x1c8 /home/liyupeng/zengyao/6.13/DT-W724V-20140311/output/host/usr/mips-unknown-linux-uclibc/sysroot/lib/libcwmpcms.a(cwmpcmsmsgproc.o)
 .text.startup  0x000000000041407c       0xdc /home/liyupeng/zengyao/6.13/DT-W724V-20140311/output/host/usr/mips-unknown-linux-uclibc/sysroot/lib/libcwmpcms.a(cwmpschdwlmsgproc.o)
 .text.startup  0x0000000000414158       0x54 /home/liyupeng/zengyao/6.13/DT-W724V-20140311/output/host/usr/mips-unknown-linux-uclibc/sysroot/lib/libippingcms.a(ippingcmsmsgproc.o)
 .text.startup  0x00000000004141ac       0x58 /home/liyupeng/zengyao/6.13/DT-W724V-20140311/output/host/usr/mips-unknown-linux-uclibc/sysroot/lib/liblogcms.a(logcmsmsgproc.o)
 .text.startup  0x0000000000414204       0x60 /home/liyupeng/zengyao/6.13/DT-W724V-20140311/output/host/usr/mips-unknown-linux-uclibc/sysroot/lib/libmiccms.a(miccmsmsgproc.o)
 .text.startup  0x0000000000414264      0x118 /home/liyupeng/zengyao/6.13/DT-W724V-20140311/output/host/usr/mips-unknown-linux-uclibc/sysroot/lib/libsysinfocms.a(sysinfocmsmsgproc.o)
 .text.startup  0x000000000041437c       0x50 /home/liyupeng/zengyao/6.13/DT-W724V-20140311/output/host/usr/mips-unknown-linux-uclibc/sysroot/lib/libsysinfocms.a(sysperiodicstatistics.o)
 .text.startup  0x00000000004143cc       0x20 /home/liyupeng/zengyao/6.13/DT-W724V-20140311/output/host/usr/mips-unknown-linux-uclibc/sysroot/lib/libtelnetdcms.a(telnetdcmsmsgproc.o)
 .text.startup  0x00000000004143ec       0x98 /home/liyupeng/zengyao/6.13/DT-W724V-20140311/output/host/usr/mips-unknown-linux-uclibc/sysroot/lib/libtr111cms.a(tr111cmsmsgproc.o)
 .text.startup  0x0000000000414484       0xd8 /home/liyupeng/zengyao/6.13/DT-W724V-20140311/output/host/usr/mips-unknown-linux-uclibc/sysroot/lib/libtr232cms.a(ipdrcmsmsgproc.o)
 .text.startup  0x000000000041455c       0x70 /home/liyupeng/zengyao/6.13/DT-W724V-20140311/output/host/usr/mips-unknown-linux-uclibc/sysroot/lib/libtraceroutecms.a(traceroutecmsmsgproc.o)
 .text.startup  0x00000000004145cc       0x70 /home/liyupeng/zengyao/6.13/DT-W724V-20140311/output/host/usr/mips-unknown-linux-uclibc/sysroot/lib/libupnpcms.a(upnpcms.o)
 .text.startup  0x000000000041463c       0x20 /home/liyupeng/zengyao/6.13/DT-W724V-20140311/output/host/usr/mips-unknown-linux-uclibc/sysroot/lib/libuserintfcms.a(userintfcmsmsgproc.o)
 .text.startup  0x000000000041465c       0xcc /home/liyupeng/zengyao/6.13/DT-W724V-20140311/output/host/usr/mips-unknown-linux-uclibc/sysroot/lib/libwebcms.a(webcmsmsgproc.o)
 .text.startup  0x0000000000414728       0x54 /home/liyupeng/zengyao/6.13/DT-W724V-20140311/output/host/usr/mips-unknown-linux-uclibc/sysroot/lib/libbridgeportcms.a(bridgeportcmsapi.o)
 .text.startup  0x000000000041477c       0x20 /home/liyupeng/zengyao/6.13/DT-W724V-20140311/output/host/usr/mips-unknown-linux-uclibc/sysroot/lib/libbridgeportcms.a(bridgingcmsinit.o)
 .text.startup  0x000000000041479c       0x54 /home/liyupeng/zengyao/6.13/DT-W724V-20140311/output/host/usr/mips-unknown-linux-uclibc/sysroot/lib/libbridgeportcms.a(bridgingfiltercmsmsgproc.o)
 .text.startup  0x00000000004147f0       0x74 /home/liyupeng/zengyao/6.13/DT-W724V-20140311/output/host/usr/mips-unknown-linux-uclibc/sysroot/lib/libipv6commoncms.a(ipv6commoncmsproc.o)
 .text.startup  0x0000000000414864       0x20 /home/liyupeng/zengyao/6.13/DT-W724V-20140311/output/host/usr/mips-unknown-linux-uclibc/sysroot/lib/libddnscms.a(ddnscmsmsgproc.o)
 .text.startup  0x0000000000414884       0x90 /home/liyupeng/zengyao/6.13/DT-W724V-20140311/output/host/usr/mips-unknown-linux-uclibc/sysroot/lib/libddnscms.a(ddnscmsapi.o)
 .text.startup  0x0000000000414914       0x28 /home/liyupeng/zengyao/6.13/DT-W724V-20140311/output/host/usr/mips-unknown-linux-uclibc/sysroot/lib/libdhcp6ccms.a(dhcp6ccms.o)
 .text.startup  0x000000000041493c       0xd8 /home/liyupeng/zengyao/6.13/DT-W724V-20140311/output/host/usr/mips-unknown-linux-uclibc/sysroot/lib/libdhcp6ccms.a(dhcp6ccmsmsgproc.o)
 .text.startup  0x0000000000414a14      0x11c /home/liyupeng/zengyao/6.13/DT-W724V-20140311/output/host/usr/mips-unknown-linux-uclibc/sysroot/lib/libdhcp6scms.a(dhcp6scmsproctr181.o)
 .text.startup  0x0000000000414b30      0x10c /home/liyupeng/zengyao/6.13/DT-W724V-20140311/output/host/usr/mips-unknown-linux-uclibc/sysroot/lib/libdhcpccms.a(dhcpccmsmsgproc.o)
 .text.startup  0x0000000000414c3c      0x18c /home/liyupeng/zengyao/6.13/DT-W724V-20140311/output/host/usr/mips-unknown-linux-uclibc/sysroot/lib/libdhcpscms.a(dhcpscmsmsgproc.o)
 .text.startup  0x0000000000414dc8      0x128 /home/liyupeng/zengyao/6.13/DT-W724V-20140311/output/host/usr/mips-unknown-linux-uclibc/sysroot/lib/libdnscms.a(dnscmsinit.o)
 .text.startup  0x0000000000414ef0       0x88 /home/liyupeng/zengyao/6.13/DT-W724V-20140311/output/host/usr/mips-unknown-linux-uclibc/sysroot/lib/libdnscms.a(dnscmsdb.o)
 .text.startup  0x0000000000414f78       0x70 /home/liyupeng/zengyao/6.13/DT-W724V-20140311/output/host/usr/mips-unknown-linux-uclibc/sysroot/lib/libdnsdiagcms.a(dnsdiagcmsmsgproc.o)
 .text.startup  0x0000000000414fe8       0x78 /home/liyupeng/zengyao/6.13/DT-W724V-20140311/output/host/usr/mips-unknown-linux-uclibc/sysroot/lib/libethintfcms.a(ethintfcmsapi.o)
 .text.startup  0x0000000000415060       0x28 /home/liyupeng/zengyao/6.13/DT-W724V-20140311/output/host/usr/mips-unknown-linux-uclibc/sysroot/lib/libethintfcms.a(ethintfcmsmsgproc.o)
 .text.startup  0x0000000000415088       0xd8 /home/liyupeng/zengyao/6.13/DT-W724V-20140311/output/host/usr/mips-unknown-linux-uclibc/sysroot/lib/libethlinkcms.a(ethlinkcmsapi.o)
 .text.startup  0x0000000000415160      0x1d0 /home/liyupeng/zengyao/6.13/DT-W724V-20140311/output/host/usr/mips-unknown-linux-uclibc/sysroot/lib/libfirewallcmsdt.a(firewallcmsdt.o)
 .text.startup  0x0000000000415330       0x6c /home/liyupeng/zengyao/6.13/DT-W724V-20140311/output/host/usr/mips-unknown-linux-uclibc/sysroot/lib/libfirewallcmsdt.a(fwfilterapi.o)
 .text.startup  0x000000000041539c       0x90 /home/liyupeng/zengyao/6.13/DT-W724V-20140311/output/host/usr/mips-unknown-linux-uclibc/sysroot/lib/libfirewallcmsdt.a(abuseapi.o)
 .text.startup  0x000000000041542c       0x64 /home/liyupeng/zengyao/6.13/DT-W724V-20140311/output/host/usr/mips-unknown-linux-uclibc/sysroot/lib/libfirewallcmsdt.a(timeruleflushfcctl.o)
 .text.startup  0x0000000000415490      0x178 /home/liyupeng/zengyao/6.13/DT-W724V-20140311/output/host/usr/mips-unknown-linux-uclibc/sysroot/lib/libfoncms.a(foncmsmsgproc.o)
 .text.startup  0x0000000000415608      0x24c /home/liyupeng/zengyao/6.13/DT-W724V-20140311/output/host/usr/mips-unknown-linux-uclibc/sysroot/lib/libhybridcms.a(hybridcms.o)
 .text.startup  0x0000000000415854       0x7c /home/liyupeng/zengyao/6.13/DT-W724V-20140311/output/host/usr/mips-unknown-linux-uclibc/sysroot/lib/libhybridcms.a(hybridcmsfilter.o)
 .text.startup  0x00000000004158d0       0x9c /home/liyupeng/zengyao/6.13/DT-W724V-20140311/output/host/usr/mips-unknown-linux-uclibc/sysroot/lib/libigmpcms.a(igmpcmsmsgproc.o)
 .text.startup  0x000000000041596c       0x84 /home/liyupeng/zengyao/6.13/DT-W724V-20140311/output/host/usr/mips-unknown-linux-uclibc/sysroot/lib/libipcheckcms.a(ipcheckcmsmsgproc.o)
 .text.startup  0x00000000004159f0      0x278 /home/liyupeng/zengyao/6.13/DT-W724V-20140311/output/host/usr/mips-unknown-linux-uclibc/sysroot/lib/libipintfcms.a(ipintfcmsapi.o)
 .text.startup  0x0000000000415c68       0x1c /home/liyupeng/zengyao/6.13/DT-W724V-20140311/output/host/usr/mips-unknown-linux-uclibc/sysroot/lib/liblannamecms.a(lannamecmsmsgproc.o)
 .text.startup  0x0000000000415c84       0x54 /home/liyupeng/zengyao/6.13/DT-W724V-20140311/output/host/usr/mips-unknown-linux-uclibc/sysroot/lib/libltecms.a(ltecmssimcard.o)
 .text.startup  0x0000000000415cd8       0x70 /home/liyupeng/zengyao/6.13/DT-W724V-20140311/output/host/usr/mips-unknown-linux-uclibc/sysroot/lib/libltecms.a(ltesmartcardreader.o)
 .text.startup  0x0000000000415d48       0x20 /home/liyupeng/zengyao/6.13/DT-W724V-20140311/output/host/usr/mips-unknown-linux-uclibc/sysroot/lib/libltecms.a(ltecmsmsgproc.o)
 .text.startup  0x0000000000415d68       0xcc /home/liyupeng/zengyao/6.13/DT-W724V-20140311/output/host/usr/mips-unknown-linux-uclibc/sysroot/lib/libltecms.a(ltecmsapi.o)
 .text.startup  0x0000000000415e34       0x70 /home/liyupeng/zengyao/6.13/DT-W724V-20140311/output/host/usr/mips-unknown-linux-uclibc/sysroot/lib/libltecms.a(ltecmsmobile.o)
 .text.startup  0x0000000000415ea4       0x8c /home/liyupeng/zengyao/6.13/DT-W724V-20140311/output/host/usr/mips-unknown-linux-uclibc/sysroot/lib/libmldcms.a(mldcmsmsgproc.o)
 .text.startup  0x0000000000415f30      0x198 /home/liyupeng/zengyao/6.13/DT-W724V-20140311/output/host/usr/mips-unknown-linux-uclibc/sysroot/lib/libnatcms.a(natcmsmsgproc.o)
 .text.startup  0x00000000004160c8      0x124 /home/liyupeng/zengyao/6.13/DT-W724V-20140311/output/host/usr/mips-unknown-linux-uclibc/sysroot/lib/libndiscms.a(ndiscmsmsgproc.o)
 .text.startup  0x00000000004161ec       0x50 /home/liyupeng/zengyao/6.13/DT-W724V-20140311/output/host/usr/mips-unknown-linux-uclibc/sysroot/lib/libneighdisccms.a(neighdisccms.o)
 .text.startup  0x000000000041623c      0x15c /home/liyupeng/zengyao/6.13/DT-W724V-20140311/output/host/usr/mips-unknown-linux-uclibc/sysroot/lib/libpppintfcms.a(pppintfcmsinit.o)
 .text.startup  0x0000000000416398       0x68 /home/liyupeng/zengyao/6.13/DT-W724V-20140311/output/host/usr/mips-unknown-linux-uclibc/sysroot/lib/libprivacybtncms.a(privacybtncmsmsgproc.o)
 .text.startup  0x0000000000416400       0x20 /home/liyupeng/zengyao/6.13/DT-W724V-20140311/output/host/usr/mips-unknown-linux-uclibc/sysroot/lib/libdtqoscms.a(qosapi.o)
 .text.startup  0x0000000000416420       0xa8 /home/liyupeng/zengyao/6.13/DT-W724V-20140311/output/host/usr/mips-unknown-linux-uclibc/sysroot/lib/libradvdcms.a(radvdcms.o)
 .text.startup  0x00000000004164c8       0x28 /home/liyupeng/zengyao/6.13/DT-W724V-20140311/output/host/usr/mips-unknown-linux-uclibc/sysroot/lib/libradvdcms.a(radvdcmsinit.o)
 .text.startup  0x00000000004164f0       0x20 /home/liyupeng/zengyao/6.13/DT-W724V-20140311/output/host/usr/mips-unknown-linux-uclibc/sysroot/lib/libradvdcms.a(radvdcmsmsgproc.o)
 .text.startup  0x0000000000416510       0x90 /home/liyupeng/zengyao/6.13/DT-W724V-20140311/output/host/usr/mips-unknown-linux-uclibc/sysroot/lib/libradvdcms.a(radvdcmsmsgproctr181.o)
 .text.startup  0x00000000004165a0       0x54 /home/liyupeng/zengyao/6.13/DT-W724V-20140311/output/host/usr/mips-unknown-linux-uclibc/sysroot/lib/libroute6cms.a(route6cmsmsgproc.o)
 .text.startup  0x00000000004165f4       0x90 /home/liyupeng/zengyao/6.13/DT-W724V-20140311/output/host/usr/mips-unknown-linux-uclibc/sysroot/lib/libroute6cms.a(route6cmsapi.o)
 .text.startup  0x0000000000416684      0x108 /home/liyupeng/zengyao/6.13/DT-W724V-20140311/output/host/usr/mips-unknown-linux-uclibc/sysroot/lib/libroutecms.a(routecmsmsgproc.o)
 .text.startup  0x000000000041678c       0xf0 /home/liyupeng/zengyao/6.13/DT-W724V-20140311/output/host/usr/mips-unknown-linux-uclibc/sysroot/lib/libsntpcms.a(sntpcms.o)
 .text.startup  0x000000000041687c       0xbc /home/liyupeng/zengyao/6.13/DT-W724V-20140311/output/host/usr/mips-unknown-linux-uclibc/sysroot/lib/libsntpcms.a(sntpcmsmsgproc.o)
 .text.startup  0x0000000000416938       0x9c /home/liyupeng/zengyao/6.13/DT-W724V-20140311/output/host/usr/mips-unknown-linux-uclibc/sysroot/lib/libvlantermcms.a(vlantermcms.o)
 .text.startup  0x00000000004169d4      0x1f4 /home/liyupeng/zengyao/6.13/DT-W724V-20140311/output/host/usr/mips-unknown-linux-uclibc/sysroot/lib/libwlancms.a(wlancmsmsgproc.o)
 .text.startup  0x0000000000416bc8       0x8c /home/liyupeng/zengyao/6.13/DT-W724V-20140311/output/host/usr/mips-unknown-linux-uclibc/sysroot/lib/libatmlinkcms.a(atmlinkcmsapi.o)
 .text.startup  0x0000000000416c54       0xc0 /home/liyupeng/zengyao/6.13/DT-W724V-20140311/output/host/usr/mips-unknown-linux-uclibc/sysroot/lib/libdslchannelcms.a(dslchannelcmsapi.o)
 .text.startup  0x0000000000416d14      0x10c /home/liyupeng/zengyao/6.13/DT-W724V-20140311/output/host/usr/mips-unknown-linux-uclibc/sysroot/lib/libdsllinecms.a(dsllinecmsapi.o)
 .text.startup  0x0000000000416e20       0x54 /home/liyupeng/zengyao/6.13/DT-W724V-20140311/output/host/usr/mips-unknown-linux-uclibc/sysroot/lib/libptmlinkcms.a(ptmlinkcmsapi.o)
 .text.startup  0x0000000000416e74      0x928 /home/liyupeng/zengyao/6.13/DT-W724V-20140311/output/host/usr/mips-unknown-linux-uclibc/sysroot/lib/libdtvoicecms.a(voicecmsmsgproc.o)
 .text.startup  0x000000000041779c       0x94 /home/liyupeng/zengyao/6.13/DT-W724V-20140311/output/host/usr/mips-unknown-linux-uclibc/sysroot/lib/librsscms.a(voicersscmsmsgproc.o)
 .text.startup  0x0000000000417830       0xcc /home/liyupeng/zengyao/6.13/DT-W724V-20140311/output/host/usr/mips-unknown-linux-uclibc/sysroot/lib/libemailcms.a(voiceemailcmsmsgproc.o)
 *(.text.hot .text.hot.*)
 *(.text .stub .text.* .gnu.linkonce.t.*)
 *fill*         0x00000000004178fc        0x4 00000000
 .text          0x0000000000417900       0x60 /home/liyupeng/zengyao/6.13/DT-W724V-20140311/output/host/usr/mips-unknown-linux-uclibc/sysroot/usr/lib/crt1.o
                0x0000000000417900                __start
 .text          0x0000000000417960        0x0 /home/liyupeng/zengyao/6.13/DT-W724V-20140311/output/host/usr/mips-unknown-linux-uclibc/sysroot/usr/lib/crti.o
 .text          0x0000000000417960      0x130 /opt/toolchains/crosstools-mips-gcc-4.6-linux-3.4-uclibc-0.9.32-binutils-2.21/usr/lib/gcc/mips-unknown-linux-uclibc/4.6.2/crtbegin.o
 .text          0x0000000000417a90       0x40 /home/liyupeng/zengyao/6.13/DT-W724V-20140311/output/package/atp/configuration/cmsmain/management.o
 .text          0x0000000000417ad0      0x410 /home/liyupeng/zengyao/6.13/DT-W724V-20140311/output/package/atp/configuration/cmsmain/cmsmonitor.o
                0x0000000000417cd0                ATP_CMS_MonitorCreate
 .text          0x0000000000417ee0      0x260 /home/liyupeng/zengyao/6.13/DT-W724V-20140311/output/package/atp/configuration/cmsmain/cmsinit.o
                0x0000000000417ee0                ATP_CMS_Init
 .text          0x0000000000418140     0x1fb0 /home/liyupeng/zengyao/6.13/DT-W724V-20140311/output/host/usr/mips-unknown-linux-uclibc/sysroot/lib/libcmscore.a(cmsmsgproc.o)
                0x0000000000418264                ATP_CMS_CwmpSessionEndMsgProc
                0x000000000041837c                ATP_CMS_DoGMsgProc
                0x0000000000418418                ATP_CMS_GetInstMsgProc
                0x0000000000418570                ATP_CMS_GetMsgProc
                0x0000000000418b04                ATP_CMS_DelMsgProc
                0x0000000000418dec                ATP_CMS_AddSetMsgProc
                0x0000000000419840                CmsInitDbForSafe
                0x0000000000419978                ATP_CMS_RegGetObj
                0x0000000000419998                ATP_CMS_RegSObj
                0x00000000004199b8                ATP_CMS_RegMObj
                0x00000000004199d8                ATP_CMS_RegCwmpEndSessionHook
                0x00000000004199f4                ATP_CMS_RegSetMsgHookEx
                0x0000000000419a10                ATP_CMS_RegSetMsgHook
                0x0000000000419a2c                ATP_CMS_GetObj
                0x0000000000419b90                ATP_CMS_RegMsgProc
                0x0000000000419c50                ATP_CMS_UnRegMsgProc
                0x0000000000419c70                ATP_CMS_DoMsgProc
                0x0000000000419d1c                ATP_CMS_RegGMsgProc
                0x0000000000419df0                ATP_CMS_UnRegGMsgProc
                0x0000000000419e10                ATP_CMS_ChangeQueue
                0x0000000000419f1c                ATP_CMS_SelfClrQueueMsg
 .text          0x000000000041a0f0     0x1ff0 /home/liyupeng/zengyao/6.13/DT-W724V-20140311/output/host/usr/mips-unknown-linux-uclibc/sysroot/lib/libcmscore.a(cmsutil.o)
                0x000000000041a0f0                ATP_UTIL_ValidateThreeNumberEx
                0x000000000041a3a8                ATP_UTIL_ValidateNumber
                0x000000000041a44c                ATP_UTIL_CheckNum
                0x000000000041a4c8                ATP_UTIL_ValidateNumberRange
                0x000000000041a4e4                ATP_UTIL_ValidateRange
                0x000000000041a55c                ATP_UTIL_ValidateLength
                0x000000000041a5c0                ATP_UTIL_ValidateIpAddress
                0x000000000041a774                ATP_UTIL_ValidateBroadcastIp
                0x000000000041a8cc                ATP_UTIL_IsIpFormat
                0x000000000041a994                ATP_UTIL_ValidateHostIpAddress
                0x000000000041a99c                ATP_UTIL_ValidateMCastIpAddress
                0x000000000041a9a4                ATP_UTIL_ValidateDnsOrHostAddress
                0x000000000041a9e8                ATP_UTIL_ValidateSubnetMask
                0x000000000041abbc                ATP_UTIL_ToSubnetMaskBit
                0x000000000041abdc                ATP_UTIL_QosValidateSubnetMask
                0x000000000041ad94                ATP_UTIL_ValidateMacAddress
                0x000000000041af1c                ATP_UTIL_ValidateIpv6Address
                0x000000000041af6c                ATP_UTIL_CompareIpv6Address
                0x000000000041afc4                ATP_UTIL_ValidateDomainName
                0x000000000041b1ac                ATP_UTIL_ValidateTime
                0x000000000041b2e4                ATP_UTIL_IpAddrSplit
                0x000000000041b444                ATP_UTIL_GetInterfaceNameById
                0x000000000041b520                ATP_UTIL_IsModuleInserted
                0x000000000041b618                ATP_UTIL_InsertModule
                0x000000000041b6c4                ATP_STATUS_RegNotifyProc
                0x000000000041b740                ATP_STATUS_ChangeNotify
                0x000000000041b7a8                ATP_STATUS_DestroyAllNotify
                0x000000000041b7c4                ATP_UTIL_IsIpv4Format
                0x000000000041b7f8                ATP_UTIL_IsIpv4FormatRepair
                0x000000000041b8ec                ATP_UTIL_IsGlobalIpv6Address
                0x000000000041b97c                ATP_UTIL_ValidateDomainNameEx
                0x000000000041ba7c                ATP_UTIL_Ipv6AddressFilter
                0x000000000041bbac                ATP_UTIL_ValidateIpAddressOrDomainName
                0x000000000041bcc4                ATP_UTIL_ValidateIpAddressOrDomainNameEx
                0x000000000041bdd0                ATP_UTIL_ValidateNumberAlpha
                0x000000000041be70                ATP_UTIL_ValidateHex
                0x000000000041bf20                ATP_UTIL_HexStr2Str
                0x000000000041bfe8                ATP_UTIL_ValidateIpv6AddressEx
 .text          0x000000000041c0e0      0x270 /home/liyupeng/zengyao/6.13/DT-W724V-20140311/output/host/usr/mips-unknown-linux-uclibc/sysroot/lib/libcmscore.a(cmsinitapi.o)
                0x000000000041c13c                ATP_CMS_UpdateDynAppListenFd
                0x000000000041c218                ATP_CMS_AddAfterCmsInitCallback
                0x000000000041c2ac                ATP_CMS_DoAfterModuleInit
 .text          0x000000000041c350      0x100 /home/liyupeng/zengyao/6.13/DT-W724V-20140311/output/host/usr/mips-unknown-linux-uclibc/sysroot/lib/libcmscore.a(cmssigqueue.o)
                0x000000000041c3b4                ATP_CMS_SigRtSigInit
 .text          0x000000000041c450     0x1510 /home/liyupeng/zengyao/6.13/DT-W724V-20140311/output/host/usr/mips-unknown-linux-uclibc/sysroot/lib/libinterfacecore.a(interfaceapi.o)
                0x000000000041c5c0                ATP_INTF_InterfaceListAppend
                0x000000000041c5e8                ATP_INTF_InterfaceGetStatusArrayLen
                0x000000000041c5f0                ATP_INTF_InterfaceGetType
                0x000000000041c6c8                ATP_INTF_IsInterfaceExist
                0x000000000041c788                ATP_INTF_InterfaceIterate
                0x000000000041c808                ATP_INTF_LowestInterfaceIterate
                0x000000000041c894                ATP_INTF_InterfaceFind
                0x000000000041c90c                ATP_INTF_InterfaceIsLowerLayer
                0x000000000041c940                ATP_INTF_InterfaceGetUpLayer
                0x000000000041cc44                ATP_INTF_InterfaceFindByAlias
                0x000000000041cca0                ATP_INTF_InterfaceFindByKeyList
                0x000000000041cd20                ATP_INTF_InterfaceFindByDomainName
                0x000000000041cde4                ATP_INTF_InterfaceFindByIfName
                0x000000000041ce48                ATP_INTF_InterfaceGetParaIdx
                0x000000000041ce74                ATP_INTF_InterfaceGetCommonParaValue
                0x000000000041cec0                ATP_INTF_InterfaceSetLowerLayers
                0x000000000041d138                ATP_INTF_CheckFakeObjByName
                0x000000000041d1d8                ATP_INTF_InterfaceGetStatus
                0x000000000041d2c4                ATP_INTF_InterfaceStatusUpdateSelf
                0x000000000041d348                ATP_INTF_InterfaceStatusUpdate
                0x000000000041d3e4                ATP_INTF_InterfaceCheckLowerLayersStatus
                0x000000000041d43c                ATP_INTF_InterfaceGetDomain
                0x000000000041d4d4                ATP_INTF_InterfaceIsLowerLayerStatusSame
                0x000000000041d524                ATP_INTF_InterfaceSetCommonParaValue
                0x000000000041d6a4                ATP_INTF_AdditionalStatsGet
                0x000000000041d6b8                ATP_INTF_InterfaceInit
 .text          0x000000000041d960     0x1590 /home/liyupeng/zengyao/6.13/DT-W724V-20140311/output/host/usr/mips-unknown-linux-uclibc/sysroot/lib/libinterfacecore.a(intfstats.o)
                0x000000000041e2c0                InterfaceIntfAdditionalStatsGet
                0x000000000041ee54                ATP_INTF_InterfaceStatsClear
                0x000000000041ee98                ATP_INTF_InterfaceGreStatsGetProc
                0x000000000041eeb8                ATP_INTF_InterfaceGeneralStatsGetProc
                0x000000000041eed8                InterfaceRegisterCommonStatsObject
 .text          0x000000000041eef0      0x160 /home/liyupeng/zengyao/6.13/DT-W724V-20140311/output/host/usr/mips-unknown-linux-uclibc/sysroot/lib/libinterfacecore.a(intfdescriptor.o)
                0x000000000041eef0                ATP_INTF_InterfaceDescriptorFindByOID
                0x000000000041ef1c                ATP_INTF_InterfaceDescriptorRegister
                0x000000000041f000                ATP_INTF_InterfaceDescriptorIterate
 .text          0x000000000041f050      0x510 /home/liyupeng/zengyao/6.13/DT-W724V-20140311/output/host/usr/mips-unknown-linux-uclibc/sysroot/lib/libinterfacecore.a(intfcfgmsgproc.o)
                0x000000000041f494                InterfaceRegisterCommonObject
 .text          0x000000000041f560      0x3e0 /home/liyupeng/zengyao/6.13/DT-W724V-20140311/output/host/usr/mips-unknown-linux-uclibc/sysroot/lib/libinterfacecore.a(intfstack.o)
                0x000000000041f570                ATP_INTF_InterfaceStackAdd
 .text          0x000000000041f940     0x1780 /home/liyupeng/zengyao/6.13/DT-W724V-20140311/output/host/usr/mips-unknown-linux-uclibc/sysroot/lib/libdmscms.a(dmscmsmsgproc.o)
                0x000000000041f940                ATP_DMS_ParaCheck
                0x000000000041f948                ATP_DMS_LanChange
                0x000000000041fbd0                ATP_CDS_ParaCheck
                0x000000000041fd60                setDmsPara
                0x0000000000420300                ATP_CDS_AddSetMsgProc
                0x0000000000420624                ATP_DMS_EnableDms
                0x0000000000420644                ATP_DMS_SetMsgProc
                0x000000000042070c                ATP_DMS_ReStart
                0x000000000042073c                ATP_DMS_DHCPSvr_StatusChange
                0x000000000042075c                ATP_CDS_DelMsgProc
                0x0000000000420910                ATP_DMS_StartByUsbmount
                0x0000000000420afc                ATP_DMS_StartByUsbUnmount
                0x0000000000420b08                ATP_DmsGetCurMaxUsbDevs
                0x0000000000420c78                CheckMountedAll
                0x0000000000420e04                ATP_DMS_Init
 .text          0x00000000004210c0      0x560 /home/liyupeng/zengyao/6.13/DT-W724V-20140311/output/host/usr/mips-unknown-linux-uclibc/sysroot/lib/libledservicecms.a(ledserviceini.o)
                0x0000000000421438                ATP_BUTTON_Restore
                0x00000000004215bc                ATP_GpioI2cInit
 .text          0x0000000000421620     0x38d0 /home/liyupeng/zengyao/6.13/DT-W724V-20140311/output/host/usr/mips-unknown-linux-uclibc/sysroot/lib/libnascms.a(nascms.o)
                0x0000000000424cec                ATP_NAS_Init
 .text          0x0000000000424ef0       0xa0 /home/liyupeng/zengyao/6.13/DT-W724V-20140311/output/host/usr/mips-unknown-linux-uclibc/sysroot/lib/liboamcms.a(oamcms.o)
 .text          0x0000000000424f90     0x2030 /home/liyupeng/zengyao/6.13/DT-W724V-20140311/output/host/usr/mips-unknown-linux-uclibc/sysroot/lib/libtr143cms.a(tr143cmsmsgproc.o)
                0x0000000000424f90                ATP_TR143_UploadDiagGet
                0x0000000000425098                ATP_TR143_DownloadDiagGet
                0x0000000000425368                ATP_TR143_UploadDiagCheck
                0x0000000000425644                ATP_TR143_DownloadDiagCheck
                0x0000000000426b18                ATP_TR143_DownloadDiagSet
                0x0000000000426d64                ATP_TR143_UploadDiagSet
 .text          0x0000000000426fc0     0x1e20 /home/liyupeng/zengyao/6.13/DT-W724V-20140311/output/host/usr/mips-unknown-linux-uclibc/sysroot/lib/libusbmngrcms.a(usbmngrcmsproc.o)
 .text          0x0000000000428de0     0x1ef0 /home/liyupeng/zengyao/6.13/DT-W724V-20140311/output/host/usr/mips-unknown-linux-uclibc/sysroot/lib/libusbmountcms.a(usbmntcmsmsgproc.o)
                0x0000000000428e24                ATP_NasEmailAddWatchUsbNotWorkingMsgProc
                0x0000000000429600                ATP_USBStorage_Mount_Subarea_Result_Proc
                0x000000000042abd4                ATP_USBStorage_Mount_NTFS_Create_Usermapping_File
                0x000000000042ac4c                ATP_USBStorage_Device_Plugmsg_Deal
 .text          0x000000000042acd0      0x260 /home/liyupeng/zengyao/6.13/DT-W724V-20140311/output/host/usr/mips-unknown-linux-uclibc/sysroot/lib/libusbmountcms.a(usbdiskmonitor.o)
                0x000000000042acd0                ATP_USBStorage_Mount_DiskSubarea_Refresh_NotifyRegister
                0x000000000042ad7c                ATP_USBStorage_Mount_DiskSubarea_Refresh_Proc
                0x000000000042adfc                ATP_USBStorage_All_Mount_Finish_Refresh_NotifyRegister
                0x000000000042aea8                ATP_USBStorage_All_Mount_Finish_Refresh_Proc
 .text          0x000000000042af30       0x60 /home/liyupeng/zengyao/6.13/DT-W724V-20140311/output/host/usr/mips-unknown-linux-uclibc/sysroot/lib/libusbmountcms.a(usbmntcmsinit.o)
                0x000000000042af30                ATP_USBMount_Init
 .text          0x000000000042af90      0xd90 /home/liyupeng/zengyao/6.13/DT-W724V-20140311/output/host/usr/mips-unknown-linux-uclibc/sysroot/lib/libcupscms.a(cupscms.o)
                0x000000000042b1a4                ATP_CupsStart
                0x000000000042b7ec                ATP_UsbStoragePrinterExist
                0x000000000042b8a8                ATP_GetPrinterName
                0x000000000042b9d4                ATP_ResetCupsdAndSamba
                0x000000000042bc40                ATP_DisconnetCupsdPrinter
 .text          0x000000000042bd20     0xade0 /home/liyupeng/zengyao/6.13/DT-W724V-20140311/output/host/usr/mips-unknown-linux-uclibc/sysroot/lib/libusbstoragecms.a(usbstoragecmsmsgproc.o)
                0x000000000042c5a0                ATP_StoSerFolderDelMsgProc
                0x000000000042c6cc                ATP_StoSerFolderAccDelMsgProc
                0x000000000042d4ac                ATP_StoSerNetInfoSetMsgProc
                0x000000000042dc50                ATP_UsbStorageFTPAddDelUserPid
                0x000000000042e5a4                ATP_StoSerLoginCtlMsgProc
                0x000000000042e760                ATP_StoSerFolderAccCheck
                0x000000000042f87c                ATP_StoSerNetServerSetMsgProc
                0x000000000042fc80                filtrateBlankCharaterInFilename
                0x000000000042fd5c                UsbStoVolumeFree
                0x000000000042fda4                ATP_StoSerGetCapacity
                0x000000000043020c                ATP_StorageServiceValidateSambaName
                0x0000000000430214                ATP_StorageServiceCheckUserValid
                0x000000000043112c                ATP_StorageServiceUserFolderCheck
                0x00000000004312a8                ATP_StorageServiceGetUserFolder
                0x0000000000431aec                ATP_StoSerGetAllUserDirAndPermiss
                0x0000000000431cc4                ATP_StoSerGetAllUserDirAndPermissSort
                0x0000000000432084                ATP_StoSerGetGuestInfo
                0x00000000004321f8                ATP_StoSerCheckSmbdPid
                0x0000000000432384                ATP_StoSerResetSmbd
                0x0000000000432574                ATP_UsbStorageVolumeCheck
                0x00000000004327ac                ATP_UsbStorageCheckUsbUse
                0x0000000000432c34                ATP_UsbStorageNasEmailAddWatchMsgProc
                0x0000000000432c94                ATP_UsbStorageGetCurrentSds
                0x0000000000432db8                ATP_StoSerRefreshPhyMediumList
                0x0000000000432f4c                ATP_StoSerDelLogicVolInfo
                0x0000000000433088                ATP_UsbStorageFTPDelUser
                0x00000000004332a0                ATP_UsbStorageFTPCreatLogin
                0x000000000043360c                ATP_UsbStorageSambaAddAllUser
                0x0000000000433f4c                ATP_UsbStorageSambaDelUser
                0x0000000000434358                ATP_StoSerFolderAccAddSetMsgProc
                0x0000000000434ae0                ATP_UsbstoragecmsAdminSetProcess
                0x00000000004363d8                ATP_StorageServiceUserDelMsgProc
 .text          0x0000000000436b00     0x3ac0 /home/liyupeng/zengyao/6.13/DT-W724V-20140311/output/host/usr/mips-unknown-linux-uclibc/sysroot/lib/libusbstoragecms.a(usbstoragecms.o)
                0x00000000004372e4                StoSerLogicListFree
                0x0000000000437388                StoSerAllUserFolderFree
                0x00000000004373d0                StoSerAllPathFree
                0x0000000000437418                StoSerAllUserFree
                0x0000000000437484                ATP_StorageServiceGetPidByName
                0x00000000004375b8                ATP_StorageServiceGetUserInfoFromDB
                0x00000000004379d8                ATP_UsbStorageCheckDirMounted
                0x0000000000437c30                ATP_UsbStorageCheck
                0x0000000000437da4                StoSerGetUserNameByReference
                0x0000000000437e70                StoSerGetUserAccessByReference
                0x0000000000437f94                StoSerGetUserDir
                0x00000000004380a0                StoSerGetUserPermiss
                0x000000000043819c                ATP_StoSerFolderUsrAccGetFromDB
                0x00000000004383ec                ATP_StoSerLogicFolderGetFromDB
                0x00000000004386c0                StoSerGetPhysicInstByName
                0x00000000004387c4                StoSerCalCapacity
                0x00000000004387ec                ATP_StoSerGetFolderNum
                0x0000000000438d48                ATP_StoSerRefreshLogicVolList
                0x000000000043906c                ATP_DisconetPhyMedium
                0x0000000000439488                ATP_GetPhyMediumStatus
                0x0000000000439648                ATP_GetPhynameFromDiskname
                0x000000000043995c                StoSerParsePhyMedInfo
                0x0000000000439c3c                ATP_AddFolderByUserName
                0x0000000000439d64                ATP_GetUserEnabled
                0x0000000000439e28                ATP_StoSerCheckUserExist
                0x0000000000439e70                ATP_StoSerFindAnonyStartFolder
                0x0000000000439f3c                ATP_StorageServiceCheckUserPid
                0x000000000043a254                ATP_StorageServiceCheckUserExist
                0x000000000043a374                ATP_StoStorageUserIsEnabled
                0x000000000043a434                ATP_StoStorageGuestCouldBeEnabled
 .text          0x000000000043a5c0     0x14d0 /home/liyupeng/zengyao/6.13/DT-W724V-20140311/output/host/usr/mips-unknown-linux-uclibc/sysroot/lib/libusbstoragecms.a(usbstoragecmsinit.o)
                0x000000000043a5c0                ATP_StoSerLogicVolGetFromDB
                0x000000000043a8fc                StorageServiceEnable
                0x000000000043ab74                ATP_StoSerGetWanAccessStatus
                0x000000000043ad68                HybridFtpcmsGetEffectIntf
                0x000000000043aefc                ATP_StoSetSerFtpIpv6WanActionAndAcl
                0x000000000043b178                ATP_StoSetSerFtpWanActionAndAcl
                0x000000000043b410                ATP_StoSetSerActionAndAcl
                0x000000000043b738                ATP_StorageService_Init
                0x000000000043b870                ATP_StorageService_UnInit
 .text          0x000000000043ba90     0x1130 /home/liyupeng/zengyao/6.13/DT-W724V-20140311/output/host/usr/mips-unknown-linux-uclibc/sysroot/lib/libusbstoragecms.a(usbstorageloginctl.o)
                0x000000000043c19c                StoSerLoginCtlInit
                0x000000000043c314                ATP_StoSerLoginCtlCheck
                0x000000000043c814                ATP_StoSerLoginCtlLogout
                0x000000000043ca78                ATP_StoSerLoginCtlAccCheck
 .text          0x000000000043cbc0      0x3e0 /home/liyupeng/zengyao/6.13/DT-W724V-20140311/output/host/usr/mips-unknown-linux-uclibc/sysroot/lib/libftpservercms.a(ftpservercmsmsgproc.o)
                0x000000000043cbc0                ATP_FTPFIREWALL_Ipv6WanStop
                0x000000000043cc28                ATP_FTPFIREWALL_Ipv6WanStart
                0x000000000043cc90                ATP_FTPSERVERCMS_ACL_Deal_Special_Data_Port
                0x000000000043cecc                ATP_FTPFIREWALL_WanStatusChgMsgProc
 .text          0x000000000043cfa0     0x1ce0 /home/liyupeng/zengyao/6.13/DT-W724V-20140311/output/host/usr/mips-unknown-linux-uclibc/sysroot/lib/libftpservercms.a(ftpservercms.o)
                0x000000000043cfa0                ATP_FTPDelAllCfgFile
                0x000000000043cffc                ATP_FTPAppendUserAccessMode
                0x000000000043d534                ATP_FTPAppendUsersPwdFile
                0x000000000043d8a0                ATP_UsbStorageFTPReset
                0x000000000043d8e8                lock_whole_file_reg
                0x000000000043d92c                ATP_FTP_KillUserPid
                0x000000000043dc38                ATP_UsbStorageFTPAddUser
                0x000000000043dd6c                ATP_FireWallFtpEffect
                0x000000000043de98                ATP_FtpserverGetState
                0x000000000043deac                ATP_FtpserverSetState
                0x000000000043ded4                ATP_StoSerFTPServerGetFromDB
                0x000000000043dfd0                ATP_FTPCreateCfgFile
                0x000000000043e510                ATP_StoSerFTPServerSaveDB
                0x000000000043e628                ATP_UsbStorageFTPSetEnable
                0x000000000043e804                ATP_UsbStorageFTPResetPara
                0x000000000043ea90                ATP_UsbStorageFTPUnInit
                0x000000000043eb28                ATP_UsbStorageFTPInit
 .text          0x000000000043ec80     0x2550 /home/liyupeng/zengyao/6.13/DT-W724V-20140311/output/host/usr/mips-unknown-linux-uclibc/sysroot/lib/libsambacms.a(sambacms.o)
                0x000000000043ee74                ATP_UsbStorageSambaCreateConfigFile
                0x0000000000440294                ATP_UsbStorageSambaDeleteConfigFile
                0x0000000000440328                ATP_UsbStorageSambaAddUser
                0x0000000000440750                UsbStorageSambaStop
                0x00000000004407fc                UsbStorageSambaStart
                0x00000000004408ec                UsbStorageSambaForceStart
                0x00000000004409d8                ATP_SAMBA_KillUserPid
                0x0000000000440bec                ATP_UsbStorageSambaInit
                0x0000000000440ddc                ATP_UsbStorageSambaUnInit
                0x0000000000440e30                ATP_UsbStorageSambaSetWorkgroupName
                0x0000000000440ee0                ATP_SambaGetState
                0x0000000000440eec                ATP_SambaSetState
                0x0000000000440f0c                ATP_StoSerNetServerGetFromDB
                0x0000000000440fe4                ATP_UsbStorageSambaSetDomain
 .text          0x00000000004411d0        0x0 /home/liyupeng/zengyao/6.13/DT-W724V-20140311/output/host/usr/mips-unknown-linux-uclibc/sysroot/lib/libsambacms.a(sambacmsmsgproc.o)
 .text          0x00000000004411d0     0x1b10 /home/liyupeng/zengyao/6.13/DT-W724V-20140311/output/host/usr/mips-unknown-linux-uclibc/sysroot/lib/libcwmpcms.a(cwmpcmsmsgproc.o)
                0x00000000004411d0                ATP_CMS_MdCheck
                0x00000000004411d8                ATP_CMS_MdAddSet
                0x00000000004411e0                ATP_CMS_MdDel
                0x00000000004418d8                EasySupportUpdateStatus
                0x0000000000441a10                ATP_Cwmp_Changed_NotifyRegister
                0x0000000000441a94                ATP_HALP_ParaCheck
                0x00000000004422d8                CwmpSetLteWanStatus
 .text          0x0000000000442ce0      0x4a0 /home/liyupeng/zengyao/6.13/DT-W724V-20140311/output/host/usr/mips-unknown-linux-uclibc/sysroot/lib/libcwmpcms.a(cwmpcms.o)
                0x0000000000442d28                CwmpTakeEffectProc
                0x0000000000442e5c                CwmpDelWanInfo
                0x0000000000442ea0                CwmpWanInfoAppend
                0x0000000000443050                CwmpLteManualDown
                0x00000000004430cc                CwmpWanInfoUpdate
 .text          0x0000000000443180     0x1950 /home/liyupeng/zengyao/6.13/DT-W724V-20140311/output/host/usr/mips-unknown-linux-uclibc/sysroot/lib/libcwmpcms.a(cwmpschdwlmsgproc.o)
                0x0000000000443188                ATP_CWMP_AddScheduleDowloadMsgProc
                0x0000000000443198                ATP_CWMP_AddSchDwlTimeMsgProc
                0x000000000044322c                ATP_ScheduleDowload_GetCwmpLocalAddr
                0x00000000004436bc                ATP_Random
                0x000000000044387c                CmsNotifyCwmpEnd
                0x0000000000443a80                CwmpFindMinuTimeItem
                0x0000000000443b28                CwmpUpdateSchDwlPara
                0x0000000000443b84                ATP_Cwmp_DelNoTWSchDownload
                0x0000000000443c6c                ATP_CWMP_UpdateTime
                0x00000000004444d8                ATP_CWMP_UpdateList
                0x00000000004446b8                ATP_CWMP_InitSchTimeInfo
                0x000000000044480c                ATP_CWMP_UnInitSchTimeInfo
                0x000000000044485c                ReplaceScheduleInstanc
                0x00000000004449e0                ATP_Cwmp_UpgEndProc
 .text          0x0000000000444ad0     0x1330 /home/liyupeng/zengyao/6.13/DT-W724V-20140311/output/host/usr/mips-unknown-linux-uclibc/sysroot/lib/libippingcms.a(ippingcmsmsgproc.o)
                0x0000000000444ad0                ATP_IPPing_GetMsgProc
                0x0000000000444c78                ATP_IPPing_SetMsgProc
                0x0000000000445948                ATP_IPPing_ParaCheck
 .text          0x0000000000445e00      0x1d0 /home/liyupeng/zengyao/6.13/DT-W724V-20140311/output/host/usr/mips-unknown-linux-uclibc/sysroot/lib/liblogcms.a(logcms.o)
                0x0000000000445e00                logMergeLogLevel
 .text          0x0000000000445fd0      0x5e0 /home/liyupeng/zengyao/6.13/DT-W724V-20140311/output/host/usr/mips-unknown-linux-uclibc/sysroot/lib/liblogcms.a(logcmsinit.o)
                0x0000000000446230                ATP_LOG_Init
 .text          0x00000000004465b0      0x4d0 /home/liyupeng/zengyao/6.13/DT-W724V-20140311/output/host/usr/mips-unknown-linux-uclibc/sysroot/lib/liblogcms.a(logcmsmsgproc.o)
                0x00000000004465b0                ATP_LOG_SetMsgProc
                0x00000000004467dc                ATP_LOG_ParaCheck
 .text          0x0000000000446a80      0x5c0 /home/liyupeng/zengyao/6.13/DT-W724V-20140311/output/host/usr/mips-unknown-linux-uclibc/sysroot/lib/libmiccms.a(miccmsmsgproc.o)
 .text          0x0000000000447040       0xa0 /home/liyupeng/zengyao/6.13/DT-W724V-20140311/output/host/usr/mips-unknown-linux-uclibc/sysroot/lib/libmiccms.a(miccms.o)
                0x0000000000447040                ATP_MIC_SubDevAttached_NotifyRegister
                0x00000000004470c4                MicSubDevAttachedDoNotify
 .text          0x00000000004470e0      0x4b0 /home/liyupeng/zengyao/6.13/DT-W724V-20140311/output/host/usr/mips-unknown-linux-uclibc/sysroot/lib/libportmntcms.a(portmntcms.o)
                0x00000000004470e0                ATP_CMS_PortMngrDelRange
                0x000000000044717c                ATP_CMS_PortMngrAddRange
                0x0000000000447204                ATP_CMS_PortMngrIsRangeFree
                0x00000000004472d8                ATP_CMS_PortMngrDisplay
                0x00000000004473bc                ATP_CMS_PortMngrWriteDebug
 .text          0x0000000000447590      0x5c0 /home/liyupeng/zengyao/6.13/DT-W724V-20140311/output/host/usr/mips-unknown-linux-uclibc/sysroot/lib/libsysinfocms.a(sysinfoinit.o)
                0x0000000000447590                ATP_SYS_DeviceInfoInit
 .text          0x0000000000447b50     0x1b50 /home/liyupeng/zengyao/6.13/DT-W724V-20140311/output/host/usr/mips-unknown-linux-uclibc/sysroot/lib/libsysinfocms.a(sysinfocmsmsgproc.o)
                0x0000000000447b50                ATP_SYS_GatewayInfoAddSet
                0x0000000000447b58                ATP_SYS_DeviceInfoGetProcessNum
                0x0000000000447b90                ATP_SYS_VendLogFileAddSet
                0x0000000000447b98                ATP_SYS_SptDataModelAddSet
                0x0000000000447d64                ATP_SYS_DeviceInfoGetMemoryStatus
                0x0000000000448474                ATP_SYS_DeviceInfoGetProcessStatus
                0x0000000000448858                ATP_SYS_DeviceInfoGetProcessEntry
                0x0000000000448938                ATP_SYS_GatewayInfoCheck
                0x0000000000448b40                ATP_SYS_DeviceConfigGet
                0x0000000000448bfc                ATP_SYS_DeviceConfigCheck
                0x0000000000448dd8                ATP_SYS_DeviceInfoCheck
                0x0000000000448ff0                ATP_SYS_DeviceConfigSet
                0x0000000000449084                ATP_SYS_DeviceInfoSet
                0x0000000000449310                ATP_SYSINFO_PrvCodeBNG_NotifyRegister
                0x0000000000449394                ATP_SYS_GetLogInfo
                0x00000000004494dc                ATP_SYS_DeviceInfoGet
 .text          0x00000000004496a0      0x5b0 /home/liyupeng/zengyao/6.13/DT-W724V-20140311/output/host/usr/mips-unknown-linux-uclibc/sysroot/lib/libsysinfocms.a(sysinfocms.o)
                0x00000000004496a0                ATP_IS_ValidateSubCode
                0x000000000044973c                ATP_SYS_GetEncodeBase64File
                0x00000000004497ec                ATP_SYS_GetDecodeBase64String
                0x0000000000449894                ATP_SYS_SetupFirstUseDate
                0x00000000004499a0                ATP_SYS_SetManualProvisioningCode
                0x0000000000449ac0                ATP_SYS_ProvCode_BNGIsSet
                0x0000000000449b48                ATP_SYS_BNGMode
                0x0000000000449b98                ATP_SYS_SaveBNGInfo
                0x0000000000449c1c                SysGetUpTime
 .text          0x0000000000449c50     0x2d40 /home/liyupeng/zengyao/6.13/DT-W724V-20140311/output/host/usr/mips-unknown-linux-uclibc/sysroot/lib/libsysinfocms.a(sysperiodicstatistics.o)
                0x0000000000449c6c                ATP_CMS_PeriodicStaticsSampleSetParameterDel
                0x000000000044a374                ATP_CMS_PeriodicStaticSampleSetParameterCheck
                0x000000000044a5fc                ATP_CMS_PeriodicStaticsSampleSetDel
                0x000000000044b26c                ATP_CMS_PeriodicStaticsSampleSetCheck
                0x000000000044b4cc                ATP_CMS_PeriodicStaticsSampleSetParameterAddSet
                0x000000000044b670                IteratorCommaValues
                0x000000000044c0ac                IsUnknownUTCTime
                0x000000000044c0fc                ATP_PS_BeginSampleSetParameterProc
                0x000000000044c31c                ATP_PS_BeginSampleSet
                0x000000000044c4b0                ATP_PS_EndSampleSet
                0x000000000044c54c                ATP_CMS_PeriodicStaticsSampleSetAddSet
                0x000000000044c770                ATP_PS_Init
 .text          0x000000000044c990       0x80 /home/liyupeng/zengyao/6.13/DT-W724V-20140311/output/host/usr/mips-unknown-linux-uclibc/sysroot/lib/libtelnetdcms.a(telnetdcmsinit.o)
                0x000000000044c990                ATP_TELNETD_Init
 .text          0x000000000044ca10      0x2f0 /home/liyupeng/zengyao/6.13/DT-W724V-20140311/output/host/usr/mips-unknown-linux-uclibc/sysroot/lib/libtelnetdcms.a(telnetdcmsmsgproc.o)
                0x000000000044ca34                ATP_TELNETD_ParaCheck
                0x000000000044cb80                ATP_TELNETD_SetMsgProc
                0x000000000044cc58                ATP_Telnetd_Changed_NotifyRegister
                0x000000000044ccdc                ATP_TELNETD_SetServerInfo
 .text          0x000000000044cd00      0xfb0 /home/liyupeng/zengyao/6.13/DT-W724V-20140311/output/host/usr/mips-unknown-linux-uclibc/sysroot/lib/libtr111cms.a(tr111cmsmsgproc.o)
                0x000000000044d238                ATP_CFM_NotifyChangeTimer
                0x000000000044d2d0                ATP_CFM_NotifyWithLimit
                0x000000000044d588                ATP_CWMP_TR111StartMsgProc
                0x000000000044d7d8                ATP_TR111_StuncDetectedMsgProc
                0x000000000044d8f4                ATP_TR111Part2_ParaCheck
                0x000000000044db1c                ATP_TR111Part2_SetMsgProc
 .text          0x000000000044dcb0      0x1d0 /home/liyupeng/zengyao/6.13/DT-W724V-20140311/output/host/usr/mips-unknown-linux-uclibc/sysroot/lib/libtr111cms.a(tr111cms.o)
                0x000000000044ddd4                NotifyDoRealMsg
 .text          0x000000000044de80      0xad0 /home/liyupeng/zengyao/6.13/DT-W724V-20140311/output/host/usr/mips-unknown-linux-uclibc/sysroot/lib/libtr232cms.a(ipdrcms.o)
                0x000000000044de80                IpdrCheckProtocol
                0x000000000044debc                IpdrCheckEncodingType
                0x000000000044def8                IpdrCheckReportingInterval
                0x000000000044df00                IpdrCheckTimeReference
                0x000000000044df8c                IpdrCheckValidateUrl
                0x000000000044e05c                IpdrCheckStreamingHost
                0x000000000044e07c                IpdrCheckStreamingSessionID
                0x000000000044e1c0                IpdrCheckStreamingPort
                0x000000000044e1cc                IsValidateAlias
                0x000000000044e328                IpdrCheckAlias
                0x000000000044e354                IpdrCheckBDProfileParaRef
                0x000000000044e3a8                ATP_IPDR_STOP
                0x000000000044e408                IpdrWanMatch
                0x000000000044e49c                ATP_IPDR_GetUpWanPath
                0x000000000044e60c                ATP_IPDR_START
                0x000000000044e6f4                IpdrCheckWanPath
                0x000000000044e7a8                IpdrCheckBulkDataEnable
                0x000000000044e81c                IpdrProfilechanged
                0x000000000044e8c0                IpdrWanDownProc
                0x000000000044e908                IpdrWanUpProc
 .text          0x000000000044e950      0x770 /home/liyupeng/zengyao/6.13/DT-W724V-20140311/output/host/usr/mips-unknown-linux-uclibc/sysroot/lib/libtr232cms.a(ipdrcmsmsgproc.o)
                0x000000000044e958                ATP_IPDR_BulkDataProfilePara_DelMsgProc
                0x000000000044ec5c                ATP_IPDR_BulkDataProfile_DelMsgProc
 .text          0x000000000044f0c0       0x50 /home/liyupeng/zengyao/6.13/DT-W724V-20140311/output/host/usr/mips-unknown-linux-uclibc/sysroot/lib/libtr232cms.a(ipdrcmsinit.o)
                0x000000000044f0c0                ATP_IPDR_Init
 .text          0x000000000044f110     0x1910 /home/liyupeng/zengyao/6.13/DT-W724V-20140311/output/host/usr/mips-unknown-linux-uclibc/sysroot/lib/libtraceroutecms.a(traceroutecmsmsgproc.o)
                0x000000000044f110                ATP_TraceRouteHopsInstNumGetMsgProc
                0x000000000044f15c                ATP_TraceRouteHops_GetMsgProc
                0x000000000044f20c                ATP_TraceRoute_GetMsgProc
                0x000000000044f4dc                ATP_TraceRoute_ParaCheck
                0x000000000044f96c                ATP_HopsArray_Allocate
                0x000000000044fb10                ATP_HopsArray_Destroy
                0x000000000044fb98                TRoute_Result_Analysis
                0x000000000045003c                getIpByIntfname
                0x00000000004505a8                ATP_TraceRoute_SetMsgProc
 .text          0x0000000000450a20       0x80 /home/liyupeng/zengyao/6.13/DT-W724V-20140311/output/host/usr/mips-unknown-linux-uclibc/sysroot/lib/libupnpcms.a(upnpcms.o)
                0x0000000000450a58                UpnpRestart
 .text          0x0000000000450aa0        0x0 /home/liyupeng/zengyao/6.13/DT-W724V-20140311/output/host/usr/mips-unknown-linux-uclibc/sysroot/lib/libuserintfcms.a(userintfinit.o)
 .text          0x0000000000450aa0      0x250 /home/liyupeng/zengyao/6.13/DT-W724V-20140311/output/host/usr/mips-unknown-linux-uclibc/sysroot/lib/libuserintfcms.a(userintfcmsmsgproc.o)
 .text          0x0000000000450cf0        0x0 /home/liyupeng/zengyao/6.13/DT-W724V-20140311/output/host/usr/mips-unknown-linux-uclibc/sysroot/lib/libuserintfcms.a(userintfcms.o)
 .text          0x0000000000450cf0      0x800 /home/liyupeng/zengyao/6.13/DT-W724V-20140311/output/host/usr/mips-unknown-linux-uclibc/sysroot/lib/libwebcms.a(webcmsmsgproc.o)
                0x0000000000450cf0                ATP_WEB_UserInfoAddSetMsgProc
                0x00000000004511e8                ATP_WEB_PASSWORD_Check
                0x00000000004513f0                ATP_WEB_PASSWORD_SetMsgProc
 .text          0x00000000004514f0      0x450 /home/liyupeng/zengyao/6.13/DT-W724V-20140311/output/host/usr/mips-unknown-linux-uclibc/sysroot/lib/libbridgeportcms.a(bridgeportcmsapi.o)
                0x00000000004514f0                BridgePortGetProc
                0x0000000000451890                ATP_BRIDGE_EnableIgmpSnooping
 .text          0x0000000000451940      0x400 /home/liyupeng/zengyao/6.13/DT-W724V-20140311/output/host/usr/mips-unknown-linux-uclibc/sysroot/lib/libbridgeportcms.a(bridgeportcms.o)
                0x0000000000451940                ATP_BRIDGE_GetBridgeIntfNameByInterfaceName
                0x0000000000451a0c                BridgePortIsValidBridgeDomain
                0x0000000000451b1c                BridgePortIsValidPortDomain
                0x0000000000451c24                BridgePortGetBrStatus
                0x0000000000451c44                BridgePortGetInterfaceByPortDomain
 .text          0x0000000000451d40       0x20 /home/liyupeng/zengyao/6.13/DT-W724V-20140311/output/host/usr/mips-unknown-linux-uclibc/sysroot/lib/libbridgeportcms.a(bridgingcmsinit.o)
 .text          0x0000000000451d60     0x1320 /home/liyupeng/zengyao/6.13/DT-W724V-20140311/output/host/usr/mips-unknown-linux-uclibc/sysroot/lib/libbridgeportcms.a(bridgingfiltercmsapi.o)
                0x0000000000451f64                BridgingFilterMallocNode
                0x0000000000452050                BridgingFilterDestroyNode
                0x00000000004521a0                BridgingFilterFindNode
                0x00000000004521c4                BridgingFilterGetNode
                0x0000000000452338                BridgingFilterSetParaInfo
                0x0000000000452404                BridgingFilterInsertNode
                0x0000000000452494                BridgingFilterDelNode
                0x0000000000452530                BridgingFilterDestroyAllNode
                0x000000000045257c                BridgingFilterDumpList
                0x0000000000452584                BridgingFilterEffect
                0x0000000000452bb8                BridgingFilterUnEffect
                0x0000000000452c9c                BridgingFilterUpdateListByModifyPort
                0x0000000000452d7c                BridgingFilterUpdateListByDelPort
                0x0000000000452e7c                BridgingFilterUpdateListByModifyBridge
                0x0000000000452f1c                BridgingFilterUpdateListByDelBridge
                0x0000000000453058                BridgingFilterReEffect
 .text          0x0000000000453080      0x3d0 /home/liyupeng/zengyao/6.13/DT-W724V-20140311/output/host/usr/mips-unknown-linux-uclibc/sysroot/lib/libbridgeportcms.a(bridgingfiltercmsinit.o)
                0x0000000000453080                ATP_BRIDGE_FilterInit
 .text          0x0000000000453450      0xe20 /home/liyupeng/zengyao/6.13/DT-W724V-20140311/output/host/usr/mips-unknown-linux-uclibc/sysroot/lib/libbridgeportcms.a(bridgingfiltercmsmsgproc.o)
 .text          0x0000000000454270     0x1030 /home/liyupeng/zengyao/6.13/DT-W724V-20140311/output/host/usr/mips-unknown-linux-uclibc/sysroot/lib/libbridgeportcms.a(bridgingfilteroptions.o)
                0x0000000000454bf8                BridgingFilterDhcpOptionProcess
                0x0000000000454d30                BridgingFilterGetMacByVendorClassID
                0x0000000000454fb4                BridgingFilterGetMacByClientID
                0x0000000000455124                BridgingFilterGetMacByUserClassID
 .text          0x00000000004552a0     0x1730 /home/liyupeng/zengyao/6.13/DT-W724V-20140311/output/host/usr/mips-unknown-linux-uclibc/sysroot/lib/libipv6commoncms.a(ipv6commoncms.o)
                0x00000000004552a0                ATP_IPV6COMMON_CheckIPv6Address
                0x0000000000455468                ATP_IPV6COMMON_CheckHex
                0x00000000004554dc                ATP_IPV6COMMON_TransformStrToFullIPv6Address
                0x0000000000455658                ATP_IPV6COMMON_GetInterfaceIPv6AddressDetail
                0x0000000000455a94                ATP_IPV6COMMON_GetInterfaceIPv6Address
                0x0000000000455ac4                ATP_IPV6COMMON_CtlDeleteLocalCfg
                0x0000000000455e4c                ATP_IPV6COMMON_CtlSetLocalCfg
                0x00000000004561e4                ATP_IPV6COMMON_CtlCheckLocalCfg
                0x000000000045633c                ATP_IPV6COMMON_CtlGeneratePrefix
                0x0000000000456860                ATP_UTIL_LockFile
                0x0000000000456968                ATP_UTIL_UnlockFile
 .text          0x00000000004569d0      0x7e0 /home/liyupeng/zengyao/6.13/DT-W724V-20140311/output/host/usr/mips-unknown-linux-uclibc/sysroot/lib/libipv6commoncms.a(ipv6commoncmsproc.o)
                0x00000000004569d0                ATP_IsHaapPrefixGot
                0x00000000004569e0                WanIpv6NotifyLan
                0x0000000000457164                WanIpv6NotifyLanForNotify
                0x000000000045716c                Ipv6HaapPrefixMsgProc
 .text          0x00000000004571b0     0x16f0 /home/liyupeng/zengyao/6.13/DT-W724V-20140311/output/host/usr/mips-unknown-linux-uclibc/sysroot/lib/libddnscms.a(ddnscms.o)
                0x00000000004571fc                DDNSSetEntry
                0x0000000000457260                DDNSFindEntry
                0x000000000045729c                DDNSAddEntry
                0x0000000000457360                DDNSDelEntry
                0x00000000004573dc                DDNSRemoveEntries
                0x0000000000457500                DDNSVaildUserName
                0x000000000045759c                DDNSVaildProtocol
                0x000000000045762c                DDNSVaildDomain
                0x0000000000457770                DDNSVaildHostName
                0x0000000000457824                DDNSCheck
                0x0000000000457ad8                DDNSValidNode
                0x0000000000457c38                DDNSGetParaFromDB
                0x0000000000457e3c                DDNSEffCheck
                0x0000000000457ec0                DDNSCheckEntryByWanPath
                0x000000000045803c                DDNSGetEntryNum
                0x0000000000458060                DDNSStopService
                0x0000000000458178                DDNSStartService
                0x000000000045843c                DDNSSetMsgProc
                0x000000000045877c                DDNSDelMsgProc
                0x00000000004587e4                DDNSRemoveRules
                0x0000000000458814                DDNSChangeIntf
 .text          0x00000000004588a0       0x70 /home/liyupeng/zengyao/6.13/DT-W724V-20140311/output/host/usr/mips-unknown-linux-uclibc/sysroot/lib/libddnscms.a(ddnscmsinit.o)
                0x00000000004588a0                ATP_DDNS_Init
                0x00000000004588d0                ATP_DDNS_UnInit
 .text          0x0000000000458910       0x40 /home/liyupeng/zengyao/6.13/DT-W724V-20140311/output/host/usr/mips-unknown-linux-uclibc/sysroot/lib/libddnscms.a(ddnscmsmsgproc.o)
                0x0000000000458910                ATP_DDNS_DelMsgProc
                0x0000000000458924                ATP_DDNS_AddSetMsgProc
                0x0000000000458938                ATP_DDNS_Check
 .text          0x0000000000458950      0x2d0 /home/liyupeng/zengyao/6.13/DT-W724V-20140311/output/host/usr/mips-unknown-linux-uclibc/sysroot/lib/libddnscms.a(ddnscmsapi.o)
                0x0000000000458950                ATP_DDNS_StartService
                0x0000000000458b9c                ATP_DDNS_StopService
                0x0000000000458c04                ATP_DDNS_RemoveRules
 .text          0x0000000000458c20      0x6b0 /home/liyupeng/zengyao/6.13/DT-W724V-20140311/output/host/usr/mips-unknown-linux-uclibc/sysroot/lib/libdhcp6ccms.a(dhcp6ccms.o)
                0x0000000000458f60                ATP_DHCP6C_Start
                0x0000000000459178                ATP_DHCP6C_Stop
 .text          0x00000000004592d0     0x3750 /home/liyupeng/zengyao/6.13/DT-W724V-20140311/output/host/usr/mips-unknown-linux-uclibc/sysroot/lib/libdhcp6ccms.a(dhcp6ccmsmsgproc.o)
                0x000000000045b374                FindDhcp6cInfoByInterface
                0x000000000045b3d8                ATP_DHCP6C_FindIpv6InfoByInterface
                0x000000000045b43c                ATP_Dhcp6cCms_Init
                0x000000000045b884                Ipv6cpUpdateInterfaceID
 .text          0x000000000045ca20     0x1de0 /home/liyupeng/zengyao/6.13/DT-W724V-20140311/output/host/usr/mips-unknown-linux-uclibc/sysroot/lib/libdhcp6scms.a(dhcp6scms.o)
                0x000000000045cbbc                Dhcp6sCtlCheckPrefix
                0x000000000045ccc4                Dhcp6sCtlCheckPrefixLength
                0x000000000045cd18                Dhcp6sCtlCheckDNSServer
                0x000000000045cddc                Dhcp6sCtlCheckTime
                0x000000000045ce84                Dhcp6sCtlGenerateIPPool
                0x000000000045d020                Dhcp6sCtlAnalyseFile
                0x000000000045d0f0                Dhcp6sCtlPrefix
                0x000000000045d294                Dhcp6sCtlCheckDir
                0x000000000045d364                Dhcp6sCtlGenerateConfigOption
                0x000000000045d9c8                Dhcp6sCtlServerStop
                0x000000000045db68                Dhcp6sCtlServerStart
                0x000000000045dc94                Dhcp6sCtlServerRestart
                0x000000000045dd40                Dhcp6sCtlProcess
                0x000000000045de1c                Dhcp6sCtlCfgInterface
                0x000000000045e0cc                Dhcp6sCmsInit
                0x000000000045e2dc                DHCP6sCtlCopyDNSServerToList
                0x000000000045e44c                Dhcp6sCtlCfgDnsServer
                0x000000000045e5e4                Dhcp6sCtlDnsServer
                0x000000000045e66c                Dhcp6sCtlCheckDomainName
 .text          0x000000000045e800       0x80 /home/liyupeng/zengyao/6.13/DT-W724V-20140311/output/host/usr/mips-unknown-linux-uclibc/sysroot/lib/libdhcp6scms.a(dhcp6scmsinit.o)
                0x000000000045e800                ATP_DHCP6S_Init
 .text          0x000000000045e880      0x290 /home/liyupeng/zengyao/6.13/DT-W724V-20140311/output/host/usr/mips-unknown-linux-uclibc/sysroot/lib/libdhcp6scms.a(dhcp6scmsapi.o)
                0x000000000045e880                ATP_DHCPV6_SERVER_LanHostCfgUseParameterFromWAN
 .text          0x000000000045eb10     0x24e0 /home/liyupeng/zengyao/6.13/DT-W724V-20140311/output/host/usr/mips-unknown-linux-uclibc/sysroot/lib/libdhcp6scms.a(dhcp6scmsproctr181.o)
                0x000000000045eb10                ATP_DHCP6SCMS_PoolOptionAddSetObjProc
                0x000000000046000c                ATP_DHCP6SCMS_PoolOptionCheck
                0x00000000004601a8                ATP_DHCP6SCMS_PoolAddSetObjProc
                0x0000000000460510                ATP_DHCP6SCMS_PoolCheck
                0x0000000000460b50                Dhcp6scmsTr181Init
 .text          0x0000000000460ff0     0x1960 /home/liyupeng/zengyao/6.13/DT-W724V-20140311/output/host/usr/mips-unknown-linux-uclibc/sysroot/lib/libdhcpccms.a(dhcpccmsmsgproc.o)
                0x000000000046292c                ATP_DHCPC_GetObjByNasName
 .text          0x0000000000462950       0xa0 /home/liyupeng/zengyao/6.13/DT-W724V-20140311/output/host/usr/mips-unknown-linux-uclibc/sysroot/lib/libdhcpccms.a(dhcpccmsinit.o)
                0x0000000000462950                ATP_DHCP_CLIENT_Init
                0x00000000004629a0                ATP_DHCP_CLIENT_UnInit
 .text          0x00000000004629f0      0x880 /home/liyupeng/zengyao/6.13/DT-W724V-20140311/output/host/usr/mips-unknown-linux-uclibc/sysroot/lib/libdhcpccms.a(dhcpccms.o)
                0x00000000004629f0                DhcpccmsGetPid
                0x0000000000462ac4                GetFirmwareVersion
                0x0000000000462b4c                DhcpccmsIpoeInit
                0x0000000000462e34                DhcpccmsIpoeUnInit
                0x0000000000463080                DhcpccmsBridgeInit
                0x000000000046319c                DhcpccmsBridgeUnInit
 .text          0x0000000000463270      0x360 /home/liyupeng/zengyao/6.13/DT-W724V-20140311/output/host/usr/mips-unknown-linux-uclibc/sysroot/lib/libdhcpscms.a(lanapi.o)
                0x0000000000463270                LANPortPhysicalStatusChange
                0x00000000004633d0                WlanDownEvent
                0x0000000000463414                ATP_LAN_GetIndexByName
                0x00000000004634d8                ATP_LAN_GetOptionByTag
                0x0000000000463524                ATP_LAN_GetAddrMask
 .text          0x00000000004635d0      0x820 /home/liyupeng/zengyao/6.13/DT-W724V-20140311/output/host/usr/mips-unknown-linux-uclibc/sysroot/lib/libdhcpscms.a(lanutil.o)
                0x00000000004635d0                DhcpsRestart
                0x00000000004635e8                CmsSendMsg2Dest
                0x0000000000463618                CmsSendMsgProc
                0x000000000046363c                isPoolIpAddrValid
                0x00000000004637e8                DhcpsValidateCommaIPStr
                0x00000000004638d8                DhcpsGetInterfacePath
                0x0000000000463b80                DhcpsValidateUAllctdWan
                0x0000000000463c10                DhcpsValidateDomainName
                0x0000000000463cec                DhcpsValidateMacList
                0x0000000000463de4                DhcpsSetAllowedMACAddr
 .text          0x0000000000463df0      0x2e0 /home/liyupeng/zengyao/6.13/DT-W724V-20140311/output/host/usr/mips-unknown-linux-uclibc/sysroot/lib/libdhcpscms.a(dhcpscmsinit.o)
                0x0000000000463df0                LanSetUp
                0x0000000000464068                ATP_LAN_Init
 .text          0x00000000004640d0      0x560 /home/liyupeng/zengyao/6.13/DT-W724V-20140311/output/host/usr/mips-unknown-linux-uclibc/sysroot/lib/libdhcpscms.a(dhcpscmsnotifymngr.o)
                0x0000000000464210                ATP_DHCPSCMS_OptionRegister
                0x00000000004642fc                ATP_DHCPSCMS_OptionUnRegister
                0x00000000004643c0                ATP_DHCPSCMS_OptionUpdate
                0x0000000000464480                ATP_DHCPSCMS_OptionDoNotify
                0x0000000000464618                DHCPSCMS_RecvDhpcsInit
 .text          0x0000000000464630      0x230 /home/liyupeng/zengyao/6.13/DT-W724V-20140311/output/host/usr/mips-unknown-linux-uclibc/sysroot/lib/libdhcpscms.a(dhcpscmsmsgproc.o)
                0x0000000000464660                ATP_LAN_SrvIPChanged_NotifyRegister
                0x00000000004646e4                LanSrvIPChangedDoNotify
                0x0000000000464708                ATP_LAN_SrvNonBr0IPChanged_NotifyRegister
                0x000000000046478c                LanSrvNonBr0IPChangedDoNotify
                0x00000000004647b0                ATP_DhcpSrv_EnableChanged_NotifyRegister
                0x0000000000464834                DhcpSrvEnableChangedDoNotify
 .text          0x0000000000464860     0x2290 /home/liyupeng/zengyao/6.13/DT-W724V-20140311/output/host/usr/mips-unknown-linux-uclibc/sysroot/lib/libdhcpscms.a(dhcpscms_tr181.o)
                0x0000000000464fd8                ATP_TR181_AllowedMAC_Init
                0x0000000000465120                ATP_TR181_AllowedMAC_Remove
                0x0000000000465370                ATP_TR181_Dhcpv4SrvCheckProc
                0x0000000000465464                ATP_TR181_Dhcpv4SrvSetObjProc
                0x000000000046560c                ATP_TR181_Dhcpv4Srv_AddServingPoolCheckProc
                0x0000000000466204                ATP_TR181_Dhcpv4Srv_AddServingPoolMsgProc
                0x0000000000466510                ATP_TR181_Dhcpv4Srv_DelServingPoolMsgProc
                0x00000000004666a4                ATP_TR181_Dhcpv4Srv_AddPoolOptionCheckProc
                0x0000000000466944                ATP_TR181_Dhcpv4Srv_AddPoolOptionMsgProc
                0x0000000000466a6c                ATP_TR181_Dhcpv4Srv_DelPoolOptionMsgProc
                0x0000000000466ad0                ATP_TR181_Dhcpv4Srv_AddPoolClientCheckProc
                0x0000000000466ad8                ATP_TR181_Dhcpv4Srv_AddPoolClientMsgProc
                0x0000000000466ae0                ATP_TR181_Dhcpv4Srv_DelPoolClientMsgProc
 .text          0x0000000000466af0      0x150 /home/liyupeng/zengyao/6.13/DT-W724V-20140311/output/host/usr/mips-unknown-linux-uclibc/sysroot/lib/libdnscms.a(dnscmsinit.o)
                0x0000000000466bb4                ATP_DNSCMS_Init
 .text          0x0000000000466c40     0x1040 /home/liyupeng/zengyao/6.13/DT-W724V-20140311/output/host/usr/mips-unknown-linux-uclibc/sysroot/lib/libdnscms.a(dnscms.o)
                0x00000000004674a0                ATP_DNSCMS_AppendRedirect
                0x00000000004674d4                ATP_DNSCMS_DeleteRedirect
                0x0000000000467508                ATP_DNSCMS_FlushRedirect
                0x000000000046752c                ATP_DNSCMS_AppendResident
                0x0000000000467560                ATP_DNSCMS_DeleteResident
                0x0000000000467594                ATP_DNSCMS_FlushResident
                0x00000000004675b8                ATP_DNSCMS_SetMinTTL
                0x00000000004675dc                ATP_DNSCMS_AppendFilter
                0x0000000000467610                ATP_DNSCMS_DeleteFilter
                0x0000000000467644                ATP_DNSCMS_FlushFilter
                0x0000000000467668                DnscmsSetOndemand
                0x0000000000467730                DnscmsWanUpProc
                0x0000000000467898                DnscmsWanDownProc
                0x00000000004679f0                ATP_DNSCMS_IPoEUP
                0x0000000000467a70                DnscmsPPPoEUP
                0x0000000000467b90                DnscmsWanUpProcW724v
                0x0000000000467c50                ATP_DNSCMS_PPPTrigerChange2OnDemand
 .text          0x0000000000467c80      0xfe0 /home/liyupeng/zengyao/6.13/DT-W724V-20140311/output/host/usr/mips-unknown-linux-uclibc/sysroot/lib/libdnscms.a(dnscmsdb.o)
                0x0000000000468778                DnscmsServerInit
                0x0000000000468988                DnscmsAddServer
                0x0000000000468b84                ATP_DNSCMS_AddServer
                0x0000000000468bf4                ATP_DNSCMS_DelServer
 .text          0x0000000000468c60     0x1170 /home/liyupeng/zengyao/6.13/DT-W724V-20140311/output/host/usr/mips-unknown-linux-uclibc/sysroot/lib/libdnsdiagcms.a(dnsdiagcmsmsgproc.o)
                0x0000000000468c60                DnsDiagResultInstNumGetProc
                0x000000000046947c                DnsDiagResultGetProc
                0x00000000004695b8                DnsDiagGetProc
 .text          0x0000000000469dd0      0x7d0 /home/liyupeng/zengyao/6.13/DT-W724V-20140311/output/host/usr/mips-unknown-linux-uclibc/sysroot/lib/libethintfcms.a(ethintfcmsapi.o)
                0x000000000046a598                ATP_ETH_UnInit
 .text          0x000000000046a5a0      0x620 /home/liyupeng/zengyao/6.13/DT-W724V-20140311/output/host/usr/mips-unknown-linux-uclibc/sysroot/lib/libethintfcms.a(ethintfcmsutil.o)
                0x000000000046a5a0                EthGetCfgFromDB
                0x000000000046a7e8                EthEnableVport
                0x000000000046a860                EthintfSwtichFunc
                0x000000000046aa04                EthInftPeriodicallyCloseIntProc
 .text          0x000000000046abc0      0x120 /home/liyupeng/zengyao/6.13/DT-W724V-20140311/output/host/usr/mips-unknown-linux-uclibc/sysroot/lib/libethintfcms.a(ethintfcmsmsgproc.o)
                0x000000000046abc0                ATP_Set_EthPowerSave
 .text          0x000000000046ace0     0x1cf0 /home/liyupeng/zengyao/6.13/DT-W724V-20140311/output/host/usr/mips-unknown-linux-uclibc/sysroot/lib/libethlinkcms.a(ethlinkcmsapi.o)
                0x000000000046ace0                EthLinkStatusChange
                0x000000000046b0d8                EthLinkInit
                0x000000000046b428                EthLinkcmsGetProc
                0x000000000046b56c                ATP_ETHLINK_CreateIntf_NotifyRegister
                0x000000000046b5f0                ATP_ETHLINK_DelIntf_NotifyRegister
                0x000000000046b674                EthlinkGet6BytesMacAddress
                0x000000000046c278                EthLinkAddSetProc
                0x000000000046c714                EthLinkSetup
                0x000000000046c840                EthLinkAutosenseUp
                0x000000000046c90c                EthLinkAutosenseDown
                0x000000000046c95c                ATP_ETHLINK_DSLModemStop
                0x000000000046c9c4                ATP_ETHLINK_GetExternalModem
 .text          0x000000000046c9d0     0x4b70 /home/liyupeng/zengyao/6.13/DT-W724V-20140311/output/host/usr/mips-unknown-linux-uclibc/sysroot/lib/libfirewallcmsdt.a(firewallcmsdt.o)
                0x000000000046eec4                AbuseIpv6WANDownMsgProc
                0x000000000046ef2c                ATP_FIREWALL6_WanStop
                0x000000000046f0dc                ATP_FIREWALL6_WanStart
                0x000000000046f140                ATP_FIREWALL_WanStop
                0x000000000046f20c                ATP_FIREWALL_WanStart
                0x000000000046f274                ATP_FIREWALL_LanChange
                0x000000000046f900                FireWallServicePreStop
                0x000000000046fa58                FireWallServicePreStart
                0x0000000000470188                ATP_FIREWALL_ServiceVoice
                0x0000000000470298                ATP_FIREWALL_ServiceSipAlg
                0x00000000004704c0                ATP_FIREWALL_AddNasFactoryRule
                0x0000000000470500                ATP_FIREWALL_Init
                0x000000000047119c                ATP_FIREWALL_DelNasFactoryRule
                0x00000000004711dc                ATP_FIREWALL_AddAllLanMacFilter
                0x0000000000471384                ATP_FIREWALL_DelLanMacFilter
 .text          0x0000000000471540      0x600 /home/liyupeng/zengyao/6.13/DT-W724V-20140311/output/host/usr/mips-unknown-linux-uclibc/sysroot/lib/libfirewallcmsdt.a(fwfilterapi.o)
                0x0000000000471540                DT_FILTER_EnableCheck
                0x0000000000471548                DT_FILTER_DevRuleCheck
                0x0000000000471550                DT_FILTER_TimeModeCheck
                0x0000000000471558                DT_FILTER_TimeDelMsgProc
                0x00000000004715b0                DT_FILTER_DevDelMsgProc
                0x0000000000471630                DT_FILTER_TimeModeSetMsgProc
                0x000000000047182c                DT_FILTER_DevRuleSetMsgProc
                0x00000000004719bc                DT_FILTER_EnableSetMsgProc
                0x0000000000471a38                ATP_FILTER_Init
                0x0000000000471ae4                DT_FILTER_UnInit
                0x0000000000471aec                DT_FILTER_SynLanMapDevName
 .text          0x0000000000471b40     0x4df0 /home/liyupeng/zengyao/6.13/DT-W724V-20140311/output/host/usr/mips-unknown-linux-uclibc/sysroot/lib/libfirewallcmsdt.a(fwfilterutil.o)
                0x0000000000471b40                ATP_FWFilterGetTimeListHead
                0x0000000000471b4c                FWFilterDevGetHead
                0x0000000000471b58                FWFilterDevParaSet
                0x0000000000471c48                FWFilterDevParaDel
                0x0000000000471ce0                FWFiltertimeCheckMac
                0x0000000000471d78                FWFilterStrTime2UintTime
                0x0000000000471e70                FWFilterTimeStr2Uint
                0x0000000000471f98                FWFilterTimeJudgeOrderRight
                0x0000000000472014                FWFilterTimeUint2Str
                0x000000000047201c                FWFilteResolveTime
                0x00000000004721cc                FWFilteResolveMac
                0x00000000004722ec                FWFilteCheckIfTimeSame
                0x0000000000472360                FWFilteGetWeekbyNum
                0x0000000000472400                FWFilteResolveDynamicPort
                0x00000000004725ec                FWFilteResolvePort
                0x0000000000472d5c                FWFilteSplitPort
                0x0000000000472f70                FWFilterEnableGetDB
                0x000000000047302c                FWFilterDevLocalDomainGetDB
                0x00000000004730cc                FWFilterDevFindEntry
                0x00000000004730f8                FWFilterDevSynName
                0x000000000047319c                FWFilterTimeFindEntry
                0x00000000004731c8                FWFilterTimeFindEntryByName
                0x0000000000473240                FWFilterDevFindEntryByName
                0x00000000004732b4                FWFilterValidateDevEntry
                0x00000000004732bc                FWFilterParaSetDB
                0x00000000004733f4                FWFilterParaDelDB
                0x0000000000473444                FWFilterDevSaveDB
                0x00000000004734c8                FWFilterCreateDirectory
                0x0000000000473528                FWFilterDevWriteDebug
                0x00000000004737d0                FWFilterDevGetDefaultTime
                0x0000000000473844                FWFilterDevSetDefaultValue
                0x00000000004738a4                FWFilterDevSetNamebyMac
                0x0000000000473950                FWFilterValidateTime
                0x0000000000473b58                FWFilterValidateThreeNumberEx
                0x0000000000473bfc                FWFilterTimeToShort
                0x0000000000473d54                FWFilterValidateTimeEntry
                0x0000000000473ee4                FWFilteCheckMac
                0x0000000000473f74                FWFilterSetTimeAction
                0x0000000000474d64                FWFilterTimeDelNode
                0x0000000000474e44                FWFilterTimeParaSet
                0x0000000000474f90                FWFilterSetTimeRule
                0x0000000000475008                FWFilterTimeModeGetDB
                0x0000000000475184                FWFilterSetDevAction
                0x00000000004764b0                FWFilterDevDelEntry
                0x0000000000476584                FWFilterDevSetEntry
                0x00000000004766c4                FWFilterDevRuleGetDB
                0x0000000000476854                FWFilterSetEnableAction
 .text          0x0000000000476930      0x5e0 /home/liyupeng/zengyao/6.13/DT-W724V-20140311/output/host/usr/mips-unknown-linux-uclibc/sysroot/lib/libfirewallcmsdt.a(abuseapi.o)
                0x0000000000476930                AbuseFinishFullUpdate
                0x000000000047696c                ABUSE_Usr_WhiteListDelMsgProc
                0x00000000004769d8                ABUSE_Usr_WhiteListSetMsgProc
                0x0000000000476bc0                ABUSE_Usr_WhiteListCheck
                0x0000000000476d4c                Abuse_EnableSetMsgProc
                0x0000000000476dd4                ATP_Abuse_Init
                0x0000000000476e14                AbuseIpv6start
 .text          0x0000000000476f10      0xd40 /home/liyupeng/zengyao/6.13/DT-W724V-20140311/output/host/usr/mips-unknown-linux-uclibc/sysroot/lib/libfirewallcmsdt.a(abuseutil.o)
                0x0000000000476f10                AbuseStart
                0x0000000000477080                Abuse_RecordUsrServerList
                0x0000000000477128                AbuseUsrRuleSet
                0x0000000000477218                AbuseUsrRuleDelNode
                0x00000000004772a8                AbuseInitRuleAdd
                0x0000000000477364                AbuseStop
                0x0000000000477438                AbuseSetAction
                0x0000000000477620                AbuseEnableGetFromDB
                0x00000000004776b4                AbuseUsrWhiteListFindEntry
                0x00000000004776e0                AbuseResolveHost
                0x0000000000477868                AbuseWhiteListRulesGetFromDB
                0x0000000000477ad0                AbuseRecordKernelLog
 .text          0x0000000000477c50      0x7f0 /home/liyupeng/zengyao/6.13/DT-W724V-20140311/output/host/usr/mips-unknown-linux-uclibc/sysroot/lib/libfirewallcmsdt.a(timeruleflushfcctl.o)
                0x0000000000478314                FWTimeUpdateOnSntpChange
 .text          0x0000000000478440     0x4000 /home/liyupeng/zengyao/6.13/DT-W724V-20140311/output/host/usr/mips-unknown-linux-uclibc/sysroot/lib/libfoncms.a(foncms.o)
                0x0000000000478544                FonStartWatchdog
                0x00000000004785d4                FON_Restore_Backup_Config
                0x00000000004786f0                FON_SaveValueToFile_fonversion
                0x0000000000478968                FON_SaveValueToFile_fonkey
                0x0000000000478a5c                FON_SaveValueToFile_fonmac
                0x0000000000478d58                FON_SaveValueToFile_chilliconf
                0x000000000047921c                FON_SaveValueToFile_fonsmcdconf
                0x0000000000479690                FON_SaveValueToFile_xl2tpdconf
                0x0000000000479c14                FON_SaveValueToFile_pppdconf
                0x0000000000479fcc                FonServiceStart
                0x000000000047a0d4                CheckBandwidth
                0x000000000047a10c                CheckWLANEnable
                0x000000000047a264                CheckEasySupport
                0x000000000047a2f0                isStrSuffix
                0x000000000047a3c8                trim
                0x000000000047a4a0                CheckValidRealms
                0x000000000047a770                CheckACSEnable
                0x000000000047a7fc                CheckRadiusSecretValid
                0x000000000047a8a0                CheckUamsecretValid
                0x000000000047a944                IsFONKeyValid
                0x000000000047aa94                CheckFONKeyValid
                0x000000000047ab70                CheckHMConfigFile
                0x000000000047ac84                CheckHMConfigValid
                0x000000000047ad5c                CheckHMConfig
                0x000000000047ae58                SetOffReason
                0x000000000047aeec                FonServiceActiveChecking
                0x000000000047b0f8                FonServiceEnableChecking
                0x000000000047b3cc                GetFONStatus
                0x000000000047b4a4                FonRunWatchdog
                0x000000000047b638                SetFONStatus
                0x000000000047b744                FonServiceStatusChecking
                0x000000000047b808                FonServiceInit
                0x000000000047ba9c                FonServiceStop
                0x000000000047bcd4                FoncmsWanDownProc
                0x000000000047c008                FoncmsWanUpProc
                0x000000000047c364                KillRadius
                0x000000000047c408                StopRadiusSending
 .text          0x000000000047c440       0x30 /home/liyupeng/zengyao/6.13/DT-W724V-20140311/output/host/usr/mips-unknown-linux-uclibc/sysroot/lib/libfoncms.a(foncmsinit.o)
                0x000000000047c440                ATP_FON_Init
 .text          0x000000000047c470     0x3420 /home/liyupeng/zengyao/6.13/DT-W724V-20140311/output/host/usr/mips-unknown-linux-uclibc/sysroot/lib/libfoncms.a(foncmsmsgproc.o)
                0x000000000047e35c                FonStopPeriodRadius
                0x000000000047f054                ATP_FON_EasySupportUpdateProc
                0x000000000047f264                FON_Service_Restart
 .text          0x000000000047f890     0x2260 /home/liyupeng/zengyao/6.13/DT-W724V-20140311/output/host/usr/mips-unknown-linux-uclibc/sysroot/lib/libhybridcms.a(hybridcms.o)
                0x0000000000481a1c                ATP_HybridCms_Init
 .text          0x0000000000481af0     0x93c0 /home/liyupeng/zengyao/6.13/DT-W724V-20140311/output/host/usr/mips-unknown-linux-uclibc/sysroot/lib/libhybridcms.a(hybridcmsfilter.o)
                0x0000000000485364                HybridcmsTurnNumToMask4
                0x0000000000487738                HybridcmsTurnNumToMask6
                0x0000000000489780                HybridcmsFilterAddPolicyRoute
                0x0000000000489858                HybridcmsGetCurTemplateID
                0x0000000000489af8                HybridcmsFilterStartAll
                0x0000000000489b20                HybridcmsFilterStartFQDN
                0x0000000000489b48                HybridcmsFilterBlockBypass
                0x000000000048a068                HybridcmsFilterUndoBlockBypass
                0x000000000048a2fc                HybridcmsFilterInit
                0x000000000048a798                ConvertTypeToString
                0x000000000048ac94                GetFilterListHead
 .text          0x000000000048aeb0       0x30 /home/liyupeng/zengyao/6.13/DT-W724V-20140311/output/host/usr/mips-unknown-linux-uclibc/sysroot/lib/libigmpcms.a(igmpcmsmsgproc.o)
 .text          0x000000000048aee0      0xd30 /home/liyupeng/zengyao/6.13/DT-W724V-20140311/output/host/usr/mips-unknown-linux-uclibc/sysroot/lib/libigmpcms.a(igmpcms.o)
                0x000000000048b784                ATP_IGMP_ProxyUnInit
                0x000000000048b7ac                ATP_IGMP_SetProxyInfo
                0x000000000048b85c                ATP_IGMP_ParaCheck
                0x000000000048b8c8                ATP_IGMP_ProxyInit
                0x000000000048ba20                IgmpProxyResetSimple
                0x000000000048bb10                ATP_IGMP_SnoopingInit
                0x000000000048bb6c                ATP_IGMP_SetSnoopingEnable
                0x000000000048bb80                IgmpWanUpProc
                0x000000000048bbb0                IgmpWanDownProc
                0x000000000048bbe0                IgmpLanIpChangeProc
 .text          0x000000000048bc10      0x6c0 /home/liyupeng/zengyao/6.13/DT-W724V-20140311/output/host/usr/mips-unknown-linux-uclibc/sysroot/lib/libipcheckcms.a(ipcheckcms.o)
                0x000000000048bc10                cfmManageableDeviceExist
                0x000000000048bcb8                ATP_IPCHECK_HostGetMsgProc
                0x000000000048be40                ATP_IPCHECK_HostCheckMsgProc
                0x000000000048bfbc                ATP_IPCHECK_HostSetMsgProc
                0x000000000048c220                ATP_IPCHECK_HostDelMsgProc
 .text          0x000000000048c2d0       0x40 /home/liyupeng/zengyao/6.13/DT-W724V-20140311/output/host/usr/mips-unknown-linux-uclibc/sysroot/lib/libipcheckcms.a(ipcheckcmsinit.o)
                0x000000000048c2d0                ATP_IPCHECK_Init
 .text          0x000000000048c310       0xb0 /home/liyupeng/zengyao/6.13/DT-W724V-20140311/output/host/usr/mips-unknown-linux-uclibc/sysroot/lib/libipcheckcms.a(ipcheckcmsmsgproc.o)
                0x000000000048c310                ATP_IPCHECK_HostInfoUpdate_NotifyRegister
                0x000000000048c394                IpcheckHostInfoUpdateDoNotify
 .text          0x000000000048c3c0     0x2090 /home/liyupeng/zengyao/6.13/DT-W724V-20140311/output/host/usr/mips-unknown-linux-uclibc/sysroot/lib/libipintfcms.a(ipintfcmsapi.o)
                0x000000000048c3cc                IPIntfIPSetProc
                0x000000000048cd2c                IPInterfaceGetProc
                0x000000000048d938                IPIntfIPCheck
                0x000000000048db00                ATP_IPINTF_Up_NotifyRegister
                0x000000000048db84                ATP_IPINTF_Reset_NotifyRegister
                0x000000000048dc08                IpintfResetNotifyProcDoNotify
                0x000000000048dc2c                ATP_PPPINTF_Reset_NotifyRegister
                0x000000000048dcb0                PPPintfResetNotifyProcDoNotify
                0x000000000048dec8                ATP_IPINTF_Down_NotifyRegister
                0x000000000048df4c                IPintfSetStaic
 .text          0x000000000048e450     0x1df0 /home/liyupeng/zengyao/6.13/DT-W724V-20140311/output/host/usr/mips-unknown-linux-uclibc/sysroot/lib/libipintfcms.a(ipintfcmsget.o)
                0x000000000048e648                ATP_WAN_GetInstanceByPath
                0x000000000048e6b0                ATP_WAN_GetMask
                0x000000000048e800                ATP_WAN_GetGateWay
                0x000000000048e950                ATP_WAN_GetProtocol
                0x000000000048e9e0                ATP_WAN_GetWanProtocol
                0x000000000048ea58                ATP_WAN_GetConnType
                0x000000000048eab0                ATP_WAN_ValidatePath
                0x000000000048eae8                ATP_WAN_GetPathByInterface
                0x000000000048ebb8                ATP_WAN_GetStatus
                0x000000000048ec34                ATP_WAN_ISLTETunnelUp
                0x000000000048ed08                ATP_WAN_ISDSLTunnelUp
                0x000000000048ed60                ATP_WAN_GetInstanceHeader
                0x000000000048edd8                ATP_WAN_GetWanNext
                0x000000000048ee54                ATP_WAN_GetWanConnTrigger
                0x000000000048ef0c                ATP_WAN_GetWanServiceList
                0x000000000048ef60                ATP_WAN_GetServiceList
                0x000000000048f0ac                ATP_WAN_GetWanAddrType
                0x000000000048f184                ATP_WAN_GetWanIpAddr
                0x000000000048f25c                ATP_WAN_GetIpAddr
                0x000000000048f2bc                ATP_WAN_GetWanInterface
                0x000000000048f32c                ATP_WAN_GetInterface
                0x000000000048f38c                ATP_WAN_IsLTEWan
                0x000000000048f3f0                ATP_WAN_IsPPPWan
                0x000000000048f4a0                ATP_WAN_IsGreWan
                0x000000000048f504                ATP_WAN_GetWanConnstatus
                0x000000000048f584                ATP_WAN_GetWanEnable
                0x000000000048f5ac                ATP_WAN_GetWanPath
                0x000000000048f5e4                ATP_WAN_GetNext
                0x000000000048f684                ATP_WAN_GetWanDynamicDns
                0x000000000048f724                ATP_WAN_GetWanDnsServers
                0x000000000048f778                ATP_WAN_GetWanDnsOverride
                0x000000000048f798                ATP_WAN_GetWanDnsEnabled
                0x000000000048f7b8                ATP_WAN_GetWanMaxMtuSize
                0x000000000048f7e0                ATP_WAN_GetIpMtu
                0x000000000048f830                ATP_WAN_GetWanIpv4Enable
                0x000000000048f858                ATP_WAN_GetWanIpv6Enable
                0x000000000048f880                ATP_WAN_GetWanIpv6AddrType
                0x000000000048f958                ATP_WAN_GetWanIpv6Addr
                0x000000000048fa30                ATP_WAN_GetWanIpv6PrefixList
                0x000000000048fb08                ATP_WAN_GetStatus6
                0x000000000048fc7c                ATP_WAN_GetWanIpv6Connstatus
                0x000000000048fd48                ATP_WAN_GetWanIpv6DynamicGateWay
                0x000000000048fde0                ATP_WAN_GetWanIpv6RaPrefix
                0x000000000048fe78                ATP_WAN_GetWanIpv6RaPrefixLen
                0x000000000048fef0                ATP_WAN_GetWanIpv6PrefixLength
                0x000000000048ff68                ATP_WAN_GetWanIpv6GateWay
                0x00000000004900d4                ATP_WAN_GetWanIpv6DnsEnabled
                0x00000000004900f4                ATP_WAN_GetWanIpv6DnsOverride
                0x0000000000490114                ATP_WAN_GetWanIpv6DynamicDns
                0x00000000004901e0                ATP_WAN_GetWanIpv6DnsServers
 .text          0x0000000000490240      0x1d0 /home/liyupeng/zengyao/6.13/DT-W724V-20140311/output/host/usr/mips-unknown-linux-uclibc/sysroot/lib/libipintfcms.a(ipintfcmsset.o)
                0x0000000000490358                ATP_IPINTF_SetIPv4Addr
                0x00000000004903e8                ATP_IPINTF_SetIPv4Mask
                0x00000000004903f8                ATP_IPINTF_SetIPv4AddrType
 .text          0x0000000000490410     0x11c0 /home/liyupeng/zengyao/6.13/DT-W724V-20140311/output/host/usr/mips-unknown-linux-uclibc/sysroot/lib/libipintfcms.a(ipintfcmsint.o)
                0x0000000000490bec                ATP_IPINTF_Ipv4UpProcess
                0x0000000000490f9c                ATP_IPINTF_Ipv4DownProcess
                0x0000000000491148                ATP_IPINTF_Ipv4UpdateProcess
                0x0000000000491168                ATP_IPINTF_Ipv6UpProcess
                0x0000000000491344                ATP_IPINTF_Ipv6UpdateProcess
                0x00000000004913dc                ATP_IPINTF_Ipv6DownProcess
 .text          0x00000000004915d0       0x40 /home/liyupeng/zengyao/6.13/DT-W724V-20140311/output/host/usr/mips-unknown-linux-uclibc/sysroot/lib/libiptunnelcms.a(iptunnelcmsinit.o)
                0x00000000004915d0                ATP_IPTunnel_Init
                0x0000000000491600                ATP_IPTunnel_UnInit
 .text          0x0000000000491610      0x3b0 /home/liyupeng/zengyao/6.13/DT-W724V-20140311/output/host/usr/mips-unknown-linux-uclibc/sysroot/lib/libiptunnelcms.a(iptunnelcmsapi.o)
                0x0000000000491610                ATP_IPTunnel_Stop
                0x00000000004916b4                ATP_IPTunnel_Start
                0x0000000000491758                ATP_IPTunnel_GetInstanceByWanPath
                0x00000000004917bc                ATP_IPTunnel_ConfClear
                0x00000000004917d0                ATP_IPTunnel_GetInstanceByPath
                0x0000000000491834                ATP_IPTunnel_GetTunnelAlias
                0x00000000004918ac                ATP_IPTunnel_IsExistActivated6in4Tunnel
                0x0000000000491974                ATP_IPTunnel_IsExistActivatedTunnel
                0x00000000004919a8                ATP_IPTunnel_GetInstanceHeader
 .text          0x00000000004919c0      0xb30 /home/liyupeng/zengyao/6.13/DT-W724V-20140311/output/host/usr/mips-unknown-linux-uclibc/sysroot/lib/libiptunnelcms.a(iptunnelcms.o)
                0x00000000004919c0                IpTunnelCompensateInfo
                0x0000000000491ac0                IpTunnelConfGetDB
                0x0000000000491b10                IpTunnelConfInit
                0x0000000000491b5c                IpTunnelAddInstance
                0x0000000000491c14                IpTunnelKillDns
                0x0000000000491ca8                IpTunnelDelInstance
                0x0000000000491d30                IpTunnelGetInstance
                0x0000000000491d58                IpTunnelRegisterMechanism
                0x0000000000491d98                IpTunnelGetMechanismOps
                0x0000000000491dfc                IpTunnelStart
                0x0000000000491e7c                IpTunnelStop
                0x0000000000491f0c                IpTunnelValidateEnable
                0x0000000000491f14                IpTunnelValidateWanPath
                0x00000000004922c0                IpTunnelDelConfFromDB
                0x000000000049235c                IpTunnelReadDnsProbeInfo
                0x0000000000492444                IpTunnelRestart
 .text          0x00000000004924f0      0x700 /home/liyupeng/zengyao/6.13/DT-W724V-20140311/output/host/usr/mips-unknown-linux-uclibc/sysroot/lib/liblannamecms.a(lannamecms.o)
                0x00000000004927fc                LannameSetDomainSearch
                0x00000000004929e0                LannameLanInfoChangeProc
                0x0000000000492aa8                ATP_LANNAME_Init
                0x0000000000492b8c                ATP_LANNAME_UnInit
                0x0000000000492bc4                ATP_LANNAME_SetDomainSearch
                0x0000000000492bd8                ATP_LANNAME_SetLocalHost
 .text          0x0000000000492bf0        0x0 /home/liyupeng/zengyao/6.13/DT-W724V-20140311/output/host/usr/mips-unknown-linux-uclibc/sysroot/lib/liblannamecms.a(lannamecmsmsgproc.o)
 .text          0x0000000000492bf0      0xd90 /home/liyupeng/zengyao/6.13/DT-W724V-20140311/output/host/usr/mips-unknown-linux-uclibc/sysroot/lib/libltecms.a(lteprofile.o)
                0x0000000000492bf0                LTEValidateSpecialChar
                0x0000000000492c90                LTEProfileCheckValue
                0x0000000000492d20                LTEGetProfileList
                0x0000000000492d2c                LTEGetCurrentProfile
                0x0000000000492d38                LTESetCurrentProfile
                0x0000000000492d70                LTEProfileSet
                0x0000000000492e4c                LTEProfileGet
                0x0000000000492e74                LTEProfileCheckDescription
                0x0000000000492edc                LTEProfileCheckAPNValue
                0x0000000000493050                LTEProfileCheckUserNameValue
                0x00000000004930b0                LTEProfileCheckPassWordValue
                0x0000000000493110                LTEProfileCheckDialNumValue
                0x0000000000493160                LTEProfileCheckAuthProtocol
                0x000000000049320c                LTEProfileParaCheck
                0x0000000000493454                LTEProfileRemove
                0x00000000004934d0                LTEUpSendUpdateMsg
                0x000000000049358c                LTEDownSendUpdateMsg
                0x0000000000493608                LTEUpDelaySendUpdateMsg
                0x0000000000493628                LTEDownDelaySendUpdateMsg
                0x000000000049366c                LTEProfileInitNotify
                0x0000000000493790                LTEProfileInit
 .text          0x0000000000493980      0xbf0 /home/liyupeng/zengyao/6.13/DT-W724V-20140311/output/host/usr/mips-unknown-linux-uclibc/sysroot/lib/libltecms.a(ltecmssimcard.o)
                0x0000000000493988                Function_PinReady_Proc
                0x0000000000493990                Function_PukRequired_Proc
                0x0000000000493a80                Function_PinRequired_Proc
                0x0000000000493bf8                ATP_GetSimcardState
                0x00000000004940b0                ATP_LTEGetSimcardMISDN
                0x0000000000494158                ATP_GetSimcardSCID
                0x0000000000494214                ATP_GetSimcardImsi
                0x00000000004942b4                ATP_LTEGetSimcardGID
 .text          0x0000000000494570     0x1620 /home/liyupeng/zengyao/6.13/DT-W724V-20140311/output/host/usr/mips-unknown-linux-uclibc/sysroot/lib/libltecms.a(ltecmswminfo.o)
                0x0000000000494624                ATP_LTEGetSysinfo
                0x000000000049476c                ATP_LTEGetFlowinfo
                0x0000000000494868                ATP_LTEGetServiceStatus
                0x0000000000494920                ATP_LTEGetServiceDomain
                0x00000000004949d8                ATP_LTEGetRoamStatus
                0x0000000000494a48                ATP_LTEGetSysSubMode
                0x0000000000494b28                ATP_LTEGetCellId
                0x0000000000494bf0                ATP_LTEGetRegisterNetwork
                0x0000000000494cf0                ATP_LTEGetSignal
                0x000000000049511c                ATP_LTEGetSyscfg
                0x00000000004952c0                ATP_LTEGetDsFlow
                0x000000000049535c                ATP_LTEGetWmInfoByTimer
                0x0000000000495690                ATP_LTEGetSwVersion
                0x0000000000495750                ATP_LTEGetImei
                0x0000000000495840                ATP_LTECardmode
                0x0000000000495940                ATP_LTESetCFUN
                0x0000000000495990                ATP_LTESetAntenna
                0x0000000000495a74                ATP_LTEGetAntenna
 .text          0x0000000000495b90      0x600 /home/liyupeng/zengyao/6.13/DT-W724V-20140311/output/host/usr/mips-unknown-linux-uclibc/sysroot/lib/libltecms.a(ltesmartcardreader.o)
                0x0000000000495da8                LTESmartcardReaderGet
                0x0000000000495fec                ATP_LTE_SmartcardReader_Init
 .text          0x0000000000496190      0x570 /home/liyupeng/zengyao/6.13/DT-W724V-20140311/output/host/usr/mips-unknown-linux-uclibc/sysroot/lib/libltecms.a(ltecmsmsgproc.o)
 .text          0x0000000000496700     0x1f20 /home/liyupeng/zengyao/6.13/DT-W724V-20140311/output/host/usr/mips-unknown-linux-uclibc/sysroot/lib/libltecms.a(ltecmsapi.o)
                0x0000000000497ba0                ATP_LTE_IntfEnableSet
                0x0000000000497c74                ATP_LTE_MobileStatsGet
                0x0000000000497da0                ATP_GetLteImei
 .text          0x0000000000498620      0x610 /home/liyupeng/zengyao/6.13/DT-W724V-20140311/output/host/usr/mips-unknown-linux-uclibc/sysroot/lib/libltecms.a(ltecmsmobile.o)
 .text          0x0000000000498c30      0x710 /home/liyupeng/zengyao/6.13/DT-W724V-20140311/output/host/usr/mips-unknown-linux-uclibc/sysroot/lib/libmldcms.a(mldcms.o)
                0x0000000000498cec                ATP_MLD_ProxyReset
                0x0000000000499000                ATP_MLD_ParaCheck
                0x0000000000499008                ATP_MLD_UnInit
                0x0000000000499010                DT_SetMldIfc
                0x000000000049913c                ATP_MLD_EnableSnooping
                0x00000000004991c0                ATP_MLD_SetSnoopingEnable
                0x00000000004991c8                ATP_MLD_SetProxyInfo
                0x0000000000499270                ATP_MLD_Init
 .text          0x0000000000499340      0x130 /home/liyupeng/zengyao/6.13/DT-W724V-20140311/output/host/usr/mips-unknown-linux-uclibc/sysroot/lib/libmldcms.a(mldcmsmsgproc.o)
 .text          0x0000000000499470     0x2200 /home/liyupeng/zengyao/6.13/DT-W724V-20140311/output/host/usr/mips-unknown-linux-uclibc/sysroot/lib/libnatcms.a(natcmsmsgproc.o)
                0x000000000049991c                ATP_NAT_DhcpStart
                0x0000000000499bd4                ATP_NAT_PortMapMsgProc
                0x0000000000499be8                ATP_NAT_PortMapDelMsgProc
                0x0000000000499bfc                ATP_NAT_PortMapCheck
                0x0000000000499d54                ATP_NAT_GetEnableByPath
                0x0000000000499ec8                ATP_NAT_FTP_PORTMAP
                0x0000000000499f34                HybridNatcmsGetEffectIntf
                0x000000000049a264                ATP_NAT_WanStop
                0x000000000049a624                ATP_NAT_WanStart
                0x000000000049aa30                ATP_NAT_CTclean
                0x000000000049aa9c                ATP_NAT_PMGetNodeNums
                0x000000000049aadc                NatPortMappingProcessUPnP
                0x000000000049ad9c                ATP_NAT_PORTMAPPING_UPNP_MSG_Process
                0x000000000049ae68                AlgSetSipInfo
                0x000000000049af0c                AlgClearSipRouteInfo
                0x000000000049afac                AlgStartSipRouteInfo
                0x000000000049b538                ATP_DT_ALG_SetSipUserlist
 .text          0x000000000049b670       0x70 /home/liyupeng/zengyao/6.13/DT-W724V-20140311/output/host/usr/mips-unknown-linux-uclibc/sysroot/lib/libnatcms.a(natcmsinit.o)
                0x000000000049b670                ATP_NAT_Init
                0x000000000049b6a0                ATP_NAT_Other_Init
 .text          0x000000000049b6e0     0x1330 /home/liyupeng/zengyao/6.13/DT-W724V-20140311/output/host/usr/mips-unknown-linux-uclibc/sysroot/lib/libnatcms.a(natcms.o)
                0x000000000049b870                ATP_NAT_LoadModule
                0x000000000049c804                ATP_NAT_LanChange
                0x000000000049c820                ATP_NAT_ChgTelnetPort
                0x000000000049c838                ATP_NAT_ChgFtpPort
                0x000000000049c850                ATP_NAT_ServiceIgmp
 .text          0x000000000049ca10      0x2c0 /home/liyupeng/zengyao/6.13/DT-W724V-20140311/output/host/usr/mips-unknown-linux-uclibc/sysroot/lib/libnatcms.a(natutil.o)
                0x000000000049ca10                NatIpNeedModify
                0x000000000049ca80                NatExec
                0x000000000049ca94                NatGetLeftMostOneBits
                0x000000000049cb00                NatGetLeftMostOneBitsInMask
                0x000000000049cbf8                NatDelFromDB
                0x000000000049cc0c                NatKeyListToDomain
                0x000000000049ccb4                NatValidConeNatType
 .text          0x000000000049ccd0        0x0 /home/liyupeng/zengyao/6.13/DT-W724V-20140311/output/host/usr/mips-unknown-linux-uclibc/sysroot/lib/libnatcms.a(natdmz.o)
 .text          0x000000000049ccd0     0x3590 /home/liyupeng/zengyao/6.13/DT-W724V-20140311/output/host/usr/mips-unknown-linux-uclibc/sysroot/lib/libnatcms.a(natportmap.o)
                0x000000000049d254                NatPortMapUnInit
                0x000000000049d2a4                NatPortMapAdd
                0x000000000049d428                NatPortMapIptblCmd
                0x000000000049d9c4                NatPortMapMultiInPortIptblCmd
                0x000000000049de5c                NatPortMapEffect
                0x000000000049e1ac                NatPortMapChgTelnetPort
                0x000000000049e2ec                NatFtpWanAccEnable
                0x000000000049e444                NatPortMapChgFtpPort
                0x000000000049e584                NatPortMapStopByWan
                0x000000000049e63c                NatPortMapClearByWan
                0x000000000049e7c0                NatPortMapGetNodeNumsAll
                0x000000000049e860                NatPortMapGetDb
                0x000000000049eac0                NatPortMapInit
                0x000000000049eaf4                NatPortMapGetNodeNums
                0x000000000049eb68                NatportGetCurTemplateID
                0x000000000049ec3c                NatPortMapComposeValidate
                0x000000000049ecf0                NatPortMapStartByWan
                0x000000000049edb8                NatPortMapsEffectForTunnel
                0x000000000049ee28                NatPortMapDel
                0x000000000049f068                NatPortMapDelMsgProc
                0x000000000049f0e0                NatFtpChgPortMap
                0x000000000049f2b4                NatPortMapSet
                0x000000000049f650                NatPortMapExtPortValidate
                0x000000000049f778                NatPortMapSetMsgProc
                0x000000000049fbe4                NatPortMapCheckDes
                0x000000000049fd0c                NatPortMapCheck
 .text          0x00000000004a0260      0x120 /home/liyupeng/zengyao/6.13/DT-W724V-20140311/output/host/usr/mips-unknown-linux-uclibc/sysroot/lib/libnatcms.a(prttrgapi.o)
                0x00000000004a0260                ATP_PT_Init
                0x00000000004a0290                ATP_PT_UnInit
                0x00000000004a02c0                ATP_PT_PTCheck
                0x00000000004a02d4                ATP_PT_AddSetMsgProc
                0x00000000004a02e8                ATP_PT_DelMsgProc
                0x00000000004a02fc                ATP_PT_WanRuleStart
                0x00000000004a0350                ATP_PT_WanRuleStop
 .text          0x00000000004a0380     0x3750 /home/liyupeng/zengyao/6.13/DT-W724V-20140311/output/host/usr/mips-unknown-linux-uclibc/sysroot/lib/libnatcms.a(prttrgutil.o)
                0x00000000004a05c8                PTValidProto
                0x00000000004a0648                PTCheckWan
                0x00000000004a06d0                PTFindSameName
                0x00000000004a0780                PTKeyListToDomain
                0x00000000004a0820                PTGetEntryNum
                0x00000000004a0844                PTFindEntry
                0x00000000004a08d0                PTCheckFilterPort
                0x00000000004a08fc                PTValidPortSum
                0x00000000004a0a50                PTGetWanStatus
                0x00000000004a0ac8                PTEffCheck
                0x00000000004a0b24                PTSyncToDb
                0x00000000004a0b54                PTValidAllParam
                0x00000000004a0cf8                PTCheck
                0x00000000004a0e10                PTParsePort
                0x00000000004a100c                PTSetRule
                0x00000000004a147c                PTStopRule
                0x00000000004a1500                PTRemoveEntries
                0x00000000004a15e0                PTStartRule
                0x00000000004a167c                PTPortMngAdd
                0x00000000004a186c                PTGetDevInfoByMac
                0x00000000004a1a1c                PTGetLanInfoByMac
                0x00000000004a1a54                PTPortMngDel
                0x00000000004a1be0                PTPortMngModify
                0x00000000004a1c80                PTAddEntry
                0x00000000004a1e54                PTGetParaFromDB
                0x00000000004a2084                PT_NatPortMapComposeValidate
                0x00000000004a20cc                PT_NatPortRedirParsePort
                0x00000000004a2280                PT_NatPortRedirJudegFormat
                0x00000000004a22c0                PT_NatExec
                0x00000000004a22d4                PT_NatPortRedirIptblCmd_multi
                0x00000000004a2408                PT_NatPortRedirIptblCmd
                0x00000000004a2520                PT_NatPortMapEffect
                0x00000000004a2a28                PTRulesStop
                0x00000000004a2b20                PTRulesStart
                0x00000000004a2c24                PTRulesStopForTunnel
                0x00000000004a2cb8                PTRulesStartForTunnel
                0x00000000004a2d60                PTDelEntry
                0x00000000004a2f00                PTDelMsgProc
                0x00000000004a2f90                PTSetEntry
                0x00000000004a3248                PTSetMsgProc
                0x00000000004a35d4                PT_PortMngrDelRange
                0x00000000004a3670                PT_PortMngrAddRange
                0x00000000004a36f8                PT_PortMngrWriteDebug
                0x00000000004a38cc                IsPortRangeOverlap
                0x00000000004a3914                PT_PortMngrIsRangeFree
                0x00000000004a39d4                PT_NATPortMap_NatPortMap_ExternalportProtocol_Check
 .text          0x00000000004a3ad0      0xcf0 /home/liyupeng/zengyao/6.13/DT-W724V-20140311/output/host/usr/mips-unknown-linux-uclibc/sysroot/lib/libnatcms.a(natcmsctclean.o)
                0x00000000004a3e70                ATP_NAT_CleanConntrack
                0x00000000004a3fa8                ATP_NAT_CleanConntrackByIpPort
                0x00000000004a4040                ATP_NAT_CleanConntrackByDscp
                0x00000000004a4098                ATP_NAT_CleanConntrackByPort
                0x00000000004a410c                ATP_NAT_CleanConntrackByIp6Port
                0x00000000004a4430                ATP_NAT_CleanConntrackByMac
                0x00000000004a4630                ATP_NAT_CleanConntrackByMixIp6Port
 .text          0x00000000004a47c0     0x1660 /home/liyupeng/zengyao/6.13/DT-W724V-20140311/output/host/usr/mips-unknown-linux-uclibc/sysroot/lib/libndiscms.a(ndiscmsmsgproc.o)
                0x00000000004a47c0                NdisDialLogProc
                0x00000000004a4eb0                NdisDialUpChageProc
                0x00000000004a5a50                GetProfile
                0x00000000004a5b44                LteGetMACAddress
                0x00000000004a5bec                ATP_Ndis_Init
                0x00000000004a5c70                ATP_Ndis_UnInit
                0x00000000004a5dcc                ATP_Ndis_FindIpv6InfoByInterface
 .text          0x00000000004a5e20      0xc10 /home/liyupeng/zengyao/6.13/DT-W724V-20140311/output/host/usr/mips-unknown-linux-uclibc/sysroot/lib/libneighdisccms.a(neighdisccms.o)
                0x00000000004a6448                FindNeighDiscInfoByInstId
                0x00000000004a6594                ATP_NeighDiscCms_Init
                0x00000000004a67a0                ATP_NeighDiscCms_TakeEffect
 .text          0x00000000004a6a30     0x1c70 /home/liyupeng/zengyao/6.13/DT-W724V-20140311/output/host/usr/mips-unknown-linux-uclibc/sysroot/lib/libpppccms.a(pppcapi.o)
                0x00000000004a6a30                PppcCreateFiles
                0x00000000004a7118                PppcDestroyFiles
                0x00000000004a7190                ATP_PPPC_Config
                0x00000000004a7b30                ATP_PPPC_Start
                0x00000000004a7c94                ATP_PPPC_Stop
                0x00000000004a8028                ATP_PPPC_SetTrigger
                0x00000000004a8118                ATP_PPPC_SaveSessionId
                0x00000000004a8234                ATP_PPPC_GetSessionId
                0x00000000004a8264                ATP_PRIVACY_PPPC_ReStart
                0x00000000004a8434                ATP_PRIVACY_PPPC_Stop
                0x00000000004a8500                ATP_DT_Log_DslDown
                0x00000000004a8640                ATP_PPPC_BngUser
 .text          0x00000000004a86a0     0x1560 /home/liyupeng/zengyao/6.13/DT-W724V-20140311/output/host/usr/mips-unknown-linux-uclibc/sysroot/lib/libpppintfcms.a(pppintfcmsinit.o)
                0x00000000004a86a0                PPPIntf_PPPoESetProc
                0x00000000004a86c8                PPPIntfIPCPCheck
                0x00000000004a86d0                PPPIntfIPCPSetProc
                0x00000000004a8cfc                PPPIntf_PPPoECheck
 .text          0x00000000004a9c00      0xce0 /home/liyupeng/zengyao/6.13/DT-W724V-20140311/output/host/usr/mips-unknown-linux-uclibc/sysroot/lib/libpppintfcms.a(pppintfcms.o)
                0x00000000004a9c00                PPPIntfClientStart
                0x00000000004aa578                PPPIntfSetParaValue
                0x00000000004aa5f0                PPPIntfClientStop
                0x00000000004aa6f4                PPPIntfValidatePppUser
                0x00000000004aa7ac                PPPIntfValidatePppPasswd
                0x00000000004aa874                ATP_PrivacyPppIntfClientStop
 .text          0x00000000004aa8e0     0x1470 /home/liyupeng/zengyao/6.13/DT-W724V-20140311/output/host/usr/mips-unknown-linux-uclibc/sysroot/lib/libpppintfcms.a(pppintfcmsmsg.o)
                0x00000000004ab328                PPPIntfDownProc
                0x00000000004ab770                PPPIntfGetStatus
                0x00000000004ab870                PPPIntfMsgProc
                0x00000000004abbf0                PPPIntfVlanChgMsgProc
 .text          0x00000000004abd50      0x950 /home/liyupeng/zengyao/6.13/DT-W724V-20140311/output/host/usr/mips-unknown-linux-uclibc/sysroot/lib/libpppintfcms.a(pppintfcmsadapt.o)
                0x00000000004abd50                PPPIntfJudeCredential
                0x00000000004ac08c                PPPIntfGetUserType
                0x00000000004ac0e8                ATP_WAN_IfFactoryForFireWall
                0x00000000004ac168                ATP_WAN_IfSetupUser
                0x00000000004ac1e4                PPPIntfValidateDTPppUser
                0x00000000004ac418                PPPIntfValidateDTPppUser_Tr064_Web
                0x00000000004ac628                PPPIntfJudgeT_onlinePppUser
 .text          0x00000000004ac6a0      0x7f0 /home/liyupeng/zengyao/6.13/DT-W724V-20140311/output/host/usr/mips-unknown-linux-uclibc/sysroot/lib/libprivacybtncms.a(privacybtncmsmsgproc.o)
                0x00000000004ace48                ATP_PRIVACY_DestroyFirstKickTimer
 .text          0x00000000004ace90      0x940 /home/liyupeng/zengyao/6.13/DT-W724V-20140311/output/host/usr/mips-unknown-linux-uclibc/sysroot/lib/libprivacybtncms.a(privacybtncms.o)
                0x00000000004acf74                ATP_PRIVACY_GetTimer
                0x00000000004acf80                ATP_PRIVACY_StartTimer
                0x00000000004ad184                ATP_PRIVACY_AutoReconnectStart
                0x00000000004ad418                ATP_PRIVACY_DestroyAutoReconnTimer
                0x00000000004ad488                ATP_PRIVACY_DestroyTimer
                0x00000000004ad4b8                ATP_PRIVACY_GetLinkState
                0x00000000004ad560                ATP_PRIVACY_GetWanLinkState
                0x00000000004ad5c4                ATP_PRIVACY_CheckDestroyTimer
                0x00000000004ad5ec                ATP_PRIVACY_DestroyBasicDataTimer
                0x00000000004ad630                ATP_PRIVACY_StartBasicDataTimer
                0x00000000004ad6e0                ATP_PRIVACY_BasicDataStart
                0x00000000004ad794                ATP_PRIVACY_StartForWan
 .text          0x00000000004ad7d0      0x270 /home/liyupeng/zengyao/6.13/DT-W724V-20140311/output/host/usr/mips-unknown-linux-uclibc/sysroot/lib/libdtqoscms.a(qosapi.o)
                0x00000000004ad8e8                ATP_QOS_WanUp
                0x00000000004ad980                ATP_QOS_Init
 .text          0x00000000004ada40      0x840 /home/liyupeng/zengyao/6.13/DT-W724V-20140311/output/host/usr/mips-unknown-linux-uclibc/sysroot/lib/libdtqoscms.a(qosconfig.o)
                0x00000000004ada40                QosAddRules
                0x00000000004ae178                QosDelRules
 .text          0x00000000004ae280     0x4100 /home/liyupeng/zengyao/6.13/DT-W724V-20140311/output/host/usr/mips-unknown-linux-uclibc/sysroot/lib/libradvdcms.a(radvdcms.o)
                0x00000000004ae3ac                RadvdCtlCheckPrefix
                0x00000000004ae448                RadvdCtlCheckPrefixLength
                0x00000000004ae49c                RadvdCtlCheckTime
                0x00000000004ae53c                RadvdCtlCheckInterface
                0x00000000004ae5ac                RadvdCtlCheckInterval
                0x00000000004ae6c0                RadvdCtlCheckDefaultLifetime
                0x00000000004ae724                RadvdCtlCheckFlag
                0x00000000004ae774                RadvdCtlCheckRoutePrefrence
                0x00000000004ae804                RadvdCtlCheckMTU
                0x00000000004ae860                RadvdCtlCheckReachableTime
                0x00000000004ae8b8                RadvdCtlCheckRetransTimer
                0x00000000004ae8c0                RadvdCtlCheckHopLimit
                0x00000000004ae910                RadvdCtlSaveCurrentCfg
                0x00000000004ae988                RadvdCtlCheckDir
                0x00000000004ae9f8                RadvdInit
                0x00000000004aea74                RadvdParameterCfg
                0x00000000004aed1c                RadvdGetCfg
                0x00000000004af188                RadvdCtlRAIntervalCfg
                0x00000000004af378                RadvdCtlGenerateFlagCfg
                0x00000000004af46c                RadvdCtlMtuCfg
                0x00000000004af598                RadvdCtlSetFlag
                0x00000000004af69c                RadvdULACtlDeleteLocalCfg
                0x00000000004af930                RadvdULACtlSetLocalCfg
                0x00000000004afbdc                RadvdULACtlCheckLocalCfg
                0x00000000004afd1c                RadvdCtlPrefixCfg
                0x00000000004b03a4                RadvdCtlGenerateCfgFile
                0x00000000004b0c9c                RadvdCtlStart
                0x00000000004b0d8c                RadvdCtlStop
                0x00000000004b1114                RadvdCtlReConfig
                0x00000000004b1380                RadvdCtlNormalCfgMode
                0x00000000004b15d4                RadvdULACtlNormalCfgMode
                0x00000000004b19f4                RadvdCtlWANCfgMode
                0x00000000004b1b34                RadvdCtlCfgInterface
                0x00000000004b1fdc                RadvdCmsInit
                0x00000000004b227c                ChangeBr0LinkLocalAddr
 .text          0x00000000004b2380      0x5c0 /home/liyupeng/zengyao/6.13/DT-W724V-20140311/output/host/usr/mips-unknown-linux-uclibc/sysroot/lib/libradvdcms.a(radvdcmsinit.o)
                0x00000000004b2530                WriteMacToFile
                0x00000000004b2860                ATP_RADVD_Init
 .text          0x00000000004b2940      0x4d0 /home/liyupeng/zengyao/6.13/DT-W724V-20140311/output/host/usr/mips-unknown-linux-uclibc/sysroot/lib/libradvdcms.a(radvdcmsmsgproc.o)
 .text          0x00000000004b2e10      0x7c0 /home/liyupeng/zengyao/6.13/DT-W724V-20140311/output/host/usr/mips-unknown-linux-uclibc/sysroot/lib/libradvdcms.a(radvdcmsapi.o)
                0x00000000004b2e10                ATP_RADVD_UseParameterFromWAN
                0x00000000004b3364                ATP_RADVD_ReconfigRadvdPro
 .text          0x00000000004b35d0     0x10e0 /home/liyupeng/zengyao/6.13/DT-W724V-20140311/output/host/usr/mips-unknown-linux-uclibc/sysroot/lib/libradvdcms.a(radvdcmsmsgproctr181.o)
 .text          0x00000000004b46b0     0x3900 /home/liyupeng/zengyao/6.13/DT-W724V-20140311/output/host/usr/mips-unknown-linux-uclibc/sysroot/lib/libroute6cms.a(route6cms.o)
                0x00000000004b55bc                ROUTE6CMS_Init
                0x00000000004b5938                ROUTE6CMS_StopAll
                0x00000000004b5a04                ROUTE6CMS_SetupAll
                0x00000000004b5ae8                ROUTE6CMS_DelAll
                0x00000000004b5b38                ROUTE6CMS_UnInit
                0x00000000004b5bd0                ROUTE6CMS_GetMsgProc
                0x00000000004b5d2c                ROUTE6CMS_Existed
                0x00000000004b6128                ROUTE6CMS_RenewList
                0x00000000004b62b0                ROUTE6CMS_Cmp
                0x00000000004b6354                ROUTE6CMS_Insert
                0x00000000004b6388                ROUTE6CMS_Renew
                0x00000000004b68ec                ROUTE6CMS_Inst
                0x00000000004b6938                ROUTE6CMS_GetInstMsgProc
                0x00000000004b6a04                ROUTE6CMS_SetMsgProc
                0x00000000004b6ce8                ROUTE6CMS_DelMsgProc
                0x00000000004b6d90                ROUTE6CMS_Check
                0x00000000004b72a4                ROUTE6CMS_StartByWan
                0x00000000004b73a0                ROUTE6CMS_StopByWan
                0x00000000004b749c                ROUTE6CMS_ClearByWan
                0x00000000004b764c                ROUTE6CMS_AddDftRoute
                0x00000000004b7654                ROUTE6CMS_DelDftRoute
                0x00000000004b765c                Route6TableForLan
                0x00000000004b7a20                Route6AddPolicyRoute
                0x00000000004b7a28                Route6DelPolicyRoute
                0x00000000004b7a30                Route6SrcIpAddPolicyRoute
                0x00000000004b7ca8                Route6SrcIpDelPolicyRoute
                0x00000000004b7e74                Route6PoliceRoutingBindDstIpRule
 .text          0x00000000004b7fb0       0x40 /home/liyupeng/zengyao/6.13/DT-W724V-20140311/output/host/usr/mips-unknown-linux-uclibc/sysroot/lib/libroute6cms.a(route6cmsinit.o)
                0x00000000004b7fb0                ATP_ROUTE6CMS_Init
 .text          0x00000000004b7ff0       0x70 /home/liyupeng/zengyao/6.13/DT-W724V-20140311/output/host/usr/mips-unknown-linux-uclibc/sysroot/lib/libroute6cms.a(route6cmsmsgproc.o)
 .text          0x00000000004b8060     0x1110 /home/liyupeng/zengyao/6.13/DT-W724V-20140311/output/host/usr/mips-unknown-linux-uclibc/sysroot/lib/libroute6cms.a(route6cmsapi.o)
                0x00000000004b84d8                AddDelL2BPolicyRoute
                0x00000000004b86dc                AddDelL2BPolicyRouteEx
                0x00000000004b86f4                ATP_Route6_AddPolicyRoute
                0x00000000004b8880                ATP_Route6_DelPolicyRoute
                0x00000000004b8a0c                ATP_Route6_SupplementDftRouteInMRT
                0x00000000004b8c18                ATP_Route6_AddPortBind
                0x00000000004b8e84                ATP_Route6_DelPortBind
                0x00000000004b900c                ATP_Route6_TableRestart
                0x00000000004b90a0                PolicyRule6Create
 .text          0x00000000004b9170     0x1d90 /home/liyupeng/zengyao/6.13/DT-W724V-20140311/output/host/usr/mips-unknown-linux-uclibc/sysroot/lib/libroutecms.a(routecmsmsgproc.o)
                0x00000000004b954c                ATP_ROUTE_DelMsgProc
                0x00000000004b9a18                ATP_ROUTE_AddSetMsgProc
                0x00000000004ba474                ATP_ROUTE_CheckMsgProc
                0x00000000004bae54                ATP_ROUTE_Init
 .text          0x00000000004baf00      0x1e0 /home/liyupeng/zengyao/6.13/DT-W724V-20140311/output/host/usr/mips-unknown-linux-uclibc/sysroot/lib/libroutecms.a(routecmsinit.o)
                0x00000000004baf00                RouteInit
                0x00000000004baf54                RouteUnInit
 .text          0x00000000004bb0e0     0x1000 /home/liyupeng/zengyao/6.13/DT-W724V-20140311/output/host/usr/mips-unknown-linux-uclibc/sysroot/lib/libroutecms.a(routecms.o)
                0x00000000004bb0e0                ATP_WAN_GetGateWay_DT
                0x00000000004bb26c                ATP_WAN_GetMask_DT
                0x00000000004bb3f8                ATP_ROUTE_SupplementDftRouteInMRT
                0x00000000004bb544                ATP_ROUTE_ADD_WanDftPoliceRoute
                0x00000000004bb69c                ATP_ROUTE_BY_WANSTART
                0x00000000004bb700                ATP_ROUTE_BY_WANSTOP
                0x00000000004bb8d4                ATP_ROUTE_BY_WANCLEAR
                0x00000000004bb8f8                ATP_ROUTE_ADD_DftPoliceRoute
                0x00000000004bbab4                ATP_ROUTE_Setup
                0x00000000004bbaec                ATP_ROUTE_Stop
                0x00000000004bbb24                ATP_ROUTE_Renew
                0x00000000004bc048                ATP_BIND_RouteDevBrBind
                0x00000000004bc068                ATP_ROUTE_LanChanged
                0x00000000004bc0a0                ATP_BIND_PolicyRouteBySrcIp
                0x00000000004bc0b4                ATP_UNBIND_PolicyRouteBySrcIp
                0x00000000004bc0c8                ATP_ROUTE_GetDftGtwy
 .text          0x00000000004bc0e0     0x1870 /home/liyupeng/zengyao/6.13/DT-W724V-20140311/output/host/usr/mips-unknown-linux-uclibc/sysroot/lib/libroutecms.a(routedft.o)
                0x00000000004bc0e0                RouteDftGetGlobal
                0x00000000004bc120                RouteDftSetGlobal
                0x00000000004bc164                RouteFindDftPolicyRouteUsed
                0x00000000004bc180                Route_BIND_Init
                0x00000000004bc28c                RouteHasAnyDefaultGateway
                0x00000000004bc400                RouteGetDftGtwy
                0x00000000004bc89c                RouteCmdErrMsg
                0x00000000004bc9c4                RouteDelAllDft
                0x00000000004bca5c                PoliceRoutingBindLanRouteInTable
                0x00000000004bca64                PoliceRoutingBindFmarkRuleDevGw
                0x00000000004bca6c                PoliceRoutingBindSrcIpRuleDevGw
                0x00000000004bce78                RouteAddDftPolicyRouteBySrcIp
                0x00000000004bcec4                PoliceRoutingUnBindSrcIpRuleDevGw
                0x00000000004bd0bc                RouteDelDftPolicyRouteBySrcIp
                0x00000000004bd244                PoliceRoutingBindBrSpecialDev
                0x00000000004bd53c                RouteADDDefaultPoliceRouting
                0x00000000004bd554                PolicyRuleCreate
                0x00000000004bd61c                WanPoliceRoutingBindDstIpRule
 .text          0x00000000004bd950     0x1de0 /home/liyupeng/zengyao/6.13/DT-W724V-20140311/output/host/usr/mips-unknown-linux-uclibc/sysroot/lib/libroutecms.a(routestatic.o)
                0x00000000004bd950                ATP_UTIL_GetDefaultRouteInterfaceName
                0x00000000004bdb1c                RouteEntry
                0x00000000004bdb28                RouteSetbyNode
                0x00000000004bdf90                RouteEntryAdd
                0x00000000004bdfa4                RouteStopAll
                0x00000000004be188                RouteSetupAll
                0x00000000004be4c8                RouteExisted
                0x00000000004be764                RouteRenewList
                0x00000000004be8a0                RouteInList
                0x00000000004be91c                RouteCmpCfgNode
                0x00000000004be994                RouteGetCfgNext
                0x00000000004beae0                RouteFindCfgNode
                0x00000000004bebd0                RouteDeleteCfg
                0x00000000004bee4c                RouteDelAll
                0x00000000004beebc                RouteSetup
                0x00000000004bf208                RouteStop
                0x00000000004bf3ac                RouteAddCfg
                0x00000000004bf578                RouteRemoveCfg
                0x00000000004bf5dc                RouteClear
 .text          0x00000000004bf730      0xc10 /home/liyupeng/zengyao/6.13/DT-W724V-20140311/output/host/usr/mips-unknown-linux-uclibc/sysroot/lib/libroutecms.a(routelist.o)
                0x00000000004bf730                RouteListRelease
                0x00000000004bf77c                RouteListGetNext
                0x00000000004bf794                RouteStaticWriteCfg
                0x00000000004bf8c4                RouteListAddByCopy
                0x00000000004bf964                RouteListRemove
                0x00000000004bf9f8                RouteListDeleteNode
                0x00000000004bfa78                RouteListInit
                0x00000000004bff0c                RouteGetLocalList
                0x00000000004bff18                RouteInsertLocalList
                0x00000000004bff48                RouteLocalListRemove
                0x00000000004bffd0                RouteListLanInitEffect
 .text          0x00000000004c0340      0xf40 /home/liyupeng/zengyao/6.13/DT-W724V-20140311/output/host/usr/mips-unknown-linux-uclibc/sysroot/lib/libsntpcms.a(sntpcms.o)
                0x00000000004c0408                SntpReadStatus
                0x00000000004c04e0                ATP_SNTP_GetStatus
                0x00000000004c04e8                SntpStripString
                0x00000000004c0618                SntpGetDhcpcOption42
                0x00000000004c08e4                SntpServerRestart
                0x00000000004c1278                ATP_SNTP_Init
 .text          0x00000000004c1280      0x890 /home/liyupeng/zengyao/6.13/DT-W724V-20140311/output/host/usr/mips-unknown-linux-uclibc/sysroot/lib/libsntpcms.a(sntpcmsposixtime.o)
                0x00000000004c1814                ParseTimeZone
 .text          0x00000000004c1b10      0x9a0 /home/liyupeng/zengyao/6.13/DT-W724V-20140311/output/host/usr/mips-unknown-linux-uclibc/sysroot/lib/libsntpcms.a(sntpcmsmsgproc.o)
                0x00000000004c2308                ATP_SntpNotifyProc_NotifyRegister
                0x00000000004c238c                SntpNotifyProcDoNotify
                0x00000000004c23b0                ATP_SntpDstChangeNotifyProc_NotifyRegister
                0x00000000004c2434                SntpDstChangeNotifyProcDoNotify
 .text          0x00000000004c24b0      0x640 /home/liyupeng/zengyao/6.13/DT-W724V-20140311/output/host/usr/mips-unknown-linux-uclibc/sysroot/lib/libvlancms.a(vlancms.o)
                0x00000000004c24b0                ATP_VLAN_VLANMux_DeleteWANInf
                0x00000000004c2558                ATP_VLAN_VLANMux_CreateWANInf
                0x00000000004c27a8                ATP_VLAN_Tagged_SetTxRules
                0x00000000004c2970                ATP_VLAN_Untagged_SetTxRules
 .text          0x00000000004c2af0        0x0 /home/liyupeng/zengyao/6.13/DT-W724V-20140311/output/host/usr/mips-unknown-linux-uclibc/sysroot/lib/libvlancms.a(vlancmsint.o)
 .text          0x00000000004c2af0        0x0 /home/liyupeng/zengyao/6.13/DT-W724V-20140311/output/host/usr/mips-unknown-linux-uclibc/sysroot/lib/libvlancms.a(vlancmsmsgproc.o)
 .text          0x00000000004c2af0     0x11a0 /home/liyupeng/zengyao/6.13/DT-W724V-20140311/output/host/usr/mips-unknown-linux-uclibc/sysroot/lib/libwancorecms.a(wancorecms.o)
                0x00000000004c2af0                WanRoutedWANUpNotifyInit
                0x00000000004c2b1c                ATP_WAN_RoutedWANUp_NotifyRegister
                0x00000000004c2b80                WanRoutedWANUpNotifierDoNotify
                0x00000000004c2ba4                WanRoutedPrePPPWANDownNotifyInit
                0x00000000004c2bd0                ATP_WAN_PrePPPWANDown_NotifyRegister
                0x00000000004c2c34                WanPrePPPWANDownNotifierDoNotify
                0x00000000004c2c58                WanRoutedPreWANDownNotifyInit
                0x00000000004c2c84                ATP_WAN_PreRoutedWANDown_NotifyRegister
                0x00000000004c2ce8                WanPreRoutedWANDownNotifierDoNotify
                0x00000000004c2d0c                WanRoutedWANDownNotifyInit
                0x00000000004c2d38                ATP_WAN_RoutedWANDown_NotifyRegister
                0x00000000004c2d9c                WanRoutedWANDownNotifierDoNotify
                0x00000000004c2dc0                WanUpdateInfoNotifyInit
                0x00000000004c2dec                ATP_WAN_WanUpdateInfo_NotifyRegister
                0x00000000004c2e50                WanUpdateInfoNotifierDoNotify
                0x00000000004c2e74                WanPreWanUpdateInfoNotifyInit
                0x00000000004c2ea0                ATP_WAN_PreWanUpdateInfo_NotifyRegister
                0x00000000004c2f04                WanPreWanUpdateInfoNotifierDoNotify
                0x00000000004c2f28                WanRoutedWANUpdateNotifyInit
                0x00000000004c2f54                ATP_WAN_RoutedWANUpdate_NotifyRegister
                0x00000000004c2fb8                WanRoutedWANUpdateNotifierDoNotify
                0x00000000004c2fdc                WanIpv6UpdateInfoNotifyInit
                0x00000000004c3008                ATP_WAN_WanIpv6UpdateInfo_NotifyRegister
                0x00000000004c306c                WanIpv6UpdateInfoNotifierDoNotify
                0x00000000004c3090                WanIpv6UpProcessNotifyInit
                0x00000000004c30bc                ATP_WAN_WanIpv6UpProcess_NotifyRegister
                0x00000000004c3120                WanIpv6UpProcessNotifierDoNotify
                0x00000000004c3144                WanIpv6DownProcessNotifyInit
                0x00000000004c3170                ATP_WAN_WanIpv6DownProcess_NotifyRegister
                0x00000000004c31d4                WanIpv6DownProcessNotifierDoNotify
                0x00000000004c31f8                WanIpv6PreDownProcessNotifyInit
                0x00000000004c3224                ATP_WAN_WanIpv6PreDownProcess_NotifyRegister
                0x00000000004c3288                WanIpv6PreDownProcessNotifierDoNotify
                0x00000000004c32ac                WanIpv6UpdateProcessNotifyInit
                0x00000000004c32d8                ATP_WAN_WanIpv6UpdateProcess_NotifyRegister
                0x00000000004c333c                WanIpv6UpdateProcessNotifierDoNotify
                0x00000000004c3360                WanPreWanIpv6UpdateInfoNotifyInit
                0x00000000004c338c                ATP_WAN_PreWanIpv6UpdateInfo_NotifyRegister
                0x00000000004c33f0                WanPreWanIpv6UpdateInfoNotifierDoNotify
                0x00000000004c3414                Tunnel6UpNotifyInit
                0x00000000004c3440                ATP_WAN_Tunnel6Up_NotifyRegister
                0x00000000004c34a4                Tunnel6UpNotifierDoNotify
                0x00000000004c34c8                Tunnel6DownNotifyInit
                0x00000000004c34f4                ATP_WAN_Tunnel6Down_NotifyRegister
                0x00000000004c3558                Tunnel6DownNotifierDoNotify
                0x00000000004c357c                WanLteWANUpNotifyInit
                0x00000000004c35a8                ATP_WAN_LteWANUp_NotifyRegister
                0x00000000004c360c                WanLteWANUpNotifierDoNotify
                0x00000000004c3630                WanLteWANDownNotifyInit
                0x00000000004c365c                ATP_WAN_LteWANDown_NotifyRegister
                0x00000000004c36c0                WanLteWANDownNotifierDoNotify
                0x00000000004c36e4                WanLteIpv6UpProcessNotifyInit
                0x00000000004c3710                ATP_WAN_WanLteIpv6UpProcess_NotifyRegister
                0x00000000004c3774                WanLteIpv6UpProcessNotifierDoNotify
                0x00000000004c3798                WanLteIpv6DownProcessNotifyInit
                0x00000000004c37c4                ATP_WAN_WanLteIpv6DownProcess_NotifyRegister
                0x00000000004c3828                WanLteIpv6DownProcessNotifierDoNotify
                0x00000000004c384c                WanStaticWANUpNotifyInit
                0x00000000004c3878                ATP_WAN_StaticWANUp_NotifyRegister
                0x00000000004c38dc                WanStaticWANUpNotifierDoNotify
                0x00000000004c3900                WanStaticWANDownNotifyInit
                0x00000000004c392c                ATP_WAN_StaticWANDown_NotifyRegister
                0x00000000004c3990                WanStaticWANDownNotifierDoNotify
                0x00000000004c39b4                TunnelUpNotifyInit
                0x00000000004c39e0                ATP_WAN_TunnelUp_NotifyRegister
                0x00000000004c3a44                TunnelUpNotifierDoNotify
                0x00000000004c3a68                TunnelDownNotifyInit
                0x00000000004c3a94                ATP_WAN_TunnelDown_NotifyRegister
                0x00000000004c3af8                TunnelDownNotifierDoNotify
                0x00000000004c3b1c                WanLTETunnul6UpNotifyInit
                0x00000000004c3b48                ATP_WAN_LTETunnul6Up_NotifyRegister
                0x00000000004c3bac                WanLTETunnel6UpProcessNotifierDoNotify
                0x00000000004c3bd0                WanLTETunnul6DownNotifyInit
                0x00000000004c3bfc                ATP_WAN_LTETunnul6Down_NotifyRegister
                0x00000000004c3c60                WanLTETunnel6DownProcessNotifierDoNotify
 .text          0x00000000004c3c90      0x8c0 /home/liyupeng/zengyao/6.13/DT-W724V-20140311/output/host/usr/mips-unknown-linux-uclibc/sysroot/lib/libvlantermcms.a(vlantermcms.o)
                0x00000000004c3c90                VlanTermGetProc
                0x00000000004c44e0                VlanTermCheckProc
 .text          0x00000000004c4550     0x2b60 /home/liyupeng/zengyao/6.13/DT-W724V-20140311/output/host/usr/mips-unknown-linux-uclibc/sysroot/lib/libwlancms.a(wlancmsmsgproc.o)
                0x00000000004c49b8                ATP_WLAN_StopWpsMsgProc
                0x00000000004c50f8                Wlan_DelMacfilter
                0x00000000004c5190                WlanSetEnableByVoice
                0x00000000004c51cc                WlanSetDisableByVoice
                0x00000000004c5208                WlanSetInterfaceMask
                0x00000000004c5384                WlanAddInterfaceName
                0x00000000004c54a0                WlanDelInterfaceName
                0x00000000004c5604                WlanFindChangeInFile
                0x00000000004c5e78                WlanParaTableInit
                0x00000000004c60f8                Wlan_GetPathFromDB
                0x00000000004c610c                Wlan_GetStatusFromDB
                0x00000000004c6120                Wlan_GetFromDB
                0x00000000004c6160                WlanSetWepKeyToDB
                0x00000000004c6174                WlanSetStatusToDB
                0x00000000004c6188                WlanGetAssocDomainFromMac
                0x00000000004c619c                WlanMoveObj
                0x00000000004c61b0                WlanGetIpAndHostnameFromDB
                0x00000000004c61c4                WlanGetBridgeInfo
                0x00000000004c61d8                WlanUpdateBridge
                0x00000000004c61ec                WlanSyncCommonParaToVar
                0x00000000004c6558                WlanIsValidHex
                0x00000000004c65b4                Wlan_ValidateMacAddress
                0x00000000004c66ec                WlanCountryCheck
                0x00000000004c6758                WlanStandardCheck
                0x00000000004c68a4                WlanBasicSSIDJudge
                0x00000000004c6958                WlanBasicPSKJudge
                0x00000000004c6a18                WlanIsValidChannel
                0x00000000004c6c48                WlanPSKKeyGen
                0x00000000004c6dac                WlanWpsPinCheck
                0x00000000004c6f64                ATP_WLAN_FonSsidConfig
                0x00000000004c6f78                ATP_WlanClientAssoc_NotifyRegister
                0x00000000004c6ff0                WlanClientAssocDoNotify
                0x00000000004c7014                ATP_WlanClientDisassoc_NotifyRegister
                0x00000000004c708c                WlanClientDisassocDoNotify
 .text          0x00000000004c70b0     0x1330 /home/liyupeng/zengyao/6.13/DT-W724V-20140311/output/host/usr/mips-unknown-linux-uclibc/sysroot/lib/libwlancms.a(wlancmsinit.o)
                0x00000000004c7140                ATP_WLAN_Init
                0x00000000004c7504                ATP_WLAN_UnInit
                0x00000000004c7518                ATP_WLAN_GetAssocDomainByMac
                0x00000000004c752c                ATP_WLAN_GetSSIDNum
                0x00000000004c7570                ATP_WLAN_GetPathByInterface
                0x00000000004c76e0                ATP_WLAN_GetInterfaceByPath
                0x00000000004c7854                ATP_WLAN_GetAliasByInterface
                0x00000000004c79b4                ATP_WLAN_GetInterfaceByAlias
                0x00000000004c7afc                ATP_WLAN_GetSetupTypeByInterface
                0x00000000004c7bf4                ATP_WLAN_BindProc
                0x00000000004c7c08                ATP_WLAN_GetStatus
                0x00000000004c7c34                ATP_WLAN_SetStatus
                0x00000000004c7d34                ATP_WLAN_GetAssocList
                0x00000000004c7e70                ATP_WLAN_GetChannel
                0x00000000004c7ec4                ATP_WLAN_GetRate
                0x00000000004c7f18                ATP_WLAN_GetAllVar
                0x00000000004c7f54                ATP_WLAN_SetUp
                0x00000000004c7f74                ATP_WLAN_2G_SetUp
                0x00000000004c7f88                ATP_WLAN_5G_SetUp
                0x00000000004c7f9c                ATP_WLAN_GetVar
                0x00000000004c8110                ATP_WLAN_SetVar
                0x00000000004c8250                WlanSetStatusByWlanKey
                0x00000000004c82a4                ATP_WLAN_MonitorButtonStatus
                0x00000000004c82ac                ATP_WPS_MonitorButtonStatus
                0x00000000004c830c                ATP_WLAN_5G_MonitorButtonStatus
                0x00000000004c8354                ATP_WPS_5G_MonitorButtonStatus
                0x00000000004c8368                ATP_WLAN_DEL_MACFILTER
                0x00000000004c837c                ATP_WLAN_GetInitSetupStatus
                0x00000000004c8388                ATP_WLAN_SetStatusNoDBSave
 .text          0x00000000004c83e0      0x1b0 /home/liyupeng/zengyao/6.13/DT-W724V-20140311/output/host/usr/mips-unknown-linux-uclibc/sysroot/lib/libwlancms.a(wlancmslal.o)
                0x00000000004c83e0                WlanModeInit
                0x00000000004c84f0                WlanModeUnInit
                0x00000000004c8548                WlanModeSetup
 .text          0x00000000004c8590     0x96f0 /home/liyupeng/zengyao/6.13/DT-W724V-20140311/output/host/usr/mips-unknown-linux-uclibc/sysroot/lib/libwlancms.a(wlan_tr181.o)
                0x00000000004cc6e8                WlanDelMacfilter
                0x00000000004cc900                WlanStandardFormat
                0x00000000004ce19c                WlanChangWlanState
                0x00000000004cf004                WlanDisableWlanAfterNoConntForTimerule
                0x00000000004cf188                WlanNodeGetBridgeInfo
                0x00000000004cf658                WlanNodeUpdateBridge
                0x00000000004cf660                wlanFonSsidConfig
                0x00000000004cfd14                WlanFonSsidCtl
                0x00000000004cffd0                WlanSetSntpFlag
                0x00000000004cfff0                WlanGetAssocDomainByMac
                0x00000000004d01e0                WlanNodeGetPathFromDB
                0x00000000004d01e8                WlanNodeGetStatusFromDB
                0x00000000004d02f4                WlanNodeSetWepKeyToDB
                0x00000000004d02fc                WlanNodeSetStatusToDB
                0x00000000004d04a0                WlanNodeMoveObj
                0x00000000004d04a8                WlanNodeGetIpAndHostnameFromDB
                0x00000000004d089c                ATP_WLAN_GetWlanMacFilterEnable
                0x00000000004d08dc                Wlan_MacParaRefresh
                0x00000000004d0f7c                WlanNodeGetFromDB
                0x00000000004d16ac                ATP_WLAN_GetSsidStatus
                0x00000000004d18a4                ATP_WLAN_WpsStateEnable
                0x00000000004d1aac                WlanNodeRegInit
 .text          0x00000000004d1c80     0xca90 /home/liyupeng/zengyao/6.13/DT-W724V-20140311/output/host/usr/mips-unknown-linux-uclibc/sysroot/lib/libwlanbcmcms.a(wlanbcmcms.o)
                0x00000000004d34ec                ATP_UTIL_ExecCmd
                0x00000000004d8e00                WlancmsStartupInitProc
                0x00000000004d8e08                WlancmsInit
                0x00000000004d8e54                WlancmsUinit
                0x00000000004d8e5c                WlancmsGetChannel
                0x00000000004d8eec                WlancmsGetStats
                0x00000000004d8ef4                WlancmsGetDefaultPin
                0x00000000004d8f14                WlancmsGenDevPin
                0x00000000004d8f34                WlancmsSetDevPin
                0x00000000004d8f94                WlancmsSetCliPin
                0x00000000004d8fb4                Wlan5GcmsStartupInitProc
                0x00000000004d8fbc                Wlan5GcmsInit
                0x00000000004d9008                Wlan5GcmsUinit
                0x00000000004d9010                Wlan5GcmsGetChannel
                0x00000000004d90a0                Wlan5GcmsGetStats
                0x00000000004d90a8                Wlan5GcmsGetDefaultPin
                0x00000000004d90c8                Wlan5GcmsGenDevPin
                0x00000000004d90e8                Wlan5GcmsSetDevPin
                0x00000000004d9148                Wlan5GcmsSetCliPin
                0x00000000004d9168                Wlan5GcmsWPSpress
                0x00000000004d9170                ATP_CMS_WlanAssocMonProc
                0x00000000004d9434                WlanTogglePowerSave
                0x00000000004d9620                WlanCheckIfcSetupFinish
                0x00000000004d9694                WlanGetIfcStatus
                0x00000000004d99f8                Wlan5GcmsGetRate
                0x00000000004d9a88                WlancmsGetRate
                0x00000000004d9b18                WlanSetupAllconflictChek
                0x00000000004da0c4                WlanSetSetupAllFlag
                0x00000000004da100                WlanDoSetupAllCmd
                0x00000000004dd42c                Wlan5GcmsSetup
                0x00000000004dd464                Wlan5GcmsDisable
                0x00000000004dd46c                Wlan5GcmsEnable
                0x00000000004dd474                WlancmsSetup
                0x00000000004dd4ac                WlancmsDisable
                0x00000000004dd4b4                WlancmsEnable
                0x00000000004dd4bc                WlanSetParSetupAll
                0x00000000004dd53c                WlanGetAssocList
                0x00000000004dd8b4                Wlan5GcmsGetAssocList
                0x00000000004dd8bc                WlancmsGetAssocList
                0x00000000004dd8c4                IsNeedDisableWpsInCurrBeaconType
                0x00000000004dd9a8                WlanDoWpsStop
                0x00000000004ddd54                WlanDoWpsProc
                0x00000000004de0f4                WlancmsWPSpress
                0x00000000004de410                WlanFonSetup
 .text          0x00000000004de710      0x640 /home/liyupeng/zengyao/6.13/DT-W724V-20140311/output/host/usr/mips-unknown-linux-uclibc/sysroot/lib/libwlanbcmcms.a(wlanbcm963268.o)
                0x00000000004de710                WlancmsGetVar
                0x00000000004dea20                WlancmsSetVar
                0x00000000004dea28                WlancmsIsValidRate
                0x00000000004ded30                Wlan5GcmsGetVar
                0x00000000004ded38                Wlan5GcmsSetVar
                0x00000000004ded40                Wlan5GcmsIsValidRate
 .text          0x00000000004ded50     0x1b50 /home/liyupeng/zengyao/6.13/DT-W724V-20140311/output/host/usr/mips-unknown-linux-uclibc/sysroot/lib/libwlanbcmcms.a(wlanmonitor.o)
                0x00000000004df290                ATP_WLAN_DisconnectAllGreenClients
                0x00000000004df468                ATP_WLAN_MonitorCreate
                0x00000000004df604                WlanGetAssocDevCount
                0x00000000004e0684                WlanStaConnectSuccProc
 .text          0x00000000004e08a0     0x1b80 /home/liyupeng/zengyao/6.13/DT-W724V-20140311/output/host/usr/mips-unknown-linux-uclibc/sysroot/lib/libatmlinkcms.a(atmlinkcmsapi.o)
                0x00000000004e0b8c                AtmGetProc
                0x00000000004e0c38                TcDtSetFonAtmRate
                0x00000000004e0e88                DtSetFonAtmRate
                0x00000000004e0fcc                XtmStart
                0x00000000004e1034                XtmLinkTypeStr2Int
                0x00000000004e111c                XtmGetPvcFromStr
                0x00000000004e1238                XtmEncapStr2Int
                0x00000000004e148c                XtmAtmQosStr2Int
                0x00000000004e1570                XtmGetTDTEFlowIndex
                0x00000000004e1894                XtmAddTDTEFlow
                0x00000000004e1a20                XtmGetPortMaskByPortPath
                0x00000000004e1db4                XtmIsInterfaceExist
 .text          0x00000000004e2420      0x440 /home/liyupeng/zengyao/6.13/DT-W724V-20140311/output/host/usr/mips-unknown-linux-uclibc/sysroot/lib/libatmlinkcms.a(atmlinkdiag.o)
                0x00000000004e2648                XtmDiagStop
                0x00000000004e26a8                XtmDiagMain
                0x00000000004e278c                XtmDiagStart
                0x00000000004e2854                XtmIsDiagRunning
 .text          0x00000000004e2860     0x1f90 /home/liyupeng/zengyao/6.13/DT-W724V-20140311/output/host/usr/mips-unknown-linux-uclibc/sysroot/lib/libdslchannelcms.a(dslchannelcmsapi.o)
                0x00000000004e2868                ATP_DSL_Diag_AdslGetMsgProc
                0x00000000004e2a9c                ATP_DslChannel_SetMsgProc
                0x00000000004e2c2c                ATP_DSL_Diag_AdslSetMsgProc
                0x00000000004e2c90                ATP_DSL_Diag_AdslCheckMsgProc
                0x00000000004e2d70                DslChannelGetTotalShowtimeStatistic
                0x00000000004e358c                ATP_DslChannel_StatsShowtimeGetMsgProc
                0x00000000004e3664                ATP_DslChannel_StatsTotalGetMsgProc
                0x00000000004e373c                DslChannelGetStats
                0x00000000004e3c04                ATP_DslChannel_GetMsgProc
                0x00000000004e3e28                DslChannelGetStatistics
                0x00000000004e4018                ATP_DslChannel_StatisticsGetMsgProc
                0x00000000004e4160                ATP_XDSL_GetConnectionInfo
 .text          0x00000000004e47f0      0x8c0 /home/liyupeng/zengyao/6.13/DT-W724V-20140311/output/host/usr/mips-unknown-linux-uclibc/sysroot/lib/libdslchannelcms.a(dslchanneldiag.o)
                0x00000000004e4970                XdslIsDiagTestRunning
                0x00000000004e4a58                XdslDiagLoopbackMain
                0x00000000004e4b28                XdslDiagLoopbackData
                0x00000000004e4b5c                XdslGetDiagDataInt
                0x00000000004e4d34                XdslGetDiagStr
                0x00000000004e4f7c                XdslSetDiagData
 .text          0x00000000004e50b0     0x4eb0 /home/liyupeng/zengyao/6.13/DT-W724V-20140311/output/host/usr/mips-unknown-linux-uclibc/sysroot/lib/libdsllinecms.a(dsllinecmsapi.o)
                0x00000000004e5378                DSLline_Handler
                0x00000000004e53b8                ATP_DslLine_AddSetMsgProc
                0x00000000004e5778                DslLineGetStatistic
                0x00000000004e782c                XdslSysGetUpTime
                0x00000000004e785c                ATP_DslLine_GetMsgProc
                0x00000000004e7df4                XdslGetTestParamStatistic
                0x00000000004e8918                XdslParseAdslInfo
                0x00000000004e8a50                XdslGetVdslTestparamLongStr
                0x00000000004e8c48                ATP_DslLine_TestParamsGetMsgProc
                0x00000000004e915c                XdslGetTotalShowtimeStatistic
                0x00000000004e99fc                ATP_DslLine_StatsShowtimeGetMsgProc
                0x00000000004e9a84                ATP_DslLine_StatsTotalGetMsgProc
                0x00000000004e9b0c                DslGetLineStatistics
                0x00000000004e9d0c                DslGetTotalStatsByDomain
                0x00000000004e9e2c                ATP_DslLine_StatsGetMsgProc
 .text          0x00000000004e9f60      0xb00 /home/liyupeng/zengyao/6.13/DT-W724V-20140311/output/host/usr/mips-unknown-linux-uclibc/sysroot/lib/libptmlinkcms.a(ptmlinkcmsapi.o)
                0x00000000004ea208                PtmGetProc
                0x00000000004ea2b4                XtmGetPonRate
 .text          0x00000000004eaa60     0xf620 /home/liyupeng/zengyao/6.13/DT-W724V-20140311/output/host/usr/mips-unknown-linux-uclibc/sysroot/lib/libdtvoicecms.a(voiceapi.o)
                0x00000000004eac28                ATP_VOICE_Init
                0x00000000004eace0                ATP_VOICE_UnInit
                0x00000000004ead6c                ATP_VOICE_GMsgProc
                0x00000000004eadd8                ATP_VOICE_SetProvisioningCode
                0x00000000004eae20                ATP_VOICE_ServiceGetMsgProc
                0x00000000004eae28                ATP_VOICE_ServiceCheckProc
                0x00000000004eae30                ATP_VOICE_ServiceAddSetProc
                0x00000000004eaefc                ATP_VOICE_CommonCfgCheck
                0x00000000004eaf90                ATP_VOICE_CommonCfgSetProc
                0x00000000004eb240                ATP_VOICE_RTPCheck
                0x00000000004eb4cc                ATP_VOICE_RTPSetProc
                0x00000000004eb6d4                ATP_VOICE_ExtensionCallingFeaturesCheck
                0x00000000004eb920                ATP_VOICE_ExtensionCallingFeaturesSetProc
                0x00000000004ebe48                ATP_VOICE_PhyInterfaceGetMsgProc
                0x00000000004ec264                ATP_VOICE_PhyInterfaceCheck
                0x00000000004ec26c                ATP_VOICE_PhyInterfaceAddSetProc
                0x00000000004ec578                ATP_VOICE_PhyInterfaceDelProc
                0x00000000004ec580                ATP_VOICE_PhyInterfaceFXSGetMsgProc
                0x00000000004ec6c4                ATP_VOICE_CodecListCheckProc
                0x00000000004ec724                ATP_VOICE_CodecListAddSetProc
                0x00000000004ec8f4                ATP_VOICE_CodecListDelProc
                0x00000000004ec8fc                ATP_VOICE_ProviderGetMsgProc
                0x00000000004eca6c                ATP_VOICE_ProviderCheckProc
                0x00000000004eca74                ATP_VOICE_ProviderAddSetProc
                0x00000000004ecc34                ATP_VOICE_ProviderDelProc
                0x00000000004eccac                ATP_VOICE_ProfileGetMsgProc
                0x00000000004ece20                ATP_VOICE_ProfileCheckProc
                0x00000000004ed054                ATP_VOICE_ProfileAddSetProc
                0x00000000004ed6d0                ATP_VOICE_ProfileDelProc
                0x00000000004ed9c8                ATP_VOICE_ProfileSIPCheck
                0x00000000004edca8                ATP_VOICE_ProfileSIPSetProc
                0x00000000004ee1c4                ATP_VOICE_LineGetMsgProc
                0x00000000004ee368                ATP_VOICE_LineCheckProc
                0x00000000004ee4f8                ATP_VOICE_LineAddSetProc
                0x00000000004eefc8                ATP_VOICE_LineDelProc
                0x00000000004ef408                ATP_VOICE_SIPLineCheckProc
                0x00000000004ef7d0                ATP_VOICE_SIPLineAddSetProc
                0x00000000004effc4                ATP_VOICE_DectCheck
                0x00000000004f0050                ATP_VOICE_DectSetProc
                0x00000000004f05f8                ATP_VOICE_DectEmailGetMsgProc
                0x00000000004f0720                ATP_VOICE_DectMobileGetInstMsgProc
                0x00000000004f0778                ATP_VOICE_DectMobileGetMsgProc
                0x00000000004f09e0                ATP_VOICE_DectMobileCheckProc
                0x00000000004f0a90                ATP_VOICE_DectMobileAddSetProc
                0x00000000004f1118                ATP_VOICE_DectMobileDelProc
                0x00000000004f11ec                ATP_VOICE_DectMobileMsgProc
                0x00000000004f1a28                ATP_VOICE_WebDectUnregMsgProc
                0x00000000004f1c5c                ATP_VOICE_SaveDectRfpicodeProc
                0x00000000004f1e4c                ATP_Voice_SaveHandsetVersionProc
                0x00000000004f1f68                ATP_Voice_SuotaSuccessProc
                0x00000000004f2028                ATP_VOICE_DectRebootMsgProc
                0x00000000004f212c                ATP_VOICE_DectFwUpdateMsgProc
                0x00000000004f2288                ATP_VOICE_WanWillDownMsgProc
                0x00000000004f22c8                ATP_VOICE_CFInfoMsgProc
                0x00000000004f2438                ATP_VOICE_CWInfoMsgProc
                0x00000000004f2654                ATP_VOICE_LEDInfoMsgProc
                0x00000000004f265c                ATP_VOICE_GetVDBStatus
                0x00000000004f2754                ATP_VOICE_SaveVDBMsgProc
                0x00000000004f2890                ATP_VOICE_LineStatusGetMsgProc
                0x00000000004f2e2c                ATP_VOICE_LineStatusCheckProc
                0x00000000004f2e34                ATP_VOICE_LineStatusSetProc
                0x00000000004f2f70                ATP_VOICE_LineCallingFeaturesCheck
                0x00000000004f30a8                ATP_VOICE_LineCallingFeaturesGetMsgProc
                0x00000000004f321c                ATP_VOICE_LineCallingFeaturesSetProc
                0x00000000004f33b8                ATP_VOICE_SIPLineGetMsgProc
                0x00000000004f344c                ATP_VOICE_DectRegOpen
                0x00000000004f3698                ATP_VOICE_StopDectReg
                0x00000000004f37c8                ATP_VOICE_DectRegStop
                0x00000000004f3924                VoiceDectRegTimeOut
                0x00000000004f392c                ATP_VOICE_DectSearch
                0x00000000004f39ac                ATP_VOICE_DectTimeUpdate
                0x00000000004f3a84                ATP_VOICE_VDBRestore
                0x00000000004f3db0                ATP_VOICE_InitSaveMsgProc
                0x00000000004f3e30                ATP_VOICE_GetIfReg
                0x00000000004f3efc                ATP_VOICE_PreGlobleCheck
                0x00000000004f4048                ATP_VOICE_GlobleCheck
                0x00000000004f4128                ATP_VOICE_IfNeedSaveVdb
                0x00000000004f4164                ATP_VOICE_DectLineSetMsgProc
                0x00000000004f47cc                ATP_VOICE_DectNameUpdateMsgProc
                0x00000000004f48cc                ATP_VOICE_DectPINUpdateMsgProc
                0x00000000004f4980                ATP_VOICE_DectNemoModeUpdateMsgProc
                0x00000000004f4a18                ATP_VOICE_DectSubsDataSaveMsgProc
                0x00000000004f4aac                ATP_VOICE_WebDectCfgUpdateMsgProc
                0x00000000004f4ef4                ATP_VOICE_ErasureCalllistMsgProc
                0x00000000004f4f7c                ATP_VOICE_DectCFInfoMsgProc
                0x00000000004f5170                ATP_VOICE_DectBaseResetMsgProc
                0x00000000004f5190                ATP_VOICE_ExtenProfileCheckProc
                0x00000000004f5264                ATP_VOICE_ExtenProfileAddSetProc
                0x00000000004f53b0                ATP_VOICE_ExtenProfileDelProc
                0x00000000004f53b8                ATP_VOICE_CalControlCheck
                0x00000000004f54d8                ATP_VOICE_CalControlSetProc
                0x00000000004f5550                ATP_VOICE_IncomingMapCheckProc
                0x00000000004f59bc                ATP_VOICE_IncomingMapAddSetProc
                0x00000000004f6bd0                ATP_VOICE_IncomingMapDelProc
                0x00000000004f7138                ATP_VOICE_OutgoingMapCheckProc
                0x00000000004f76c4                ATP_VOICE_OutgoingMapAddSetProc
                0x00000000004f886c                ATP_VOICE_OutgoingMapDelProc
                0x00000000004f8cc8                ATP_VOICE_NumberingPlanCheckProc
                0x00000000004f8da8                ATP_VOICE_NumberingPlanAddSetProc
                0x00000000004f8db0                ATP_VOICE_NumberingPlanDelProc
                0x00000000004f8db8                ATP_VOICE_ExtensionCheckProc
                0x00000000004f8eb4                ATP_VOICE_ExtensionAddSetProc
                0x00000000004f9114                ATP_VOICE_ExtensionDelProc
                0x00000000004f911c                ATP_VOICE_CallLogGetMsgProc
                0x00000000004f9548                ATP_VOICE_CallLogSignallingPerformanceGetMsgProc
                0x00000000004f9668                ATP_VOICE_CallLogSessionGetMsgProc
                0x00000000004f9858                ATP_VOICE_CallLogSessionCodecGetMsgProc
                0x00000000004f9a20                ATP_VOICE_CallLogSessionRTPGetMsgProc
                0x00000000004f9c2c                ATP_VOICE_CallLogSessionVoiceQualityGetMsgProc
                0x00000000004f9ddc                ATP_VOICE_SaveCallLogToDB
                0x00000000004f9e58                ATP_VOICE_EmailTreeCheck
                0x00000000004f9e60                ATP_VOICE_EmailTreeSetProc
                0x00000000004f9f78                ATP_VOICE_RssIntervalCheck
                0x00000000004f9f80                ATP_VOICE_RssIntervalSetProc
 .text          0x00000000004fa080     0xdfe0 /home/liyupeng/zengyao/6.13/DT-W724V-20140311/output/host/usr/mips-unknown-linux-uclibc/sysroot/lib/libdtvoicecms.a(voicecms.o)
                0x00000000004fa860                VoiceCfgLineDefault
                0x00000000004fa8f8                VoiceCfgDefault
                0x00000000004faa90                VoiceDectLineSetDft
                0x00000000004fabe4                VoiceDectRssDftVal
                0x00000000004faf38                VoiceServiceReset
                0x00000000004fafd8                VoiceServiceStart
                0x00000000004faff0                VoiceServiceStop
                0x00000000004faff8                VoiceServiceInit
                0x00000000004fb18c                VoiceRTPInit
                0x00000000004fb2c0                VoicePhyInterfaceInit
                0x00000000004fb4c4                VoiceProviderInit
                0x00000000004fb638                VoiceDECTPortablePartInit
                0x00000000004fb944                VoiceNewLAToDefault
                0x00000000004fb9d4                VoiceWellKnownPortInit
                0x00000000004fba1c                VoiceGetProfileIndex
                0x00000000004fba58                VoiceProfileSIPInit
                0x00000000004fbbc4                VoiceGetLineIndex
                0x00000000004fbc48                VoiceSIPLineInit
                0x00000000004fbf08                VoiceLineCalFeatureInit
                0x00000000004fc038                VoiceLineInit
                0x00000000004fc30c                VoiceProfileInit
                0x00000000004fc5dc                VoiceGetExtensionIndex
                0x00000000004fc624                VoiceExtensionCalFeatureInit
                0x00000000004fc940                VoiceExtensionInit
                0x00000000004fcb38                VoiceExtenProfileInit
                0x00000000004fccd4                VoiceSaveServiceToDB
                0x00000000004fcd30                VoiceSaveProfileToDB
                0x00000000004fce20                VoiceSaveProviderToDB
                0x00000000004fcf18                VoiceSaveLineToDB
                0x00000000004fd194                VoiceSaveSIPLineToDB
                0x00000000004fd2a8                VoiceSavePhyToDB
                0x00000000004fd4a0                VoiceGetInstIndexByNum
                0x00000000004fd5a4                VoiceGetUsedExtensionsByNum
                0x00000000004fd950                VoiceSaveCalllogToDB
                0x00000000004fe2c0                VoiceSaveDECTPortablePartToDB
                0x00000000004fe5e8                VoiceSaveDECTExtensionToDB
                0x00000000004fe794                VoiceAutoAddCodecList
                0x00000000004fe904                VoiceNewProviderIdx
                0x00000000004feb28                VoiceGetLineSeq
                0x00000000004feb60                VoiceGetFirstLineIdx
                0x00000000004febec                VoiceGetSIPIDRegStatus
                0x00000000004fecd0                VoiceGetRegFailReason
                0x00000000004fed60                VoiceGetSIPIDCallStatus
                0x00000000004fee78                VoiceGetSipLocalPort
                0x00000000004fef14                VoiceGetStartRtpPort
                0x00000000004fef44                VoiceLocalPortReg
                0x00000000004ff0d0                VoiceLocalPortUnReg
                0x00000000004ff258                VoiceRtpPortReg
                0x00000000004ff330                VoiceGetInterfaceName
                0x00000000004ff380                VoiceGetUsableSIPNum
                0x00000000004ff4e0                VoicePortRelateToLineInit
                0x00000000004ff6c0                VoicePortSyncRelateToLine
                0x00000000004ff6c8                VoiceSetDectMobileName
                0x00000000004ff840                VoiceAddMobileName
                0x00000000004ff9bc                VoiceDelMobileName
                0x00000000004ffac0                VoiceGetDectMobileName
                0x00000000004ffc1c                VoiceAddVdbLine
                0x00000000004fffc4                VoiceGetVdbAllLineSet
                0x0000000000500120                VoiceVdbLineSetInit
                0x0000000000500238                VoiceModifyVdbLine
                0x00000000005006cc                VoiceDelVdbLine
                0x00000000005007dc                VoiceModifyMobileInfo
                0x0000000000500a48                VoiceOutgoModeUpdate
                0x0000000000500dbc                VoiceGetMobileInfo
                0x0000000000500f78                VoiceAddMobileInfo
                0x0000000000501098                VoiceDectIsNeedDisable
                0x000000000050119c                VoiceReInitDect
                0x0000000000501784                VoiceIsLastActiveLine
                0x000000000050199c                VoiceInComToAll
                0x0000000000501aa8                VoiceWriteDectStatInFile
                0x0000000000501b34                VoiceCommonCfgInit
                0x0000000000501cf0                VoiceInsertIdToStr
                0x0000000000501d6c                VoiceEraseIdFromStr
                0x0000000000501ebc                VoiceGetDectIncomStr
                0x00000000005020f0                VoiceSndDectMissCallChange
                0x00000000005021b0                VoiceGetEntryIdList
                0x0000000000502460                VoiceBrowserUpdateConfigFile
                0x000000000050251c                VoiceDectCfgSyncForLoadCfg
                0x0000000000502734                VoiceDectMobileInit
                0x00000000005029ec                VoiceDectCfgInit
                0x0000000000502cbc                VoiceDelIncomAndOutgoRelateOfMobile
                0x0000000000502e24                VoiceDectMobileUnreg
                0x0000000000503078                VoiceSynDirectnumberToPortMap
                0x00000000005032d4                VoiceMatchProvider
                0x000000000050353c                VoiceGetPhyRefbyExtenRef
                0x00000000005036b0                VoiceGetExtenInstidbyPhyRef
                0x0000000000503704                VoiceAddInComMap
                0x0000000000503970                VoiceSipLineAddRelateUpdate
                0x0000000000504030                VoiceMobilSyncRelateToMap
                0x0000000000504850                VoicePhySyncRelateToMap
                0x0000000000505074                VoiceSipLineDelRelateUpdate
                0x0000000000505524                VoiceSaveImcomapToDB
                0x00000000005057cc                VoiceIsProfileNeedEnableProc
                0x00000000005058fc                VoiceRegisterPeriodProc
                0x00000000005059fc                VoiceGetSIPLineNum
                0x0000000000505a60                VoiceGetAvailableLineNum
                0x0000000000505ad4                VoiceGetNumberbyLineRoute
                0x0000000000505cd4                VoiceIncomAndOutgoMapInit
                0x0000000000506668                VoiceGetLineIndexByNumber
                0x0000000000506714                VoiceSetDECTExtensionDefault
                0x00000000005068e8                VoiceSetDectPortableDefault
                0x0000000000506a8c                VoiceDeleteInstanceRelateMobile
                0x0000000000506bac                VoiceResetDect
                0x0000000000507574                VoiceInitCfg
                0x0000000000507720                VoiceGetHandsetIsExist
                0x000000000050776c                VoiceSetFXSOutRelate
                0x000000000050784c                VoiceSetDECTOutRelate
                0x0000000000507984                VoiceSipLineDelOutRelateUpdate
                0x0000000000507f3c                VoiceIsNeedDelOutgoMap
 .text          0x0000000000508060     0x1410 /home/liyupeng/zengyao/6.13/DT-W724V-20140311/output/host/usr/mips-unknown-linux-uclibc/sysroot/lib/libdtvoicecms.a(voiceutil.o)
                0x0000000000508060                VoiceValidateRange
                0x000000000050807c                VoiceValidateSpecialChar
                0x000000000050812c                VoiceValidateString
                0x00000000005081b8                VoiceValidateEnableString
                0x0000000000508224                VoiceValidateEmail
                0x0000000000508334                VoiceValidateIpDomain
                0x00000000005083c4                VoiceValidateDTSIP
                0x0000000000508520                VoiceValidateUserPort
                0x0000000000508630                VoiceValidateURI
                0x00000000005087d8                VoiceValidateURI1
                0x0000000000508914                VoiceValidatePhyInterface
                0x000000000050891c                VoiceValidateLine
                0x00000000005089ec                VoiceValidateLineSIP
                0x00000000005089f4                VoiceValidateRTP
                0x0000000000508af4                VoiceValidateActiveLine
                0x0000000000508b94                VoicePhyInterfaceCheck
                0x0000000000508dc8                VoiceCheckFuncPrefixConflict
                0x0000000000508ea4                VoiceCheckInCallConflict
                0x0000000000508eac                VoiceCheckSIPIdConflict
                0x0000000000508eb4                VoiceValidateProfile
                0x0000000000508fb8                VoiceValidateSIPLine
                0x0000000000509038                VoiceValidateLineRef
                0x00000000005092ec                VoiceValidateOrder
 .text          0x0000000000509470     0x1b80 /home/liyupeng/zengyao/6.13/DT-W724V-20140311/output/host/usr/mips-unknown-linux-uclibc/sysroot/lib/libdtvoicecms.a(voicecfg.o)
                0x0000000000509470                VoiceInitServiceCfg
                0x00000000005096b4                VoiceDeInitServiceCfg
                0x00000000005096f8                VoiceTapiCommonCfgUpdate
                0x0000000000509770                VoiceTapiCodecListUpdate
                0x00000000005098b4                VoiceCommonCfgUpdate
                0x00000000005099d8                VoiceCodecListUpdate
                0x0000000000509ab0                VoiceDectUpdate
                0x0000000000509ef4                VoicePhyInterfaceUpdate
                0x000000000050a378                ATP_VOICE_SetDslAccountFlag
                0x000000000050a390                ATP_VOICE_UpdateIfName
                0x000000000050a47c                VoiceGetTapiQue
                0x000000000050a53c                VoiceSendMsgToTapi
                0x000000000050a610                VoiceLineWebseqUpdate
                0x000000000050a840                VoiceExistOtherProviderLine
                0x000000000050a880                VoiceLineCfgUpdate
                0x000000000050ac90                VoiceVoiceCfgUpdate
                0x000000000050ae58                VoiceTapiLineCfgUpdate
                0x000000000050af98                VoiceTapiCfgUpdate
 .text          0x000000000050aff0      0x9e0 /home/liyupeng/zengyao/6.13/DT-W724V-20140311/output/host/usr/mips-unknown-linux-uclibc/sysroot/lib/libdtvoicecms.a(IniParser.o)
                0x000000000050b24c                IniClose
                0x000000000050b2b4                IniOpen
                0x000000000050b3c4                IniOpenFile
                0x000000000050b4dc                IniGetNextSection
                0x000000000050b558                IniGetNextData
                0x000000000050b620                IniGetNextDataBySplit
                0x000000000050b6e8                IniReplaceSplite
                0x000000000050b750                IniSplitSection
                0x000000000050b7e4                IniSplitSectionEx
                0x000000000050b92c                IniReadReset
                0x000000000050b958                IniGetSectionByNamePart
 .text          0x000000000050b9d0      0x100 /home/liyupeng/zengyao/6.13/DT-W724V-20140311/output/host/usr/mips-unknown-linux-uclibc/sysroot/lib/libdtvoicecms.a(voicediag.o)
                0x000000000050b9d0                VoiceDiagSipOn
                0x000000000050ba28                VoiceDiagSipOff
                0x000000000050ba7c                ATP_VOICE_DiagMsgProc
                0x000000000050babc                VoiceDiagSipTesterOn
 .text          0x000000000050bad0      0x790 /home/liyupeng/zengyao/6.13/DT-W724V-20140311/output/host/usr/mips-unknown-linux-uclibc/sysroot/lib/libdtvoicecms.a(voicecmsmsgproc.o)
                0x000000000050bad0                VoiceCmsGetWanInterface
                0x000000000050bcd4                HasCanUsedV4Wan
                0x000000000050bd08                HasCanUsedV6Wan
                0x000000000050bd40                GetWanNameIndex
                0x000000000050bd84                TransWanMsg
                0x000000000050be60                VoiceCmsWanInfoProc
                0x000000000050c1a8                VoiceServiceInitNotifyInit
                0x000000000050c1d4                ATP_VOICE_ServiceInit_NotifyRegister
                0x000000000050c238                VoiceServiceInitNotifierDoNotify
 .text          0x000000000050c260      0x300 /home/liyupeng/zengyao/6.13/DT-W724V-20140311/output/host/usr/mips-unknown-linux-uclibc/sysroot/lib/libnetpbcms.a(netphonebookapi.o)
                0x000000000050c268                ATP_NETPB_UnInit
                0x000000000050c270                ATP_NetpbBrowserUpdateConfigFile
                0x000000000050c32c                NETPB_VDB_Init
                0x000000000050c550                ATP_NETPB_Init
 .text          0x000000000050c560     0x2820 /home/liyupeng/zengyao/6.13/DT-W724V-20140311/output/host/usr/mips-unknown-linux-uclibc/sysroot/lib/librsscms.a(rssapi.o)
                0x000000000050c6e4                VoiceRssSaveDbTimeOut
                0x000000000050c858                DectRssFindRefresh
                0x000000000050cb58                ATP_DectRss_RefreshSubList
                0x000000000050cc44                ATP_RssBrowserUpdateConfigFile
                0x000000000050cd00                ATP_DectRss_VDBSaveToDB
                0x000000000050df38                ATP_DectRss_ReadSubList
                0x000000000050df58                ATP_DectRss_ReadChannel
                0x000000000050df78                DectRssTimerDownLoadProcess
                0x000000000050e54c                ATP_DectRss_DBSaveToVDB
                0x000000000050e7d4                ATP_DectRssChannel_DBSaveToVDB
                0x000000000050e9ec                ATP_DBSaveRssChannel
                0x000000000050ec28                ATP_DectRss_Init
                0x000000000050ed14                RSS_RecordWanStatus
 .text          0x000000000050ed80        0x0 /home/liyupeng/zengyao/6.13/DT-W724V-20140311/output/host/usr/mips-unknown-linux-uclibc/sysroot/lib/librsscms.a(voicersscmsmsgproc.o)
 .text          0x000000000050ed80      0x800 /home/liyupeng/zengyao/6.13/DT-W724V-20140311/output/host/usr/mips-unknown-linux-uclibc/sysroot/lib/libemailcms.a(emailapi.o)
                0x000000000050ed80                ATP_EMAIL_Init
                0x000000000050ee04                ATP_EMAIL_UnInit
                0x000000000050ee70                ATP_EMAIL_UpdateCfg
                0x000000000050ef28                ATP_EMAIL_GetEmailNoticeMsgProc
                0x000000000050f0d8                ATP_EMAIL_GetEmailResMsgProc
                0x000000000050f210                ATP_EMAIL_GetEmailErrMsgProc
                0x000000000050f370                ATP_EMAIL_StatusRefresh
                0x000000000050f400                ATP_EMAIL_DelMail
                0x000000000050f478                ATP_EMAIL_RefreshDB
                0x000000000050f498                Email_RecordWanStatus
 .text          0x000000000050f580     0x1550 /home/liyupeng/zengyao/6.13/DT-W724V-20140311/output/host/usr/mips-unknown-linux-uclibc/sysroot/lib/libemailcms.a(emailcms.o)
                0x000000000050f590                VoiceSaveDbTimeOut
                0x000000000050f640                EMAIL_CfgFile_Update
                0x000000000050f910                EMAIL_CfgIdxFile_Update
                0x000000000050faa0                EMAIL_StatusFile_Init
                0x000000000050faa8                EMAIL_StatusFile_Update
                0x000000000050ff94                EMAIL_DBFile_Update
                0x000000000051043c                Email_GetDBFile_ToVDB
                0x00000000005106ac                VoiceSaveSubListToDB
                0x00000000005106b4                VoiceDelSubListFromDB
                0x00000000005106bc                Email_Add_DefaultVal
                0x000000000051074c                ATP_EmailBrowserUpdateConfigFile
                0x0000000000510808                EMAIL_VDB_Init
 .text          0x0000000000510ad0        0x0 /home/liyupeng/zengyao/6.13/DT-W724V-20140311/output/host/usr/mips-unknown-linux-uclibc/sysroot/lib/libemailcms.a(voiceemailcmsmsgproc.o)
 .text          0x0000000000510ad0       0xb0 /opt/toolchains/crosstools-mips-gcc-4.6-linux-3.4-uclibc-0.9.32-binutils-2.21/usr/lib/gcc/mips-unknown-linux-uclibc/4.6.2/libgcc.a(_fixunsdfsi.o)
                0x0000000000510ad0                __fixunsdfsi
 .text          0x0000000000510b80      0x440 /opt/toolchains/crosstools-mips-gcc-4.6-linux-3.4-uclibc-0.9.32-binutils-2.21/usr/lib/gcc/mips-unknown-linux-uclibc/4.6.2/libgcc.a(_udivdi3.o)
                0x0000000000510b80                __udivdi3
 .text          0x0000000000510fc0      0x450 /opt/toolchains/crosstools-mips-gcc-4.6-linux-3.4-uclibc-0.9.32-binutils-2.21/usr/lib/gcc/mips-unknown-linux-uclibc/4.6.2/libgcc.a(_umoddi3.o)
                0x0000000000510fc0                __umoddi3
 .text          0x0000000000511410       0x70 /opt/toolchains/crosstools-mips-gcc-4.6-linux-3.4-uclibc-0.9.32-binutils-2.21/usr/lib/gcc/mips-unknown-linux-uclibc/4.6.2/libgcc.a(_sf_to_df.o)
                0x0000000000511410                __extendsfdf2
 .text          0x0000000000511480       0xb0 /opt/toolchains/crosstools-mips-gcc-4.6-linux-3.4-uclibc-0.9.32-binutils-2.21/usr/lib/gcc/mips-unknown-linux-uclibc/4.6.2/libgcc.a(_usi_to_sf.o)
                0x0000000000511480                __floatunsisf
 .text          0x0000000000511530      0x4b0 /opt/toolchains/crosstools-mips-gcc-4.6-linux-3.4-uclibc-0.9.32-binutils-2.21/usr/lib/gcc/mips-unknown-linux-uclibc/4.6.2/libgcc.a(_addsub_df.o)
                0x00000000005118bc                __adddf3
                0x0000000000511948                __subdf3
 .text          0x00000000005119e0      0x300 /opt/toolchains/crosstools-mips-gcc-4.6-linux-3.4-uclibc-0.9.32-binutils-2.21/usr/lib/gcc/mips-unknown-linux-uclibc/4.6.2/libgcc.a(_mul_df.o)
                0x00000000005119e0                __muldf3
 .text          0x0000000000511ce0       0x90 /opt/toolchains/crosstools-mips-gcc-4.6-linux-3.4-uclibc-0.9.32-binutils-2.21/usr/lib/gcc/mips-unknown-linux-uclibc/4.6.2/libgcc.a(_ge_df.o)
                0x0000000000511ce0                __gedf2
 .text          0x0000000000511d70       0xc0 /opt/toolchains/crosstools-mips-gcc-4.6-linux-3.4-uclibc-0.9.32-binutils-2.21/usr/lib/gcc/mips-unknown-linux-uclibc/4.6.2/libgcc.a(_df_to_si.o)
                0x0000000000511d70                __fixdfsi
 .text          0x0000000000511e30       0x60 /opt/toolchains/crosstools-mips-gcc-4.6-linux-3.4-uclibc-0.9.32-binutils-2.21/usr/lib/gcc/mips-unknown-linux-uclibc/4.6.2/libgcc.a(_make_df.o)
                0x0000000000511e30                __make_dp
 .text          0x0000000000511e90       0x80 /opt/toolchains/crosstools-mips-gcc-4.6-linux-3.4-uclibc-0.9.32-binutils-2.21/usr/lib/gcc/mips-unknown-linux-uclibc/4.6.2/libgcc.a(_df_to_sf.o)
                0x0000000000511e90                __truncdfsf2
 .text          0x0000000000511f10        0x0 /opt/toolchains/crosstools-mips-gcc-4.6-linux-3.4-uclibc-0.9.32-binutils-2.21/usr/lib/gcc/mips-unknown-linux-uclibc/4.6.2/libgcc.a(_thenan_df.o)
 .text          0x0000000000511f10       0x40 /opt/toolchains/crosstools-mips-gcc-4.6-linux-3.4-uclibc-0.9.32-binutils-2.21/usr/lib/gcc/mips-unknown-linux-uclibc/4.6.2/libgcc.a(_lshrdi3.o)
                0x0000000000511f10                __lshrdi3
 .text          0x0000000000511f50       0x40 /opt/toolchains/crosstools-mips-gcc-4.6-linux-3.4-uclibc-0.9.32-binutils-2.21/usr/lib/gcc/mips-unknown-linux-uclibc/4.6.2/libgcc.a(_ashldi3.o)
                0x0000000000511f50                __ashldi3
 .text          0x0000000000511f90      0x120 /opt/toolchains/crosstools-mips-gcc-4.6-linux-3.4-uclibc-0.9.32-binutils-2.21/usr/lib/gcc/mips-unknown-linux-uclibc/4.6.2/libgcc.a(_pack_sf.o)
                0x0000000000511f90                __pack_f
 .text          0x00000000005120b0       0xc0 /opt/toolchains/crosstools-mips-gcc-4.6-linux-3.4-uclibc-0.9.32-binutils-2.21/usr/lib/gcc/mips-unknown-linux-uclibc/4.6.2/libgcc.a(_unpack_sf.o)
                0x00000000005120b0                __unpack_f
 .text          0x0000000000512170       0x40 /opt/toolchains/crosstools-mips-gcc-4.6-linux-3.4-uclibc-0.9.32-binutils-2.21/usr/lib/gcc/mips-unknown-linux-uclibc/4.6.2/libgcc.a(_make_sf.o)
                0x0000000000512170                __make_fp
 .text          0x00000000005121b0      0x240 /opt/toolchains/crosstools-mips-gcc-4.6-linux-3.4-uclibc-0.9.32-binutils-2.21/usr/lib/gcc/mips-unknown-linux-uclibc/4.6.2/libgcc.a(_pack_df.o)
                0x00000000005121b0                __pack_d
 .text          0x00000000005123f0       0xf0 /opt/toolchains/crosstools-mips-gcc-4.6-linux-3.4-uclibc-0.9.32-binutils-2.21/usr/lib/gcc/mips-unknown-linux-uclibc/4.6.2/libgcc.a(_unpack_df.o)
                0x00000000005123f0                __unpack_d
 .text          0x00000000005124e0      0x130 /opt/toolchains/crosstools-mips-gcc-4.6-linux-3.4-uclibc-0.9.32-binutils-2.21/usr/lib/gcc/mips-unknown-linux-uclibc/4.6.2/libgcc.a(_fpcmp_parts_df.o)
                0x00000000005124e0                __fpcmp_parts_d
 .text          0x0000000000512610       0x50 /opt/toolchains/crosstools-mips-gcc-4.6-linux-3.4-uclibc-0.9.32-binutils-2.21/usr/lib/gcc/mips-unknown-linux-uclibc/4.6.2/crtend.o
 .text          0x0000000000512660        0x0 /home/liyupeng/zengyao/6.13/DT-W724V-20140311/output/host/usr/mips-unknown-linux-uclibc/sysroot/usr/lib/crtn.o
 *(.gnu.warning)
 *(.mips16.fn.*)
 *(.mips16.call.*)

.MIPS.stubs     0x0000000000512660     0x1750
 .MIPS.stubs    0x0000000000512660     0x1750 /home/liyupeng/zengyao/6.13/DT-W724V-20140311/output/host/usr/mips-unknown-linux-uclibc/sysroot/usr/lib/crt1.o
                0x0000000000512660                getpriority
                0x0000000000512670                ATP_MSG_SimpleBuilder
                0x0000000000512680                ATP_CFM_ExtDecryptedCfgFile
                0x0000000000512690                ATP_UTIL_GetIdxFromStr
                0x00000000005126a0                TSP_XML_ParseFile
                0x00000000005126b0                ATP_UTIL_StrFileClose
                0x00000000005126c0                msgsnd
                0x00000000005126d0                ATP_UTIL_IsTunnelUp
                0x00000000005126e0                BSP_SYS_GetSWVersion
                0x00000000005126f0                rewind
                0x0000000000512700                ATP_UTIL_GetMaskByName
                0x0000000000512710                bind
                0x0000000000512720                sysconf
                0x0000000000512730                ATP_UTIL_VoiceHasUrgCall
                0x0000000000512740                ATP_CFMA_GetObjInstNum
                0x0000000000512750                ATP_CFM_GetAttrOfCMO
                0x0000000000512760                ATP_DBDomainToKeyListIgnorePrefix
                0x0000000000512770                ATP_DBSave
                0x0000000000512780                ATP_CFM_IsKeyListSame
                0x0000000000512790                AT_CIMI
                0x00000000005127a0                ATP_CFM_ExtRebootEx
                0x00000000005127b0                strftime
                0x00000000005127c0                calloc
                0x00000000005127d0                mknod
                0x00000000005127e0                strtok_r
                0x00000000005127f0                ATP_MSG_SendSimpleMsg
                0x0000000000512800                ATP_UTIL_GVarSetValue
                0x0000000000512810                ATP_VDB_GetEntryByIdx
                0x0000000000512820                AT_Cqst
                0x0000000000512830                __errno_location
                0x0000000000512840                inet_aton
                0x0000000000512850                ATP_BHAL_SetLedState
                0x0000000000512860                ATP_UTIL_getaddrinfo
                0x0000000000512870                open
                0x0000000000512880                ATP_UTIL_UCTTimeFormatCheck
                0x0000000000512890                fwrite
                0x00000000005128a0                __ctype_b_loc
                0x00000000005128b0                toupper
                0x00000000005128c0                ATP_VDB_BrowseEntries
                0x00000000005128d0                system
                0x00000000005128e0                ATP_UTIL_Base64Encode
                0x00000000005128f0                ATP_MSG_Printf
                0x0000000000512900                usleep
                0x0000000000512910                memcpy
                0x0000000000512920                ATP_UTIL_GVarInit
                0x0000000000512930                umount2
                0x0000000000512940                ATP_UTIL_StrTrim
                0x0000000000512950                connect
                0x0000000000512960                AT_SysConfigEx
                0x0000000000512970                uname
                0x0000000000512980                ATP_CFM_GetObjectFromGetMsg
                0x0000000000512990                ATP_UTIL_SendMsgToVoice
                0x00000000005129a0                sleep
                0x00000000005129b0                realloc
                0x00000000005129c0                AT_Csqlvl
                0x00000000005129d0                ATP_UTIL_IsIPv6GlobalAddr
                0x00000000005129e0                ATP_FLASH_ReadArea
                0x00000000005129f0                endmntent
                0x0000000000512a00                ATP_UTIL_GetStrFromIdx
                0x0000000000512a10                sysinfo
                0x0000000000512a20                ATP_CFM_GetObjectFromSetOrAddMsgForAll
                0x0000000000512a30                ATP_UTIL_StrFileFOpen
                0x0000000000512a40                ATP_VDB_GetEntryByEntryId
                0x0000000000512a50                putchar
                0x0000000000512a60                ATP_GMSG_GetValueByName
                0x0000000000512a70                gettimeofday
                0x0000000000512a80                AT_Lcellinfo
                0x0000000000512a90                statvfs
                0x0000000000512aa0                strcat
                0x0000000000512ab0                ATP_UTIL_ListGetCount
                0x0000000000512ac0                feof
                0x0000000000512ad0                remove
                0x0000000000512ae0                rmdir
                0x0000000000512af0                ATP_DEL_ALL_LED
                0x0000000000512b00                ATP_UTIL_FindKernelPidByName
                0x0000000000512b10                AT_GroupID
                0x0000000000512b20                ATP_MSG_SendMsgData
                0x0000000000512b30                ATP_CFM_FreeObjByName
                0x0000000000512b40                ATP_MSG_RegisterMsgProc
                0x0000000000512b50                AT_cnum
                0x0000000000512b60                ATP_CFM_ResponseMsgRetCode
                0x0000000000512b70                ATP_LOG_RtoToServer
                0x0000000000512b80                getnameinfo
                0x0000000000512b90                AT_PinEnableDisableCmd
                0x0000000000512ba0                strcasecmp
                0x0000000000512bb0                freeaddrinfo
                0x0000000000512bc0                ATP_UTIL_GetBrFdbInfoByMac
                0x0000000000512bd0                ATP_UTIL_TimerDel
                0x0000000000512be0                strtoul
                0x0000000000512bf0                ATP_DBGetNumOfObjs
                0x0000000000512c00                ATP_UTIL_ParseUrl
                0x0000000000512c10                ATP_UTIL_GetSysTime
                0x0000000000512c20                AT_SCID
                0x0000000000512c30                mkdir
                0x0000000000512c40                ATP_UTIL_SockBaseRegEvtProc
                0x0000000000512c50                atol
                0x0000000000512c60                malloc
                0x0000000000512c70                ATP_CFM_ResponseInstArrayMsg
                0x0000000000512c80                ATP_DBSetCurrUser
                0x0000000000512c90                ATP_UTIL_ForkProcessSys
                0x0000000000512ca0                ATP_UTIL_RestartDynApp
                0x0000000000512cb0                strrchr
                0x0000000000512cc0                ATP_LOG_RecordItem
                0x0000000000512cd0                strncmp
                0x0000000000512ce0                ATP_BHAL_SetWpsProcStatus
                0x0000000000512cf0                __uClibc_main
                0x0000000000512d00                inet_pton
                0x0000000000512d10                ATP_DBSetObj
                0x0000000000512d20                scandir
                0x0000000000512d30                __ctype_toupper_loc
                0x0000000000512d40                ATP_UTIL_ListFindItem
                0x0000000000512d50                ATP_UTIL_WPSRegister_Status
                0x0000000000512d60                ATP_CFM_GetObjectFromSetOrAddMsgEx
                0x0000000000512d70                TSP_XML_GetNodeValue
                0x0000000000512d80                __ctype_tolower_loc
                0x0000000000512d90                ioctl
                0x0000000000512da0                AT_CecellId
                0x0000000000512db0                AT_CGMR
                0x0000000000512dc0                strlen
                0x0000000000512dd0                ATP_DBGetNumOfObjsByName
                0x0000000000512de0                ATP_LOG_QueryEx
                0x0000000000512df0                opendir
                0x0000000000512e00                setmntent
                0x0000000000512e10                ATP_UTIL_SockBaseReg
                0x0000000000512e20                stat
                0x0000000000512e30                libiconv
                0x0000000000512e40                ATP_UTIL_GetGatewayByIntf
                0x0000000000512e50                ATP_DBGetInstDepthOfOID
                0x0000000000512e60                sendto
                0x0000000000512e70                strtol
                0x0000000000512e80                ATP_CFM_FreeObj
                0x0000000000512e90                fcntl
                0x0000000000512ea0                ATP_CFM_CfgMsgAppendPara
                0x0000000000512eb0                AT_Sysinfo
                0x0000000000512ec0                gmtime
                0x0000000000512ed0                ATP_FLASH_WriteArea
                0x0000000000512ee0                sendmsg
                0x0000000000512ef0                snprintf
                0x0000000000512f00                ATP_SYS_GetInfo
                0x0000000000512f10                ATP_CFM_CopyObjEx
                0x0000000000512f20                ATP_UTIL_GetInterfaceMtu
                0x0000000000512f30                ATP_VDB_DeleteAllEntries
                0x0000000000512f40                ATP_DBGetParaByName
                0x0000000000512f50                ATP_DBGetPara
                0x0000000000512f60                ATP_CFM_NotifyValueChange
                0x0000000000512f70                read
                0x0000000000512f80                ATP_VDB_Save
                0x0000000000512f90                ATP_DBCheckFile
                0x0000000000512fa0                ATP_CFM_CompareObj
                0x0000000000512fb0                AT_CFUNManagementEx
                0x0000000000512fc0                execv
                0x0000000000512fd0                localtime_r
                0x0000000000512fe0                ATP_UTIL_NotifierInit
                0x0000000000512ff0                ATP_NET_GetMacAddress
                0x0000000000513000                select
                0x0000000000513010                _exit
                0x0000000000513020                strncasecmp
                0x0000000000513030                ATP_CFM_InitResponseMsg
                0x0000000000513040                ATP_UTIL_IconvConvert
                0x0000000000513050                AT_PinManagementEx
                0x0000000000513060                AT_DsflowQurey
                0x0000000000513070                ATP_CFM_ChangeInstIdByNow
                0x0000000000513080                ATP_UTIL_ExecCmdNoHang
                0x0000000000513090                access
                0x00000000005130a0                ATP_UTIL_GetIpByName
                0x00000000005130b0                fdopen
                0x00000000005130c0                ATP_DBGetObj
                0x00000000005130d0                stat64
                0x00000000005130e0                ATP_UTIL_Hex2Str
                0x00000000005130f0                getpid
                0x0000000000513100                putpwent
                0x0000000000513110                __fgetc_unlocked
                0x0000000000513120                CheckSoftRebootlFlag
                0x0000000000513130                strtoull
                0x0000000000513140                ATP_UTIL_TimerAdd
                0x0000000000513150                ATP_UTIL_UpdateDynAppListenFd
                0x0000000000513160                memmove
                0x0000000000513170                ATP_UTIL_WriteBufToFile
                0x0000000000513180                ATP_CFM_ResponseSetMsg
                0x0000000000513190                fclose
                0x00000000005131a0                ATP_UTIL_IsWanV4Up
                0x00000000005131b0                setsockopt
                0x00000000005131c0                fread
                0x00000000005131d0                AT_ChoseOperators
                0x00000000005131e0                strncat
                0x00000000005131f0                fopen
                0x0000000000513200                ATP_MSG_Destroy
                0x0000000000513210                ATP_CFM_ErrorCode
                0x0000000000513220                ATP_DBGetObjectBySeqNum
                0x0000000000513230                ATP_CFM_IsKeyListValid
                0x0000000000513240                libiconv_close
                0x0000000000513250                chmod
                0x0000000000513260                ATP_MSG_SafeExitProcesses
                0x0000000000513270                ATP_DBGetObjByName
                0x0000000000513280                time
                0x0000000000513290                ATP_BHAL_Set_ServLed_TolTimes
                0x00000000005132a0                fgetc
                0x00000000005132b0                ATP_UTIL_EncodePath
                0x00000000005132c0                strtok
                0x00000000005132d0                ATP_UTIL_GetAllLogLevel
                0x00000000005132e0                fileno
                0x00000000005132f0                ATP_DBGetDftObject
                0x0000000000513300                write
                0x0000000000513310                ATP_UTIL_DecodePath
                0x0000000000513320                ATP_CFM_CfgMsgAppendDiffPara
                0x0000000000513330                ATP_CFM_AppendErrorCode
                0x0000000000513340                atoll
                0x0000000000513350                closedir
                0x0000000000513360                WriteSoftRebootlFlag
                0x0000000000513370                ATP_UTIL_GetInterfaceNameByMacAddr
                0x0000000000513380                ATP_UTIL_ConvertStrToShellStr
                0x0000000000513390                ATP_UTIL_GVarGetValueEx
                0x00000000005133a0                ATP_UTIL_IsLTEWanV4Up
                0x00000000005133b0                ATP_DBPreGetObjInstID
                0x00000000005133c0                ATP_UTIL_ParseUrlEx
                0x00000000005133d0                ATP_UTIL_GetIfcStatInfo
                0x00000000005133e0                localtime
                0x00000000005133f0                close
                0x0000000000513400                fputc
                0x0000000000513410                ATP_UTIL_CheckWlanStatus
                0x0000000000513420                ATP_DBSetParaByName
                0x0000000000513430                ATP_DBKeyListToDomain
                0x0000000000513440                ATP_BHAL_SetWlanSettingStatus
                0x0000000000513450                ATP_UTIL_UpdateDynAppStatus
                0x0000000000513460                ATP_UTIL_IsLTEWanV6Up
                0x0000000000513470                ATP_UTIL_ForkProcessEx
                0x0000000000513480                TSP_XML_FreeNode
                0x0000000000513490                ATP_VDB_AddEntry
                0x00000000005134a0                ATP_MSG_Dup
                0x00000000005134b0                ATP_LOG_GetFilter
                0x00000000005134c0                ATP_CFM_CfgMsgHeadBuilder
                0x00000000005134d0                fgets
                0x00000000005134e0                sigaction
                0x00000000005134f0                ATP_GMSG_GetHeadInfo
                0x0000000000513500                cfmGetObjOID
                0x0000000000513510                ATP_MSG_GetMsgHead
                0x0000000000513520                sscanf
                0x0000000000513530                ATP_BHAL_Get_ServLed_RemTimes
                0x0000000000513540                strncpy
                0x0000000000513550                libiconv_open
                0x0000000000513560                ATP_SYS_GetInfoEx
                0x0000000000513570                ATP_CFM_MsgFree
                0x0000000000513580                ATP_BHAL_GpioI2cInit
                0x0000000000513590                ATP_MSG_SendAndRecv
                0x00000000005135a0                atof
                0x00000000005135b0                fputs
                0x00000000005135c0                ATP_UTIL_GetDelayTime
                0x00000000005135d0                ATP_UTIL_GetXdslActiveMode
                0x00000000005135e0                ATP_MSG_RecvResponse
                0x00000000005135f0                ATP_CFM_GetObjectFromDelMsg
                0x0000000000513600                ATP_CFM_ExtReboot
                0x0000000000513610                ATP_CFM_ButtonRestoreDftEx
                0x0000000000513620                ATP_CFM_SetObjStrValue
                0x0000000000513630                ATP_UTIL_GVarDelModule
                0x0000000000513640                ATP_UTIL_ForkProcess
                0x0000000000513650                unlink
                0x0000000000513660                ATP_DBDomainToKeyList
                0x0000000000513670                sync
                0x0000000000513680                ATP_DBAddObj
                0x0000000000513690                fflush
                0x00000000005136a0                ATP_VDB_Init
                0x00000000005136b0                ATP_CFM_GetObjParaCmo
                0x00000000005136c0                memset
                0x00000000005136d0                ATP_UTIL_ListDeleteAll
                0x00000000005136e0                ATP_SYS_Set_Cms_Inited
                0x00000000005136f0                inet_ntoa
                0x0000000000513700                if_nametoindex
                0x0000000000513710                ATP_CFM_IsObjectExist
                0x0000000000513720                ATP_UTIL_StrCat
                0x0000000000513730                ATP_CFM_FreeObjList
                0x0000000000513740                perror
                0x0000000000513750                rindex
                0x0000000000513760                flock
                0x0000000000513770                ATP_UTIL_ListDeleteItem
                0x0000000000513780                ATP_UTIL_WaitForPid
                0x0000000000513790                ftruncate
                0x00000000005137a0                TSP_XML_GetNodeNextSibling
                0x00000000005137b0                fprintf
                0x00000000005137c0                ATP_UTIL_NotifierRegister
                0x00000000005137d0                ATP_DummyVDB_Init
                0x00000000005137e0                ATP_UTIL_GetIpv6LinkAddress
                0x00000000005137f0                ATP_DBSetDftObject
                0x0000000000513800                ATP_UTIL_SockBaseStart
                0x0000000000513810                recvmsg
                0x0000000000513820                ATP_DBInit
                0x0000000000513830                ATP_NET_ReleaseMacAddress
                0x0000000000513840                inet_addr
                0x0000000000513850                ATP_UTIL_ListAppend
                0x0000000000513860                ATP_LOG_RegLogLimits
                0x0000000000513870                ATP_UTIL_StrFileOpenEx
                0x0000000000513880                ATP_UTIL_get_dev_stats
                0x0000000000513890                memcmp
                0x00000000005138a0                ATP_UTIL_GetDownloadBandwidth
                0x00000000005138b0                AT_GSN
                0x00000000005138c0                recvfrom
                0x00000000005138d0                sigemptyset
                0x00000000005138e0                sprintf
                0x00000000005138f0                ATP_UTIL_NotifierUnRegister
                0x0000000000513900                ATP_UTIL_IsWanV6Up
                0x0000000000513910                ATP_LOG_SetFilter
                0x0000000000513920                ATP_UTIL_DECTRegister_Status
                0x0000000000513930                ATP_UTIL_GetDifTime
                0x0000000000513940                socket
                0x0000000000513950                ATP_DBGetCurrUser
                0x0000000000513960                fseek
                0x0000000000513970                ATP_UTIL_CheckTimeValid
                0x0000000000513980                ATP_CFM_ResponseGetMsg
                0x0000000000513990                ATP_UTIL_FilePrintf
                0x00000000005139a0                rand
                0x00000000005139b0                ATP_DBDelObj
                0x00000000005139c0                ATP_UTIL_IsIPv4LanAddr
                0x00000000005139d0                exit
                0x00000000005139e0                rename
                0x00000000005139f0                ATP_VDB_DeleteEntry
                0x0000000000513a00                fork
                0x0000000000513a10                ATP_LOG_Enable
                0x0000000000513a20                ATP_CFM_ExtImportEncryptedCfgFile
                0x0000000000513a30                getmntent
                0x0000000000513a40                strstr
                0x0000000000513a50                strcmp
                0x0000000000513a60                __libc_current_sigrtmin
                0x0000000000513a70                waitpid
                0x0000000000513a80                ATP_LOG_Flush
                0x0000000000513a90                ATP_UTIL_StrFilePrintf
                0x0000000000513aa0                ATP_DBSetPara
                0x0000000000513ab0                ftell
                0x0000000000513ac0                ATP_UTIL_ValidatePort
                0x0000000000513ad0                free
                0x0000000000513ae0                cfmIsStringStyleOID
                0x0000000000513af0                atoi
                0x0000000000513b00                readdir
                0x0000000000513b10                AT_PhyNum
                0x0000000000513b20                ATP_CFM_GetObjectFromOtherMsg
                0x0000000000513b30                ATP_VDB_ModifyEntry
                0x0000000000513b40                strchr
                0x0000000000513b50                ATP_UTIL_FindPidByName
                0x0000000000513b60                ATP_MSG_RecvWithType
                0x0000000000513b70                ATP_UTIL_NotifierDoNotify
                0x0000000000513b80                strerror
                0x0000000000513b90                isspace
                0x0000000000513ba0                ftok
                0x0000000000513bb0                srand
                0x0000000000513bc0                printf
                0x0000000000513bd0                ATP_UTIL_WaitForPidEx
                0x0000000000513be0                msgget
                0x0000000000513bf0                strdup
                0x0000000000513c00                ATP_UTIL_TriggerDemand
                0x0000000000513c10                puts
                0x0000000000513c20                ATP_UTIL_GVarGetValue
                0x0000000000513c30                ATP_NAS_WEBDAV_FetchSpaceInfo
                0x0000000000513c40                fscanf
                0x0000000000513c50                ATP_MSG_Init
                0x0000000000513c60                sched_setscheduler
                0x0000000000513c70                signal
                0x0000000000513c80                ATP_UTIL_TimerChgPeriod
                0x0000000000513c90                inet_ntop
                0x0000000000513ca0                AT_CardMode
                0x0000000000513cb0                ATP_SYS_GetInfoSHA256
                0x0000000000513cc0                ATP_UTIL_Mktime
                0x0000000000513cd0                ATP_UTIL_GetPid
                0x0000000000513ce0                TSP_XML_GetNodeFirstChild
                0x0000000000513cf0                ATP_BHAL_SquenceBlinkLed
                0x0000000000513d00                ATP_UTIL_GVarAttach
                0x0000000000513d10                ATP_UTIL_Base64Decode
                0x0000000000513d20                kill
                0x0000000000513d30                getpgid
                0x0000000000513d40                ATP_UTIL_ForkProcessFull
                0x0000000000513d50                ATP_CFM_ExtExportEncryptedCfgFile
                0x0000000000513d60                ATP_UTIL_ReadFileToBuf
                0x0000000000513d70                ATP_UTIL_VoiceGetVoipStatus
                0x0000000000513d80                ATP_MSG_Send
                0x0000000000513d90                hex_str_to_uinteger

.fini           0x0000000000513db0       0x4c
 *(.fini)
 .fini          0x0000000000513db0       0x1c /home/liyupeng/zengyao/6.13/DT-W724V-20140311/output/host/usr/mips-unknown-linux-uclibc/sysroot/usr/lib/crti.o
                0x0000000000513db0                _fini
 .fini          0x0000000000513dcc       0x24 /opt/toolchains/crosstools-mips-gcc-4.6-linux-3.4-uclibc-0.9.32-binutils-2.21/usr/lib/gcc/mips-unknown-linux-uclibc/4.6.2/crtbegin.o
 .fini          0x0000000000513df0        0xc /home/liyupeng/zengyao/6.13/DT-W724V-20140311/output/host/usr/mips-unknown-linux-uclibc/sysroot/usr/lib/crtn.o
                0x0000000000513dfc                PROVIDE (__etext, .)
                0x0000000000513dfc                PROVIDE (_etext, .)
                0x0000000000513dfc                PROVIDE (etext, .)

.rodata         0x0000000000513e00    0x2c090
 *(.rodata .rodata.* .gnu.linkonce.r.*)
 .rodata.str1.4
                0x0000000000513e00       0xf3 /home/liyupeng/zengyao/6.13/DT-W724V-20140311/output/package/atp/configuration/cmsmain/management.o
                                         0xf4 (size before relaxing)
 *fill*         0x0000000000513ef3        0x1 00
 .rodata.str1.4
                0x0000000000513ef4       0xb4 /home/liyupeng/zengyao/6.13/DT-W724V-20140311/output/package/atp/configuration/cmsmain/cmsmonitor.o
 .rodata.str1.4
                0x0000000000513fa8      0x11d /home/liyupeng/zengyao/6.13/DT-W724V-20140311/output/package/atp/configuration/cmsmain/cmsinit.o
                                        0x128 (size before relaxing)
 *fill*         0x00000000005140c5        0x3 00
 .rodata.str1.4
                0x00000000005140c8      0x1c7 /home/liyupeng/zengyao/6.13/DT-W724V-20140311/output/host/usr/mips-unknown-linux-uclibc/sysroot/lib/libcmscore.a(cmsmsgproc.o)
                                        0x1f0 (size before relaxing)
 *fill*         0x000000000051428f        0x1 00
 .rodata.str1.4
                0x0000000000514290      0x4a8 /home/liyupeng/zengyao/6.13/DT-W724V-20140311/output/host/usr/mips-unknown-linux-uclibc/sysroot/lib/libcmscore.a(cmsutil.o)
                                        0x4d4 (size before relaxing)
 *fill*         0x0000000000514738        0x8 00
 .rodata        0x0000000000514740       0x20 /home/liyupeng/zengyao/6.13/DT-W724V-20140311/output/host/usr/mips-unknown-linux-uclibc/sysroot/lib/libcmscore.a(cmsutil.o)
 .rodata.str1.4
                0x0000000000514760      0x29f /home/liyupeng/zengyao/6.13/DT-W724V-20140311/output/host/usr/mips-unknown-linux-uclibc/sysroot/lib/libinterfacecore.a(interfaceapi.o)
                                        0x2c0 (size before relaxing)
 *fill*         0x00000000005149ff        0x1 00
 .rodata.str1.4
                0x0000000000514a00      0x238 /home/liyupeng/zengyao/6.13/DT-W724V-20140311/output/host/usr/mips-unknown-linux-uclibc/sysroot/lib/libinterfacecore.a(intfstats.o)
                                        0x258 (size before relaxing)
 *fill*         0x0000000000514c38        0x8 00
 .rodata        0x0000000000514c40       0x20 /home/liyupeng/zengyao/6.13/DT-W724V-20140311/output/host/usr/mips-unknown-linux-uclibc/sysroot/lib/libinterfacecore.a(intfstats.o)
 .rodata.str1.4
                0x0000000000000000      0x238 /home/liyupeng/zengyao/6.13/DT-W724V-20140311/output/host/usr/mips-unknown-linux-uclibc/sysroot/lib/libinterfacecore.a(intfcfgmsgproc.o)
                                          0x8 (size before relaxing)
 .rodata.str1.4
                0x0000000000514c60       0x48 /home/liyupeng/zengyao/6.13/DT-W724V-20140311/output/host/usr/mips-unknown-linux-uclibc/sysroot/lib/libinterfacecore.a(intfstack.o)
 .rodata.str1.4
                0x0000000000514ca8      0x29d /home/liyupeng/zengyao/6.13/DT-W724V-20140311/output/host/usr/mips-unknown-linux-uclibc/sysroot/lib/libdmscms.a(dmscmsmsgproc.o)
                                        0x2c4 (size before relaxing)
 *fill*         0x0000000000514f45        0x3 00
 .rodata.str1.4
                0x0000000000514f48       0x37 /home/liyupeng/zengyao/6.13/DT-W724V-20140311/output/host/usr/mips-unknown-linux-uclibc/sysroot/lib/libledservicecms.a(ledserviceini.o)
                                         0x38 (size before relaxing)
 *fill*         0x0000000000514f7f        0x1 00
 .rodata.str1.4
                0x0000000000514f80      0xb4a /home/liyupeng/zengyao/6.13/DT-W724V-20140311/output/host/usr/mips-unknown-linux-uclibc/sysroot/lib/libnascms.a(nascms.o)
                                        0xb90 (size before relaxing)
 *fill*         0x0000000000515aca        0x6 00
 .rodata        0x0000000000515ad0       0x20 /home/liyupeng/zengyao/6.13/DT-W724V-20140311/output/host/usr/mips-unknown-linux-uclibc/sysroot/lib/libnascms.a(nascms.o)
 .rodata.str1.4
                0x0000000000515af0       0x30 /home/liyupeng/zengyao/6.13/DT-W724V-20140311/output/host/usr/mips-unknown-linux-uclibc/sysroot/lib/liboamcms.a(oamcms.o)
 .rodata.str1.4
                0x0000000000515b20      0x42d /home/liyupeng/zengyao/6.13/DT-W724V-20140311/output/host/usr/mips-unknown-linux-uclibc/sysroot/lib/libtr143cms.a(tr143cmsmsgproc.o)
                                        0x444 (size before relaxing)
 *fill*         0x0000000000515f4d        0x3 00
 .rodata        0x0000000000515f50       0x20 /home/liyupeng/zengyao/6.13/DT-W724V-20140311/output/host/usr/mips-unknown-linux-uclibc/sysroot/lib/libtr143cms.a(tr143cmsmsgproc.o)
 .rodata.str1.4
                0x0000000000515f70      0x1ef /home/liyupeng/zengyao/6.13/DT-W724V-20140311/output/host/usr/mips-unknown-linux-uclibc/sysroot/lib/libusbmngrcms.a(usbmngrcmsproc.o)
                                        0x208 (size before relaxing)
 *fill*         0x000000000051615f        0x1 00
 .rodata.str1.4
                0x0000000000516160      0x373 /home/liyupeng/zengyao/6.13/DT-W724V-20140311/output/host/usr/mips-unknown-linux-uclibc/sysroot/lib/libusbmountcms.a(usbmntcmsmsgproc.o)
                                        0x3ac (size before relaxing)
 *fill*         0x00000000005164d3        0xd 00
 .rodata        0x00000000005164e0      0x200 /home/liyupeng/zengyao/6.13/DT-W724V-20140311/output/host/usr/mips-unknown-linux-uclibc/sysroot/lib/libusbmountcms.a(usbmntcmsmsgproc.o)
 .rodata.str1.4
                0x00000000005166e0       0x7e /home/liyupeng/zengyao/6.13/DT-W724V-20140311/output/host/usr/mips-unknown-linux-uclibc/sysroot/lib/libusbmountcms.a(usbmntcmsinit.o)
                                         0x80 (size before relaxing)
 *fill*         0x000000000051675e        0x2 00
 .rodata.str1.4
                0x0000000000516760      0x3a3 /home/liyupeng/zengyao/6.13/DT-W724V-20140311/output/host/usr/mips-unknown-linux-uclibc/sysroot/lib/libcupscms.a(cupscms.o)
                                        0x3c0 (size before relaxing)
 *fill*         0x0000000000516b03        0x1 00
 .rodata.str1.4
                0x0000000000516b04     0x2fda /home/liyupeng/zengyao/6.13/DT-W724V-20140311/output/host/usr/mips-unknown-linux-uclibc/sysroot/lib/libusbstoragecms.a(usbstoragecmsmsgproc.o)
                                       0x30a0 (size before relaxing)
 *fill*         0x0000000000519ade        0x2 00
 .rodata        0x0000000000519ae0      0x7a0 /home/liyupeng/zengyao/6.13/DT-W724V-20140311/output/host/usr/mips-unknown-linux-uclibc/sysroot/lib/libusbstoragecms.a(usbstoragecmsmsgproc.o)
 .rodata.str1.4
                0x000000000051a280      0x788 /home/liyupeng/zengyao/6.13/DT-W724V-20140311/output/host/usr/mips-unknown-linux-uclibc/sysroot/lib/libusbstoragecms.a(usbstoragecms.o)
                                        0xa5c (size before relaxing)
 *fill*         0x000000000051aa08        0x8 00
 .rodata        0x000000000051aa10      0x1c0 /home/liyupeng/zengyao/6.13/DT-W724V-20140311/output/host/usr/mips-unknown-linux-uclibc/sysroot/lib/libusbstoragecms.a(usbstoragecms.o)
 .rodata.str1.4
                0x000000000051abd0      0x8cf /home/liyupeng/zengyao/6.13/DT-W724V-20140311/output/host/usr/mips-unknown-linux-uclibc/sysroot/lib/libusbstoragecms.a(usbstoragecmsinit.o)
                                        0xc04 (size before relaxing)
 *fill*         0x000000000051b49f        0x1 00
 .rodata        0x000000000051b4a0       0xb0 /home/liyupeng/zengyao/6.13/DT-W724V-20140311/output/host/usr/mips-unknown-linux-uclibc/sysroot/lib/libusbstoragecms.a(usbstoragecmsinit.o)
 .rodata.str1.4
                0x000000000051b550      0x4c3 /home/liyupeng/zengyao/6.13/DT-W724V-20140311/output/host/usr/mips-unknown-linux-uclibc/sysroot/lib/libusbstoragecms.a(usbstorageloginctl.o)
                                        0x4d8 (size before relaxing)
 *fill*         0x000000000051ba13        0xd 00
 .rodata        0x000000000051ba20      0x110 /home/liyupeng/zengyao/6.13/DT-W724V-20140311/output/host/usr/mips-unknown-linux-uclibc/sysroot/lib/libusbstoragecms.a(usbstorageloginctl.o)
 .rodata.str1.4
                0x000000000051bb30      0x1ce /home/liyupeng/zengyao/6.13/DT-W724V-20140311/output/host/usr/mips-unknown-linux-uclibc/sysroot/lib/libftpservercms.a(ftpservercmsmsgproc.o)
                                        0x1e0 (size before relaxing)
 *fill*         0x000000000051bcfe        0x2 00
 .rodata        0x000000000051bd00      0x200 /home/liyupeng/zengyao/6.13/DT-W724V-20140311/output/host/usr/mips-unknown-linux-uclibc/sysroot/lib/libftpservercms.a(ftpservercmsmsgproc.o)
 .rodata.str1.4
                0x000000000051bf00      0xcc4 /home/liyupeng/zengyao/6.13/DT-W724V-20140311/output/host/usr/mips-unknown-linux-uclibc/sysroot/lib/libftpservercms.a(ftpservercms.o)
                                        0xd40 (size before relaxing)
 *fill*         0x000000000051cbc4        0xc 00
 .rodata        0x000000000051cbd0      0x100 /home/liyupeng/zengyao/6.13/DT-W724V-20140311/output/host/usr/mips-unknown-linux-uclibc/sysroot/lib/libftpservercms.a(ftpservercms.o)
 .rodata.str1.4
                0x000000000051ccd0      0x944 /home/liyupeng/zengyao/6.13/DT-W724V-20140311/output/host/usr/mips-unknown-linux-uclibc/sysroot/lib/libsambacms.a(sambacms.o)
                                        0xa24 (size before relaxing)
 *fill*         0x000000000051d614        0xc 00
 .rodata        0x000000000051d620       0xb0 /home/liyupeng/zengyao/6.13/DT-W724V-20140311/output/host/usr/mips-unknown-linux-uclibc/sysroot/lib/libsambacms.a(sambacms.o)
 .rodata.str1.4
                0x000000000051d6d0      0x3a4 /home/liyupeng/zengyao/6.13/DT-W724V-20140311/output/host/usr/mips-unknown-linux-uclibc/sysroot/lib/libcwmpcms.a(cwmpcmsmsgproc.o)
                                        0x3c8 (size before relaxing)
 .rodata.str1.4
                0x000000000051da74       0x84 /home/liyupeng/zengyao/6.13/DT-W724V-20140311/output/host/usr/mips-unknown-linux-uclibc/sysroot/lib/libcwmpcms.a(cwmpcms.o)
                                         0x90 (size before relaxing)
 .rodata.str1.4
                0x000000000051daf8      0x315 /home/liyupeng/zengyao/6.13/DT-W724V-20140311/output/host/usr/mips-unknown-linux-uclibc/sysroot/lib/libcwmpcms.a(cwmpschdwlmsgproc.o)
                                        0x334 (size before relaxing)
 *fill*         0x000000000051de0d        0x3 00
 .rodata.str1.4
                0x000000000051de10      0x116 /home/liyupeng/zengyao/6.13/DT-W724V-20140311/output/host/usr/mips-unknown-linux-uclibc/sysroot/lib/libippingcms.a(ippingcmsmsgproc.o)
                                        0x178 (size before relaxing)
 *fill*         0x000000000051df26        0xa 00
 .rodata        0x000000000051df30       0x20 /home/liyupeng/zengyao/6.13/DT-W724V-20140311/output/host/usr/mips-unknown-linux-uclibc/sysroot/lib/libippingcms.a(ippingcmsmsgproc.o)
 .rodata.str1.4
                0x000000000051df50       0x46 /home/liyupeng/zengyao/6.13/DT-W724V-20140311/output/host/usr/mips-unknown-linux-uclibc/sysroot/lib/liblogcms.a(logcms.o)
                                         0x50 (size before relaxing)
 *fill*         0x000000000051df96        0x2 00
 .rodata.str1.4
                0x000000000051df98        0xa /home/liyupeng/zengyao/6.13/DT-W724V-20140311/output/host/usr/mips-unknown-linux-uclibc/sysroot/lib/liblogcms.a(logcmsinit.o)
                                         0x68 (size before relaxing)
 *fill*         0x000000000051dfa2        0x2 00
 .rodata.str1.4
                0x000000000051dfa4       0x26 /home/liyupeng/zengyao/6.13/DT-W724V-20140311/output/host/usr/mips-unknown-linux-uclibc/sysroot/lib/liblogcms.a(logcmsmsgproc.o)
                                         0x34 (size before relaxing)
 *fill*         0x000000000051dfca        0x2 00
 .rodata.str1.4
                0x000000000051dfcc      0x27e /home/liyupeng/zengyao/6.13/DT-W724V-20140311/output/host/usr/mips-unknown-linux-uclibc/sysroot/lib/libmiccms.a(miccmsmsgproc.o)
                                        0x290 (size before relaxing)
 *fill*         0x000000000051e24a        0x2 00
 .rodata.str1.4
                0x000000000051e24c       0xa6 /home/liyupeng/zengyao/6.13/DT-W724V-20140311/output/host/usr/mips-unknown-linux-uclibc/sysroot/lib/libportmntcms.a(portmntcms.o)
                                         0xac (size before relaxing)
 *fill*         0x000000000051e2f2        0xe 00
 .rodata        0x000000000051e300       0x30 /home/liyupeng/zengyao/6.13/DT-W724V-20140311/output/host/usr/mips-unknown-linux-uclibc/sysroot/lib/libportmntcms.a(portmntcms.o)
 .rodata.str1.4
                0x000000000051e330       0xbf /home/liyupeng/zengyao/6.13/DT-W724V-20140311/output/host/usr/mips-unknown-linux-uclibc/sysroot/lib/libsysinfocms.a(sysinfoinit.o)
                                        0x104 (size before relaxing)
 *fill*         0x000000000051e3ef        0x1 00
 .rodata.str1.4
                0x000000000051e3f0      0x26c /home/liyupeng/zengyao/6.13/DT-W724V-20140311/output/host/usr/mips-unknown-linux-uclibc/sysroot/lib/libsysinfocms.a(sysinfocmsmsgproc.o)
                                        0x28c (size before relaxing)
 .rodata.str1.4
                0x000000000051e65c       0x29 /home/liyupeng/zengyao/6.13/DT-W724V-20140311/output/host/usr/mips-unknown-linux-uclibc/sysroot/lib/libsysinfocms.a(sysinfocms.o)
                                         0x6c (size before relaxing)
 *fill*         0x000000000051e685        0x3 00
 .rodata.str1.4
                0x000000000051e688      0x163 /home/liyupeng/zengyao/6.13/DT-W724V-20140311/output/host/usr/mips-unknown-linux-uclibc/sysroot/lib/libsysinfocms.a(sysperiodicstatistics.o)
                                        0x1a0 (size before relaxing)
 *fill*         0x000000000051e7eb        0x1 00
 .rodata.str1.4
                0x000000000051e7ec       0x3e /home/liyupeng/zengyao/6.13/DT-W724V-20140311/output/host/usr/mips-unknown-linux-uclibc/sysroot/lib/libtelnetdcms.a(telnetdcmsmsgproc.o)
                                         0x48 (size before relaxing)
 *fill*         0x000000000051e82a        0x6 00
 .rodata        0x000000000051e830       0x40 /home/liyupeng/zengyao/6.13/DT-W724V-20140311/output/host/usr/mips-unknown-linux-uclibc/sysroot/lib/libtelnetdcms.a(telnetdcmsmsgproc.o)
 .rodata.str1.4
                0x000000000051e870       0xff /home/liyupeng/zengyao/6.13/DT-W724V-20140311/output/host/usr/mips-unknown-linux-uclibc/sysroot/lib/libtr111cms.a(tr111cmsmsgproc.o)
                                        0x188 (size before relaxing)
 *fill*         0x000000000051e96f        0x1 00
 .rodata.str1.4
                0x000000000051e970       0x7c /home/liyupeng/zengyao/6.13/DT-W724V-20140311/output/host/usr/mips-unknown-linux-uclibc/sysroot/lib/libtr232cms.a(ipdrcms.o)
                                         0xb4 (size before relaxing)
 .rodata.str1.4
                0x000000000051e9ec      0x14f /home/liyupeng/zengyao/6.13/DT-W724V-20140311/output/host/usr/mips-unknown-linux-uclibc/sysroot/lib/libtr232cms.a(ipdrcmsmsgproc.o)
                                        0x178 (size before relaxing)
 *fill*         0x000000000051eb3b        0x1 00
 .rodata.str1.4
                0x000000000051eb3c      0x1ba /home/liyupeng/zengyao/6.13/DT-W724V-20140311/output/host/usr/mips-unknown-linux-uclibc/sysroot/lib/libtraceroutecms.a(traceroutecmsmsgproc.o)
                                        0x26c (size before relaxing)
 *fill*         0x000000000051ecf6        0xa 00
 .rodata        0x000000000051ed00       0x20 /home/liyupeng/zengyao/6.13/DT-W724V-20140311/output/host/usr/mips-unknown-linux-uclibc/sysroot/lib/libtraceroutecms.a(traceroutecmsmsgproc.o)
 .rodata.str1.4
                0x0000000000000000        0x8 /home/liyupeng/zengyao/6.13/DT-W724V-20140311/output/host/usr/mips-unknown-linux-uclibc/sysroot/lib/libupnpcms.a(upnpcms.o)
 .rodata.str1.4
                0x000000000051ed20       0x27 /home/liyupeng/zengyao/6.13/DT-W724V-20140311/output/host/usr/mips-unknown-linux-uclibc/sysroot/lib/libuserintfcms.a(userintfcmsmsgproc.o)
                                         0x68 (size before relaxing)
 *fill*         0x000000000051ed47        0x1 00
 .rodata.str1.4
                0x000000000051ed48      0x185 /home/liyupeng/zengyao/6.13/DT-W724V-20140311/output/host/usr/mips-unknown-linux-uclibc/sysroot/lib/libwebcms.a(webcmsmsgproc.o)
                                        0x1b8 (size before relaxing)
 *fill*         0x000000000051eecd        0x3 00
 .rodata.str1.4
                0x000000000051eed0       0x79 /home/liyupeng/zengyao/6.13/DT-W724V-20140311/output/host/usr/mips-unknown-linux-uclibc/sysroot/lib/libbridgeportcms.a(bridgeportcmsapi.o)
                                         0x9c (size before relaxing)
 .rodata.str1.4
                0x0000000000000000        0x4 /home/liyupeng/zengyao/6.13/DT-W724V-20140311/output/host/usr/mips-unknown-linux-uclibc/sysroot/lib/libbridgeportcms.a(bridgeportcms.o)
 *fill*         0x000000000051ef49        0x3 00
 .rodata.str1.4
                0x000000000051ef4c       0x19 /home/liyupeng/zengyao/6.13/DT-W724V-20140311/output/host/usr/mips-unknown-linux-uclibc/sysroot/lib/libbridgeportcms.a(bridgingcmsinit.o)
                                         0x1c (size before relaxing)
 *fill*         0x000000000051ef65        0x3 00
 .rodata.str1.4
                0x000000000051ef68      0x10b /home/liyupeng/zengyao/6.13/DT-W724V-20140311/output/host/usr/mips-unknown-linux-uclibc/sysroot/lib/libbridgeportcms.a(bridgingfiltercmsapi.o)
                                        0x128 (size before relaxing)
 *fill*         0x000000000051f073        0x1 00
 .rodata.str1.4
                0x000000000051f074       0x93 /home/liyupeng/zengyao/6.13/DT-W724V-20140311/output/host/usr/mips-unknown-linux-uclibc/sysroot/lib/libbridgeportcms.a(bridgingfiltercmsinit.o)
                                         0x98 (size before relaxing)
 *fill*         0x000000000051f107        0x1 00
 .rodata.str1.4
                0x000000000051f108       0x4d /home/liyupeng/zengyao/6.13/DT-W724V-20140311/output/host/usr/mips-unknown-linux-uclibc/sysroot/lib/libbridgeportcms.a(bridgingfiltercmsmsgproc.o)
                                         0x7c (size before relaxing)
 *fill*         0x000000000051f155        0x3 00
 .rodata.str1.4
                0x000000000051f158       0x29 /home/liyupeng/zengyao/6.13/DT-W724V-20140311/output/host/usr/mips-unknown-linux-uclibc/sysroot/lib/libbridgeportcms.a(bridgingfilteroptions.o)
                                         0x58 (size before relaxing)
 *fill*         0x000000000051f181        0x3 00
 .rodata.str1.4
                0x000000000051f184      0x575 /home/liyupeng/zengyao/6.13/DT-W724V-20140311/output/host/usr/mips-unknown-linux-uclibc/sysroot/lib/libipv6commoncms.a(ipv6commoncms.o)
                                        0x590 (size before relaxing)
 *fill*         0x000000000051f6f9        0x3 00
 .rodata.str1.4
                0x000000000051f6fc      0x16b /home/liyupeng/zengyao/6.13/DT-W724V-20140311/output/host/usr/mips-unknown-linux-uclibc/sysroot/lib/libipv6commoncms.a(ipv6commoncmsproc.o)
                                        0x1c0 (size before relaxing)
 *fill*         0x000000000051f867        0x1 00
 .rodata.str1.4
                0x000000000051f868      0x19b /home/liyupeng/zengyao/6.13/DT-W724V-20140311/output/host/usr/mips-unknown-linux-uclibc/sysroot/lib/libddnscms.a(ddnscms.o)
                                        0x1fc (size before relaxing)
 *fill*         0x000000000051fa03        0x1 00
 .rodata.str1.4
                0x000000000051fa04       0x36 /home/liyupeng/zengyao/6.13/DT-W724V-20140311/output/host/usr/mips-unknown-linux-uclibc/sysroot/lib/libddnscms.a(ddnscmsmsgproc.o)
                                         0x38 (size before relaxing)
 .rodata.str1.4
                0x0000000000000000       0x50 /home/liyupeng/zengyao/6.13/DT-W724V-20140311/output/host/usr/mips-unknown-linux-uclibc/sysroot/lib/libddnscms.a(ddnscmsapi.o)
 *fill*         0x000000000051fa3a        0x2 00
 .rodata.str1.4
                0x000000000051fa3c       0xd7 /home/liyupeng/zengyao/6.13/DT-W724V-20140311/output/host/usr/mips-unknown-linux-uclibc/sysroot/lib/libdhcp6ccms.a(dhcp6ccms.o)
                                        0x10c (size before relaxing)
 *fill*         0x000000000051fb13        0x1 00
 .rodata.str1.4
                0x000000000051fb14      0x81d /home/liyupeng/zengyao/6.13/DT-W724V-20140311/output/host/usr/mips-unknown-linux-uclibc/sysroot/lib/libdhcp6ccms.a(dhcp6ccmsmsgproc.o)
                                        0x8c8 (size before relaxing)
 *fill*         0x0000000000520331        0xf 00
 .rodata        0x0000000000520340       0x20 /home/liyupeng/zengyao/6.13/DT-W724V-20140311/output/host/usr/mips-unknown-linux-uclibc/sysroot/lib/libdhcp6ccms.a(dhcp6ccmsmsgproc.o)
 .rodata.str1.4
                0x0000000000520360      0xa5e /home/liyupeng/zengyao/6.13/DT-W724V-20140311/output/host/usr/mips-unknown-linux-uclibc/sysroot/lib/libdhcp6scms.a(dhcp6scms.o)
                                        0xb7c (size before relaxing)
 *fill*         0x0000000000520dbe        0x2 00
 .rodata.str1.4
                0x0000000000520dc0       0x2c /home/liyupeng/zengyao/6.13/DT-W724V-20140311/output/host/usr/mips-unknown-linux-uclibc/sysroot/lib/libdhcp6scms.a(dhcp6scmsinit.o)
                                         0x48 (size before relaxing)
 .rodata.str1.4
                0x0000000000520dec       0x4f /home/liyupeng/zengyao/6.13/DT-W724V-20140311/output/host/usr/mips-unknown-linux-uclibc/sysroot/lib/libdhcp6scms.a(dhcp6scmsapi.o)
                                         0x6c (size before relaxing)
 *fill*         0x0000000000520e3b        0x1 00
 .rodata.str1.4
                0x0000000000520e3c      0x594 /home/liyupeng/zengyao/6.13/DT-W724V-20140311/output/host/usr/mips-unknown-linux-uclibc/sysroot/lib/libdhcp6scms.a(dhcp6scmsproctr181.o)
                                        0x664 (size before relaxing)
 .rodata.str1.4
                0x00000000005213d0      0x202 /home/liyupeng/zengyao/6.13/DT-W724V-20140311/output/host/usr/mips-unknown-linux-uclibc/sysroot/lib/libdhcpccms.a(dhcpccmsmsgproc.o)
                                        0x244 (size before relaxing)
 *fill*         0x00000000005215d2        0xe 00
 .rodata        0x00000000005215e0       0x20 /home/liyupeng/zengyao/6.13/DT-W724V-20140311/output/host/usr/mips-unknown-linux-uclibc/sysroot/lib/libdhcpccms.a(dhcpccmsmsgproc.o)
 .rodata.str1.4
                0x0000000000521600       0xf4 /home/liyupeng/zengyao/6.13/DT-W724V-20140311/output/host/usr/mips-unknown-linux-uclibc/sysroot/lib/libdhcpccms.a(dhcpccms.o)
                                        0x17c (size before relaxing)
 .rodata.str1.4
                0x00000000005216f4       0x30 /home/liyupeng/zengyao/6.13/DT-W724V-20140311/output/host/usr/mips-unknown-linux-uclibc/sysroot/lib/libdhcpscms.a(lanapi.o)
                                         0x44 (size before relaxing)
 .rodata.str1.4
                0x0000000000521724      0x200 /home/liyupeng/zengyao/6.13/DT-W724V-20140311/output/host/usr/mips-unknown-linux-uclibc/sysroot/lib/libdhcpscms.a(lanutil.o)
                                        0x258 (size before relaxing)
 .rodata.str1.4
                0x0000000000521924       0x5e /home/liyupeng/zengyao/6.13/DT-W724V-20140311/output/host/usr/mips-unknown-linux-uclibc/sysroot/lib/libdhcpscms.a(dhcpscmsinit.o)
                                         0x90 (size before relaxing)
 *fill*         0x0000000000521982        0xe 00
 .rodata        0x0000000000521990       0x10 /home/liyupeng/zengyao/6.13/DT-W724V-20140311/output/host/usr/mips-unknown-linux-uclibc/sysroot/lib/libdhcpscms.a(dhcpscmsinit.o)
 .rodata.str1.4
                0x0000000000000000        0x8 /home/liyupeng/zengyao/6.13/DT-W724V-20140311/output/host/usr/mips-unknown-linux-uclibc/sysroot/lib/libdhcpscms.a(dhcpscmsnotifymngr.o)
 .rodata.str1.4
                0x00000000005219a0       0x86 /home/liyupeng/zengyao/6.13/DT-W724V-20140311/output/host/usr/mips-unknown-linux-uclibc/sysroot/lib/libdhcpscms.a(dhcpscmsmsgproc.o)
                                         0x88 (size before relaxing)
 *fill*         0x0000000000521a26        0x2 00
 .rodata.str1.4
                0x0000000000521a28       0x21 /home/liyupeng/zengyao/6.13/DT-W724V-20140311/output/host/usr/mips-unknown-linux-uclibc/sysroot/lib/libdhcpscms.a(dhcpscms_tr181.o)
                                         0x34 (size before relaxing)
 *fill*         0x0000000000521a49        0x3 00
 .rodata.str1.4
                0x0000000000521a4c       0x39 /home/liyupeng/zengyao/6.13/DT-W724V-20140311/output/host/usr/mips-unknown-linux-uclibc/sysroot/lib/libdnscms.a(dnscmsinit.o)
                                         0x48 (size before relaxing)
 *fill*         0x0000000000521a85        0x3 00
 .rodata.str1.4
                0x0000000000521a88      0x305 /home/liyupeng/zengyao/6.13/DT-W724V-20140311/output/host/usr/mips-unknown-linux-uclibc/sysroot/lib/libdnscms.a(dnscms.o)
                                        0x334 (size before relaxing)
 *fill*         0x0000000000521d8d        0x3 00
 .rodata        0x0000000000521d90       0xa0 /home/liyupeng/zengyao/6.13/DT-W724V-20140311/output/host/usr/mips-unknown-linux-uclibc/sysroot/lib/libdnscms.a(dnscms.o)
 .rodata.str1.4
                0x0000000000521e30       0xd5 /home/liyupeng/zengyao/6.13/DT-W724V-20140311/output/host/usr/mips-unknown-linux-uclibc/sysroot/lib/libdnscms.a(dnscmsdb.o)
                                        0x130 (size before relaxing)
 *fill*         0x0000000000521f05        0x3 00
 .rodata.str1.4
                0x0000000000521f08      0x1ed /home/liyupeng/zengyao/6.13/DT-W724V-20140311/output/host/usr/mips-unknown-linux-uclibc/sysroot/lib/libdnsdiagcms.a(dnsdiagcmsmsgproc.o)
                                        0x24c (size before relaxing)
 *fill*         0x00000000005220f5        0x3 00
 .rodata.str1.4
                0x00000000005220f8       0xd5 /home/liyupeng/zengyao/6.13/DT-W724V-20140311/output/host/usr/mips-unknown-linux-uclibc/sysroot/lib/libethintfcms.a(ethintfcmsapi.o)
                                        0x124 (size before relaxing)
 *fill*         0x00000000005221cd        0x3 00
 .rodata.str1.4
                0x00000000005221d0      0x4ad /home/liyupeng/zengyao/6.13/DT-W724V-20140311/output/host/usr/mips-unknown-linux-uclibc/sysroot/lib/libethintfcms.a(ethintfcmsutil.o)
                                        0x4b8 (size before relaxing)
 *fill*         0x000000000052267d        0x3 00
 .rodata.str1.4
                0x0000000000522680       0x3e /home/liyupeng/zengyao/6.13/DT-W724V-20140311/output/host/usr/mips-unknown-linux-uclibc/sysroot/lib/libethintfcms.a(ethintfcmsmsgproc.o)
                                         0x40 (size before relaxing)
 *fill*         0x00000000005226be        0x2 00
 .rodata.str1.4
                0x00000000005226c0      0x451 /home/liyupeng/zengyao/6.13/DT-W724V-20140311/output/host/usr/mips-unknown-linux-uclibc/sysroot/lib/libethlinkcms.a(ethlinkcmsapi.o)
                                        0x53c (size before relaxing)
 *fill*         0x0000000000522b11        0x3 00
 .rodata.str1.4
                0x0000000000522b14     0x4147 /home/liyupeng/zengyao/6.13/DT-W724V-20140311/output/host/usr/mips-unknown-linux-uclibc/sysroot/lib/libfirewallcmsdt.a(firewallcmsdt.o)
                                       0x4178 (size before relaxing)
 *fill*         0x0000000000526c5b        0x5 00
 .rodata        0x0000000000526c60      0x150 /home/liyupeng/zengyao/6.13/DT-W724V-20140311/output/host/usr/mips-unknown-linux-uclibc/sysroot/lib/libfirewallcmsdt.a(firewallcmsdt.o)
 .rodata.str1.4
                0x0000000000526db0       0x71 /home/liyupeng/zengyao/6.13/DT-W724V-20140311/output/host/usr/mips-unknown-linux-uclibc/sysroot/lib/libfirewallcmsdt.a(fwfilterapi.o)
                                         0x78 (size before relaxing)
 *fill*         0x0000000000526e21        0x3 00
 .rodata.str1.4
                0x0000000000526e24      0xc41 /home/liyupeng/zengyao/6.13/DT-W724V-20140311/output/host/usr/mips-unknown-linux-uclibc/sysroot/lib/libfirewallcmsdt.a(fwfilterutil.o)
                                        0xcd4 (size before relaxing)
 *fill*         0x0000000000527a65        0xb 00
 .rodata        0x0000000000527a70       0x20 /home/liyupeng/zengyao/6.13/DT-W724V-20140311/output/host/usr/mips-unknown-linux-uclibc/sysroot/lib/libfirewallcmsdt.a(fwfilterutil.o)
 .rodata.str1.4
                0x0000000000527a90       0x76 /home/liyupeng/zengyao/6.13/DT-W724V-20140311/output/host/usr/mips-unknown-linux-uclibc/sysroot/lib/libfirewallcmsdt.a(abuseapi.o)
                                         0x84 (size before relaxing)
 *fill*         0x0000000000527b06        0xa 00
 .rodata        0x0000000000527b10       0x30 /home/liyupeng/zengyao/6.13/DT-W724V-20140311/output/host/usr/mips-unknown-linux-uclibc/sysroot/lib/libfirewallcmsdt.a(abuseapi.o)
 .rodata.str1.4
                0x0000000000527b40      0x331 /home/liyupeng/zengyao/6.13/DT-W724V-20140311/output/host/usr/mips-unknown-linux-uclibc/sysroot/lib/libfirewallcmsdt.a(abuseutil.o)
                                        0x448 (size before relaxing)
 *fill*         0x0000000000527e71        0xf 00
 .rodata        0x0000000000527e80       0x20 /home/liyupeng/zengyao/6.13/DT-W724V-20140311/output/host/usr/mips-unknown-linux-uclibc/sysroot/lib/libfirewallcmsdt.a(abuseutil.o)
 .rodata.str1.4
                0x0000000000527ea0       0x26 /home/liyupeng/zengyao/6.13/DT-W724V-20140311/output/host/usr/mips-unknown-linux-uclibc/sysroot/lib/libfirewallcmsdt.a(timeruleflushfcctl.o)
                                         0x2c (size before relaxing)
 *fill*         0x0000000000527ec6        0x2 00
 .rodata.str1.4
                0x0000000000527ec8     0x1745 /home/liyupeng/zengyao/6.13/DT-W724V-20140311/output/host/usr/mips-unknown-linux-uclibc/sysroot/lib/libfoncms.a(foncms.o)
                                       0x17d0 (size before relaxing)
 *fill*         0x000000000052960d        0x3 00
 .rodata        0x0000000000529610      0x270 /home/liyupeng/zengyao/6.13/DT-W724V-20140311/output/host/usr/mips-unknown-linux-uclibc/sysroot/lib/libfoncms.a(foncms.o)
 .rodata.str1.4
                0x0000000000529880     0x1249 /home/liyupeng/zengyao/6.13/DT-W724V-20140311/output/host/usr/mips-unknown-linux-uclibc/sysroot/lib/libfoncms.a(foncmsmsgproc.o)
                                       0x1410 (size before relaxing)
 *fill*         0x000000000052aac9        0x7 00
 .rodata        0x000000000052aad0      0x190 /home/liyupeng/zengyao/6.13/DT-W724V-20140311/output/host/usr/mips-unknown-linux-uclibc/sysroot/lib/libfoncms.a(foncmsmsgproc.o)
 .rodata.str1.4
                0x000000000052ac60      0x401 /home/liyupeng/zengyao/6.13/DT-W724V-20140311/output/host/usr/mips-unknown-linux-uclibc/sysroot/lib/libhybridcms.a(hybridcms.o)
                                        0x4ec (size before relaxing)
 *fill*         0x000000000052b061        0xf 00
 .rodata        0x000000000052b070       0xd0 /home/liyupeng/zengyao/6.13/DT-W724V-20140311/output/host/usr/mips-unknown-linux-uclibc/sysroot/lib/libhybridcms.a(hybridcms.o)
 .rodata.str1.4
                0x000000000052b140     0x1ff0 /home/liyupeng/zengyao/6.13/DT-W724V-20140311/output/host/usr/mips-unknown-linux-uclibc/sysroot/lib/libhybridcms.a(hybridcmsfilter.o)
                                       0x2100 (size before relaxing)
 .rodata        0x000000000052d130      0x1a0 /home/liyupeng/zengyao/6.13/DT-W724V-20140311/output/host/usr/mips-unknown-linux-uclibc/sysroot/lib/libhybridcms.a(hybridcmsfilter.o)
 .rodata.str1.4
                0x000000000052d2d0       0x18 /home/liyupeng/zengyao/6.13/DT-W724V-20140311/output/host/usr/mips-unknown-linux-uclibc/sysroot/lib/libigmpcms.a(igmpcmsmsgproc.o)
 .rodata.str1.4
                0x000000000052d2e8       0xb5 /home/liyupeng/zengyao/6.13/DT-W724V-20140311/output/host/usr/mips-unknown-linux-uclibc/sysroot/lib/libigmpcms.a(igmpcms.o)
                                        0x158 (size before relaxing)
 *fill*         0x000000000052d39d        0x3 00
 .rodata        0x000000000052d3a0       0x30 /home/liyupeng/zengyao/6.13/DT-W724V-20140311/output/host/usr/mips-unknown-linux-uclibc/sysroot/lib/libigmpcms.a(igmpcms.o)
 .rodata.str1.4
                0x000000000052d3d0       0x35 /home/liyupeng/zengyao/6.13/DT-W724V-20140311/output/host/usr/mips-unknown-linux-uclibc/sysroot/lib/libipcheckcms.a(ipcheckcms.o)
                                         0x3c (size before relaxing)
 .rodata.str1.4
                0x0000000000000000        0x8 /home/liyupeng/zengyao/6.13/DT-W724V-20140311/output/host/usr/mips-unknown-linux-uclibc/sysroot/lib/libipcheckcms.a(ipcheckcmsinit.o)
 *fill*         0x000000000052d405        0x3 00
 .rodata.str1.4
                0x000000000052d408       0x15 /home/liyupeng/zengyao/6.13/DT-W724V-20140311/output/host/usr/mips-unknown-linux-uclibc/sysroot/lib/libipcheckcms.a(ipcheckcmsmsgproc.o)
                                         0x18 (size before relaxing)
 *fill*         0x000000000052d41d        0x3 00
 .rodata.str1.4
                0x000000000052d420      0x63b /home/liyupeng/zengyao/6.13/DT-W724V-20140311/output/host/usr/mips-unknown-linux-uclibc/sysroot/lib/libipintfcms.a(ipintfcmsapi.o)
                                        0x7ac (size before relaxing)
 *fill*         0x000000000052da5b        0x1 00
 .rodata.str1.4
                0x000000000052da5c       0x2b /home/liyupeng/zengyao/6.13/DT-W724V-20140311/output/host/usr/mips-unknown-linux-uclibc/sysroot/lib/libipintfcms.a(ipintfcmsget.o)
                                        0x180 (size before relaxing)
 .rodata.str1.4
                0x0000000000000000        0x8 /home/liyupeng/zengyao/6.13/DT-W724V-20140311/output/host/usr/mips-unknown-linux-uclibc/sysroot/lib/libipintfcms.a(ipintfcmsset.o)
 *fill*         0x000000000052da87        0x1 00
 .rodata.str1.4
                0x000000000052da88      0x10b /home/liyupeng/zengyao/6.13/DT-W724V-20140311/output/host/usr/mips-unknown-linux-uclibc/sysroot/lib/libipintfcms.a(ipintfcmsint.o)
                                        0x1c4 (size before relaxing)
 *fill*         0x000000000052db93        0x1 00
 .rodata.str1.4
                0x000000000052db94        0x9 /home/liyupeng/zengyao/6.13/DT-W724V-20140311/output/host/usr/mips-unknown-linux-uclibc/sysroot/lib/libiptunnelcms.a(iptunnelcmsapi.o)
                                         0x1c (size before relaxing)
 *fill*         0x000000000052db9d        0x3 00
 .rodata.str1.4
                0x000000000052dba0       0x42 /home/liyupeng/zengyao/6.13/DT-W724V-20140311/output/host/usr/mips-unknown-linux-uclibc/sysroot/lib/libiptunnelcms.a(iptunnelcms.o)
                                         0x9c (size before relaxing)
 *fill*         0x000000000052dbe2        0x2 00
 .rodata.str1.4
                0x000000000052dbe4        0xd /home/liyupeng/zengyao/6.13/DT-W724V-20140311/output/host/usr/mips-unknown-linux-uclibc/sysroot/lib/liblannamecms.a(lannamecms.o)
                                         0x24 (size before relaxing)
 *fill*         0x000000000052dbf1        0x3 00
 .rodata.str1.4
                0x000000000052dbf4       0x3a /home/liyupeng/zengyao/6.13/DT-W724V-20140311/output/host/usr/mips-unknown-linux-uclibc/sysroot/lib/libltecms.a(lteprofile.o)
                                         0x50 (size before relaxing)
 *fill*         0x000000000052dc2e        0x2 00
 .rodata.str1.4
                0x000000000052dc30       0x76 /home/liyupeng/zengyao/6.13/DT-W724V-20140311/output/host/usr/mips-unknown-linux-uclibc/sysroot/lib/libltecms.a(ltecmssimcard.o)
                                         0x90 (size before relaxing)
 *fill*         0x000000000052dca6        0x2 00
 .rodata.str1.4
                0x000000000052dca8      0x1c3 /home/liyupeng/zengyao/6.13/DT-W724V-20140311/output/host/usr/mips-unknown-linux-uclibc/sysroot/lib/libltecms.a(ltecmswminfo.o)
                                        0x200 (size before relaxing)
 *fill*         0x000000000052de6b        0x5 00
 .rodata        0x000000000052de70       0x80 /home/liyupeng/zengyao/6.13/DT-W724V-20140311/output/host/usr/mips-unknown-linux-uclibc/sysroot/lib/libltecms.a(ltecmswminfo.o)
 .rodata.str1.4
                0x000000000052def0       0x61 /home/liyupeng/zengyao/6.13/DT-W724V-20140311/output/host/usr/mips-unknown-linux-uclibc/sysroot/lib/libltecms.a(ltesmartcardreader.o)
                                         0x98 (size before relaxing)
 *fill*         0x000000000052df51        0x3 00
 .rodata.str1.4
                0x000000000052df54       0x1b /home/liyupeng/zengyao/6.13/DT-W724V-20140311/output/host/usr/mips-unknown-linux-uclibc/sysroot/lib/libltecms.a(ltecmsmsgproc.o)
                                         0x20 (size before relaxing)
 *fill*         0x000000000052df6f        0x1 00
 .rodata.str1.4
                0x000000000052df70      0x3fe /home/liyupeng/zengyao/6.13/DT-W724V-20140311/output/host/usr/mips-unknown-linux-uclibc/sysroot/lib/libltecms.a(ltecmsapi.o)
                                        0x4a0 (size before relaxing)
 *fill*         0x000000000052e36e        0x2 00
 .rodata.str1.4
                0x000000000052e370       0x83 /home/liyupeng/zengyao/6.13/DT-W724V-20140311/output/host/usr/mips-unknown-linux-uclibc/sysroot/lib/libltecms.a(ltecmsmobile.o)
                                         0xd8 (size before relaxing)
 *fill*         0x000000000052e3f3        0xd 00
 .rodata        0x000000000052e400      0x290 /home/liyupeng/zengyao/6.13/DT-W724V-20140311/output/host/usr/mips-unknown-linux-uclibc/sysroot/lib/libltecms.a(ltecmsmobile.o)
 .rodata.str1.4
                0x000000000052e690       0xf7 /home/liyupeng/zengyao/6.13/DT-W724V-20140311/output/host/usr/mips-unknown-linux-uclibc/sysroot/lib/libmldcms.a(mldcms.o)
                                        0x104 (size before relaxing)
 *fill*         0x000000000052e787        0x1 00
 .rodata.str1.4
                0x000000000052e788       0x41 /home/liyupeng/zengyao/6.13/DT-W724V-20140311/output/host/usr/mips-unknown-linux-uclibc/sysroot/lib/libmldcms.a(mldcmsmsgproc.o)
                                         0x5c (size before relaxing)
 *fill*         0x000000000052e7c9        0x3 00
 .rodata.str1.4
                0x000000000052e7cc      0x867 /home/liyupeng/zengyao/6.13/DT-W724V-20140311/output/host/usr/mips-unknown-linux-uclibc/sysroot/lib/libnatcms.a(natcmsmsgproc.o)
                                        0x9d0 (size before relaxing)
 *fill*         0x000000000052f033        0xd 00
 .rodata        0x000000000052f040       0x50 /home/liyupeng/zengyao/6.13/DT-W724V-20140311/output/host/usr/mips-unknown-linux-uclibc/sysroot/lib/libnatcms.a(natcmsmsgproc.o)
 .rodata.str1.4
                0x000000000052f090     0x1d0e /home/liyupeng/zengyao/6.13/DT-W724V-20140311/output/host/usr/mips-unknown-linux-uclibc/sysroot/lib/libnatcms.a(natcms.o)
                                       0x1e1c (size before relaxing)
 *fill*         0x0000000000530d9e        0x2 00
 .rodata        0x0000000000530da0       0x20 /home/liyupeng/zengyao/6.13/DT-W724V-20140311/output/host/usr/mips-unknown-linux-uclibc/sysroot/lib/libnatcms.a(natutil.o)
 .rodata.str1.4
                0x0000000000000000        0x8 /home/liyupeng/zengyao/6.13/DT-W724V-20140311/output/host/usr/mips-unknown-linux-uclibc/sysroot/lib/libnatcms.a(natutil.o)
 .rodata.str1.4
                0x0000000000530dc0      0x6ab /home/liyupeng/zengyao/6.13/DT-W724V-20140311/output/host/usr/mips-unknown-linux-uclibc/sysroot/lib/libnatcms.a(natportmap.o)
                                        0x77c (size before relaxing)
 *fill*         0x000000000053146b        0x1 00
 .rodata.str1.4
                0x000000000053146c      0x36d /home/liyupeng/zengyao/6.13/DT-W724V-20140311/output/host/usr/mips-unknown-linux-uclibc/sysroot/lib/libnatcms.a(prttrgutil.o)
                                        0x480 (size before relaxing)
 *fill*         0x00000000005317d9        0x7 00
 .rodata        0x00000000005317e0       0x20 /home/liyupeng/zengyao/6.13/DT-W724V-20140311/output/host/usr/mips-unknown-linux-uclibc/sysroot/lib/libnatcms.a(prttrgutil.o)
 .rodata.str1.4
                0x0000000000531800       0x57 /home/liyupeng/zengyao/6.13/DT-W724V-20140311/output/host/usr/mips-unknown-linux-uclibc/sysroot/lib/libnatcms.a(natcmsctclean.o)
                                         0xb4 (size before relaxing)
 *fill*         0x0000000000531857        0x9 00
 .rodata        0x0000000000531860      0x420 /home/liyupeng/zengyao/6.13/DT-W724V-20140311/output/host/usr/mips-unknown-linux-uclibc/sysroot/lib/libnatcms.a(natcmsctclean.o)
 .rodata.str1.4
                0x0000000000531c80      0x42b /home/liyupeng/zengyao/6.13/DT-W724V-20140311/output/host/usr/mips-unknown-linux-uclibc/sysroot/lib/libndiscms.a(ndiscmsmsgproc.o)
                                        0x4c0 (size before relaxing)
 *fill*         0x00000000005320ab        0x5 00
 .rodata        0x00000000005320b0       0x20 /home/liyupeng/zengyao/6.13/DT-W724V-20140311/output/host/usr/mips-unknown-linux-uclibc/sysroot/lib/libndiscms.a(ndiscmsmsgproc.o)
 .rodata.str1.4
                0x00000000005320d0      0x296 /home/liyupeng/zengyao/6.13/DT-W724V-20140311/output/host/usr/mips-unknown-linux-uclibc/sysroot/lib/libneighdisccms.a(neighdisccms.o)
                                        0x2f8 (size before relaxing)
 *fill*         0x0000000000532366        0x2 00
 .rodata.str1.4
                0x0000000000532368      0x59c /home/liyupeng/zengyao/6.13/DT-W724V-20140311/output/host/usr/mips-unknown-linux-uclibc/sysroot/lib/libpppccms.a(pppcapi.o)
                                        0x710 (size before relaxing)
 .rodata.str1.4
                0x0000000000532904      0x219 /home/liyupeng/zengyao/6.13/DT-W724V-20140311/output/host/usr/mips-unknown-linux-uclibc/sysroot/lib/libpppintfcms.a(pppintfcmsinit.o)
                                        0x2b4 (size before relaxing)
 *fill*         0x0000000000532b1d        0x3 00
 .rodata        0x0000000000532b20       0x20 /home/liyupeng/zengyao/6.13/DT-W724V-20140311/output/host/usr/mips-unknown-linux-uclibc/sysroot/lib/libpppintfcms.a(pppintfcmsinit.o)
 .rodata.str1.4
                0x0000000000532b40      0x143 /home/liyupeng/zengyao/6.13/DT-W724V-20140311/output/host/usr/mips-unknown-linux-uclibc/sysroot/lib/libpppintfcms.a(pppintfcms.o)
                                        0x1f8 (size before relaxing)
 *fill*         0x0000000000532c83        0x1 00
 .rodata.str1.4
                0x0000000000532c84      0x2b4 /home/liyupeng/zengyao/6.13/DT-W724V-20140311/output/host/usr/mips-unknown-linux-uclibc/sysroot/lib/libpppintfcms.a(pppintfcmsmsg.o)
                                        0x430 (size before relaxing)
 *fill*         0x0000000000532f38        0x8 00
 .rodata        0x0000000000532f40       0x20 /home/liyupeng/zengyao/6.13/DT-W724V-20140311/output/host/usr/mips-unknown-linux-uclibc/sysroot/lib/libpppintfcms.a(pppintfcmsmsg.o)
 .rodata.str1.4
                0x0000000000532f60       0x3d /home/liyupeng/zengyao/6.13/DT-W724V-20140311/output/host/usr/mips-unknown-linux-uclibc/sysroot/lib/libpppintfcms.a(pppintfcmsadapt.o)
                                         0x94 (size before relaxing)
 *fill*         0x0000000000532f9d        0x3 00
 .rodata.str1.4
                0x0000000000532fa0       0x9b /home/liyupeng/zengyao/6.13/DT-W724V-20140311/output/host/usr/mips-unknown-linux-uclibc/sysroot/lib/libprivacybtncms.a(privacybtncmsmsgproc.o)
                                         0xd8 (size before relaxing)
 *fill*         0x000000000053303b        0x1 00
 .rodata.str1.4
                0x000000000053303c       0x70 /home/liyupeng/zengyao/6.13/DT-W724V-20140311/output/host/usr/mips-unknown-linux-uclibc/sysroot/lib/libprivacybtncms.a(privacybtncms.o)
                                         0x88 (size before relaxing)
 .rodata.str1.4
                0x00000000005330ac      0x255 /home/liyupeng/zengyao/6.13/DT-W724V-20140311/output/host/usr/mips-unknown-linux-uclibc/sysroot/lib/libdtqoscms.a(qosapi.o)
                                        0x274 (size before relaxing)
 *fill*         0x0000000000533301        0x3 00
 .rodata.str1.4
                0x0000000000533304      0xaae /home/liyupeng/zengyao/6.13/DT-W724V-20140311/output/host/usr/mips-unknown-linux-uclibc/sysroot/lib/libdtqoscms.a(qosconfig.o)
                                        0xac4 (size before relaxing)
 *fill*         0x0000000000533db2        0x2 00
 .rodata.str1.4
                0x0000000000533db4      0xeff /home/liyupeng/zengyao/6.13/DT-W724V-20140311/output/host/usr/mips-unknown-linux-uclibc/sysroot/lib/libradvdcms.a(radvdcms.o)
                                       0x1178 (size before relaxing)
 *fill*         0x0000000000534cb3        0x5 00
 .rodata.cst8   0x0000000000534cb8        0x8 /home/liyupeng/zengyao/6.13/DT-W724V-20140311/output/host/usr/mips-unknown-linux-uclibc/sysroot/lib/libradvdcms.a(radvdcms.o)
 .rodata.str1.4
                0x0000000000534cc0       0xa2 /home/liyupeng/zengyao/6.13/DT-W724V-20140311/output/host/usr/mips-unknown-linux-uclibc/sysroot/lib/libradvdcms.a(radvdcmsinit.o)
                                        0x100 (size before relaxing)
 *fill*         0x0000000000534d62        0x2 00
 .rodata.str1.4
                0x0000000000534d64      0x15f /home/liyupeng/zengyao/6.13/DT-W724V-20140311/output/host/usr/mips-unknown-linux-uclibc/sysroot/lib/libradvdcms.a(radvdcmsmsgproc.o)
                                        0x25c (size before relaxing)
 *fill*         0x0000000000534ec3        0x1 00
 .rodata.str1.4
                0x0000000000534ec4       0x4c /home/liyupeng/zengyao/6.13/DT-W724V-20140311/output/host/usr/mips-unknown-linux-uclibc/sysroot/lib/libradvdcms.a(radvdcmsapi.o)
                                        0x138 (size before relaxing)
 .rodata.str1.4
                0x0000000000534f10      0x144 /home/liyupeng/zengyao/6.13/DT-W724V-20140311/output/host/usr/mips-unknown-linux-uclibc/sysroot/lib/libradvdcms.a(radvdcmsmsgproctr181.o)
                                        0x358 (size before relaxing)
 .rodata.cst8   0x0000000000000000        0x8 /home/liyupeng/zengyao/6.13/DT-W724V-20140311/output/host/usr/mips-unknown-linux-uclibc/sysroot/lib/libradvdcms.a(radvdcmsmsgproctr181.o)
 .rodata.str1.4
                0x0000000000535054      0x71e /home/liyupeng/zengyao/6.13/DT-W724V-20140311/output/host/usr/mips-unknown-linux-uclibc/sysroot/lib/libroute6cms.a(route6cms.o)
                                        0x82c (size before relaxing)
 *fill*         0x0000000000535772        0x2 00
 .rodata.str1.4
                0x0000000000535774       0x28 /home/liyupeng/zengyao/6.13/DT-W724V-20140311/output/host/usr/mips-unknown-linux-uclibc/sysroot/lib/libroute6cms.a(route6cmsmsgproc.o)
 .rodata.str1.4
                0x000000000053579c      0x33e /home/liyupeng/zengyao/6.13/DT-W724V-20140311/output/host/usr/mips-unknown-linux-uclibc/sysroot/lib/libroute6cms.a(route6cmsapi.o)
                                        0x444 (size before relaxing)
 *fill*         0x0000000000535ada        0x2 00
 .rodata.str1.4
                0x0000000000535adc      0x32c /home/liyupeng/zengyao/6.13/DT-W724V-20140311/output/host/usr/mips-unknown-linux-uclibc/sysroot/lib/libroutecms.a(routecmsmsgproc.o)
                                        0x3f0 (size before relaxing)
 .rodata.str1.4
                0x0000000000535e08       0x20 /home/liyupeng/zengyao/6.13/DT-W724V-20140311/output/host/usr/mips-unknown-linux-uclibc/sysroot/lib/libroutecms.a(routecmsinit.o)
                                         0x28 (size before relaxing)
 .rodata.str1.4
                0x0000000000535e28       0x49 /home/liyupeng/zengyao/6.13/DT-W724V-20140311/output/host/usr/mips-unknown-linux-uclibc/sysroot/lib/libroutecms.a(routecms.o)
                                         0xd0 (size before relaxing)
 *fill*         0x0000000000535e71        0x3 00
 .rodata.str1.4
                0x0000000000535e74      0x5a5 /home/liyupeng/zengyao/6.13/DT-W724V-20140311/output/host/usr/mips-unknown-linux-uclibc/sysroot/lib/libroutecms.a(routedft.o)
                                        0x6b0 (size before relaxing)
 *fill*         0x0000000000536419        0x7 00
 .rodata        0x0000000000536420       0x40 /home/liyupeng/zengyao/6.13/DT-W724V-20140311/output/host/usr/mips-unknown-linux-uclibc/sysroot/lib/libroutecms.a(routedft.o)
 .rodata.str1.4
                0x0000000000536460      0x14d /home/liyupeng/zengyao/6.13/DT-W724V-20140311/output/host/usr/mips-unknown-linux-uclibc/sysroot/lib/libroutecms.a(routestatic.o)
                                        0x2c8 (size before relaxing)
 *fill*         0x00000000005365ad        0x3 00
 .rodata.str1.4
                0x00000000005365b0       0x48 /home/liyupeng/zengyao/6.13/DT-W724V-20140311/output/host/usr/mips-unknown-linux-uclibc/sysroot/lib/libroutecms.a(routelist.o)
                                         0x80 (size before relaxing)
 .rodata.str1.4
                0x00000000005365f8      0x246 /home/liyupeng/zengyao/6.13/DT-W724V-20140311/output/host/usr/mips-unknown-linux-uclibc/sysroot/lib/libsntpcms.a(sntpcms.o)
                                        0x298 (size before relaxing)
 *fill*         0x000000000053683e        0x2 00
 .rodata        0x0000000000536840       0x90 /home/liyupeng/zengyao/6.13/DT-W724V-20140311/output/host/usr/mips-unknown-linux-uclibc/sysroot/lib/libsntpcms.a(sntpcmsposixtime.o)
 .rodata.str1.4
                0x00000000005368d0        0x6 /home/liyupeng/zengyao/6.13/DT-W724V-20140311/output/host/usr/mips-unknown-linux-uclibc/sysroot/lib/libsntpcms.a(sntpcmsmsgproc.o)
                                         0x20 (size before relaxing)
 *fill*         0x00000000005368d6        0x2 00
 .rodata.str1.4
                0x00000000005368d8      0x40b /home/liyupeng/zengyao/6.13/DT-W724V-20140311/output/host/usr/mips-unknown-linux-uclibc/sysroot/lib/libvlancms.a(vlancms.o)
                                        0x428 (size before relaxing)
 *fill*         0x0000000000536ce3        0x1 00
 .rodata.str1.4
                0x0000000000536ce4      0x11c /home/liyupeng/zengyao/6.13/DT-W724V-20140311/output/host/usr/mips-unknown-linux-uclibc/sysroot/lib/libvlantermcms.a(vlantermcms.o)
                                        0x188 (size before relaxing)
 .rodata.str1.4
                0x0000000000536e00      0x267 /home/liyupeng/zengyao/6.13/DT-W724V-20140311/output/host/usr/mips-unknown-linux-uclibc/sysroot/lib/libwlancms.a(wlancmsmsgproc.o)
                                        0x2c8 (size before relaxing)
 *fill*         0x0000000000537067        0x9 00
 .rodata        0x0000000000537070      0x230 /home/liyupeng/zengyao/6.13/DT-W724V-20140311/output/host/usr/mips-unknown-linux-uclibc/sysroot/lib/libwlancms.a(wlancmsmsgproc.o)
 .rodata.str1.4
                0x00000000005372a0      0x143 /home/liyupeng/zengyao/6.13/DT-W724V-20140311/output/host/usr/mips-unknown-linux-uclibc/sysroot/lib/libwlancms.a(wlancmsinit.o)
                                        0x198 (size before relaxing)
 *fill*         0x00000000005373e3        0xd 00
 .rodata        0x00000000005373f0       0x10 /home/liyupeng/zengyao/6.13/DT-W724V-20140311/output/host/usr/mips-unknown-linux-uclibc/sysroot/lib/libwlancms.a(wlancmsinit.o)
 .rodata.str1.4
                0x0000000000537400     0x165b /home/liyupeng/zengyao/6.13/DT-W724V-20140311/output/host/usr/mips-unknown-linux-uclibc/sysroot/lib/libwlancms.a(wlan_tr181.o)
                                       0x1848 (size before relaxing)
 *fill*         0x0000000000538a5b        0x5 00
 .rodata        0x0000000000538a60      0x1d0 /home/liyupeng/zengyao/6.13/DT-W724V-20140311/output/host/usr/mips-unknown-linux-uclibc/sysroot/lib/libwlancms.a(wlan_tr181.o)
 .rodata.str1.4
                0x0000000000538c30     0x2bd7 /home/liyupeng/zengyao/6.13/DT-W724V-20140311/output/host/usr/mips-unknown-linux-uclibc/sysroot/lib/libwlanbcmcms.a(wlanbcmcms.o)
                                       0x2ea8 (size before relaxing)
 *fill*         0x000000000053b807        0x9 00
 .rodata        0x000000000053b810       0xe0 /home/liyupeng/zengyao/6.13/DT-W724V-20140311/output/host/usr/mips-unknown-linux-uclibc/sysroot/lib/libwlanbcmcms.a(wlanbcmcms.o)
 .rodata.str1.4
                0x000000000053b8f0       0xe8 /home/liyupeng/zengyao/6.13/DT-W724V-20140311/output/host/usr/mips-unknown-linux-uclibc/sysroot/lib/libwlanbcmcms.a(wlanbcm963268.o)
                                        0x14c (size before relaxing)
 .rodata.str1.4
                0x000000000053b9d8      0x38b /home/liyupeng/zengyao/6.13/DT-W724V-20140311/output/host/usr/mips-unknown-linux-uclibc/sysroot/lib/libwlanbcmcms.a(wlanmonitor.o)
                                        0x3e8 (size before relaxing)
 *fill*         0x000000000053bd63        0xd 00
 .rodata        0x000000000053bd70       0x60 /home/liyupeng/zengyao/6.13/DT-W724V-20140311/output/host/usr/mips-unknown-linux-uclibc/sysroot/lib/libwlanbcmcms.a(wlanmonitor.o)
 .rodata.str1.4
                0x000000000053bdd0      0x6bf /home/liyupeng/zengyao/6.13/DT-W724V-20140311/output/host/usr/mips-unknown-linux-uclibc/sysroot/lib/libatmlinkcms.a(atmlinkcmsapi.o)
                                        0x708 (size before relaxing)
 *fill*         0x000000000053c48f        0x1 00
 .rodata        0x000000000053c490       0x20 /home/liyupeng/zengyao/6.13/DT-W724V-20140311/output/host/usr/mips-unknown-linux-uclibc/sysroot/lib/libatmlinkcms.a(atmlinkcmsapi.o)
 .rodata.str1.4
                0x000000000053c4b0       0xbd /home/liyupeng/zengyao/6.13/DT-W724V-20140311/output/host/usr/mips-unknown-linux-uclibc/sysroot/lib/libatmlinkcms.a(atmlinkdiag.o)
                                         0xd8 (size before relaxing)
 *fill*         0x000000000053c56d        0x3 00
 .rodata.str1.4
                0x000000000053c570      0x3f1 /home/liyupeng/zengyao/6.13/DT-W724V-20140311/output/host/usr/mips-unknown-linux-uclibc/sysroot/lib/libdslchannelcms.a(dslchannelcmsapi.o)
                                        0x4e8 (size before relaxing)
 *fill*         0x000000000053c961        0x3 00
 .rodata.str1.4
                0x000000000053c964      0x127 /home/liyupeng/zengyao/6.13/DT-W724V-20140311/output/host/usr/mips-unknown-linux-uclibc/sysroot/lib/libdslchannelcms.a(dslchanneldiag.o)
                                        0x17c (size before relaxing)
 *fill*         0x000000000053ca8b        0x5 00
 .rodata        0x000000000053ca90       0x10 /home/liyupeng/zengyao/6.13/DT-W724V-20140311/output/host/usr/mips-unknown-linux-uclibc/sysroot/lib/libdslchannelcms.a(dslchanneldiag.o)
 .rodata.str1.4
                0x000000000053caa0      0x5ee /home/liyupeng/zengyao/6.13/DT-W724V-20140311/output/host/usr/mips-unknown-linux-uclibc/sysroot/lib/libdsllinecms.a(dsllinecmsapi.o)
                                        0x9ec (size before relaxing)
 *fill*         0x000000000053d08e        0x2 00
 .rodata.cst8   0x000000000053d090        0x8 /home/liyupeng/zengyao/6.13/DT-W724V-20140311/output/host/usr/mips-unknown-linux-uclibc/sysroot/lib/libdsllinecms.a(dsllinecmsapi.o)
 .rodata.str1.4
                0x000000000053d098      0x227 /home/liyupeng/zengyao/6.13/DT-W724V-20140311/output/host/usr/mips-unknown-linux-uclibc/sysroot/lib/libptmlinkcms.a(ptmlinkcmsapi.o)
                                        0x2bc (size before relaxing)
 *fill*         0x000000000053d2bf        0x1 00
 .rodata.str1.4
                0x000000000053d2c0      0x541 /home/liyupeng/zengyao/6.13/DT-W724V-20140311/output/host/usr/mips-unknown-linux-uclibc/sysroot/lib/libdtvoicecms.a(voiceapi.o)
                                        0x5e4 (size before relaxing)
 *fill*         0x000000000053d801        0xf 00
 .rodata        0x000000000053d810      0x140 /home/liyupeng/zengyao/6.13/DT-W724V-20140311/output/host/usr/mips-unknown-linux-uclibc/sysroot/lib/libdtvoicecms.a(voiceapi.o)
 .rodata.str1.4
                0x000000000053d950      0x4cc /home/liyupeng/zengyao/6.13/DT-W724V-20140311/output/host/usr/mips-unknown-linux-uclibc/sysroot/lib/libdtvoicecms.a(voicecms.o)
                                        0x584 (size before relaxing)
 *fill*         0x000000000053de1c        0x4 00
 .rodata        0x000000000053de20      0x730 /home/liyupeng/zengyao/6.13/DT-W724V-20140311/output/host/usr/mips-unknown-linux-uclibc/sysroot/lib/libdtvoicecms.a(voicecms.o)
 .rodata.str1.4
                0x000000000053e550       0x5a /home/liyupeng/zengyao/6.13/DT-W724V-20140311/output/host/usr/mips-unknown-linux-uclibc/sysroot/lib/libdtvoicecms.a(voiceutil.o)
                                         0xd4 (size before relaxing)
 *fill*         0x000000000053e5aa        0x6 00
 .rodata        0x000000000053e5b0      0x100 /home/liyupeng/zengyao/6.13/DT-W724V-20140311/output/host/usr/mips-unknown-linux-uclibc/sysroot/lib/libdtvoicecms.a(voiceutil.o)
 .rodata.str1.4
                0x000000000053e6b0       0xaa /home/liyupeng/zengyao/6.13/DT-W724V-20140311/output/host/usr/mips-unknown-linux-uclibc/sysroot/lib/libdtvoicecms.a(voicecfg.o)
                                         0xec (size before relaxing)
 *fill*         0x000000000053e75a        0x6 00
 .rodata        0x000000000053e760      0x100 /home/liyupeng/zengyao/6.13/DT-W724V-20140311/output/host/usr/mips-unknown-linux-uclibc/sysroot/lib/libdtvoicecms.a(voicecfg.o)
 .rodata.str1.4
                0x0000000000000000        0x8 /home/liyupeng/zengyao/6.13/DT-W724V-20140311/output/host/usr/mips-unknown-linux-uclibc/sysroot/lib/libdtvoicecms.a(IniParser.o)
 .rodata.str1.4
                0x000000000053e860      0x78c /home/liyupeng/zengyao/6.13/DT-W724V-20140311/output/host/usr/mips-unknown-linux-uclibc/sysroot/lib/libdtvoicecms.a(voicecmsmsgproc.o)
                                        0x7e0 (size before relaxing)
 *fill*         0x000000000053efec        0x4 00
 .rodata        0x000000000053eff0       0x40 /home/liyupeng/zengyao/6.13/DT-W724V-20140311/output/host/usr/mips-unknown-linux-uclibc/sysroot/lib/libdtvoicecms.a(voicecmsmsgproc.o)
 .rodata.str1.4
                0x0000000000000000       0x14 /home/liyupeng/zengyao/6.13/DT-W724V-20140311/output/host/usr/mips-unknown-linux-uclibc/sysroot/lib/libnetpbcms.a(netphonebookapi.o)
 .rodata.str1.4
                0x000000000053f030      0x43d /home/liyupeng/zengyao/6.13/DT-W724V-20140311/output/host/usr/mips-unknown-linux-uclibc/sysroot/lib/librsscms.a(rssapi.o)
                                        0x48c (size before relaxing)
 *fill*         0x000000000053f46d        0x3 00
 .rodata        0x000000000053f470      0x7e0 /home/liyupeng/zengyao/6.13/DT-W724V-20140311/output/host/usr/mips-unknown-linux-uclibc/sysroot/lib/librsscms.a(rssapi.o)
 .rodata.str1.4
                0x000000000053fc50       0xd5 /home/liyupeng/zengyao/6.13/DT-W724V-20140311/output/host/usr/mips-unknown-linux-uclibc/sysroot/lib/libemailcms.a(emailapi.o)
                                        0x120 (size before relaxing)
 *fill*         0x000000000053fd25        0x3 00
 .rodata.str1.4
                0x000000000053fd28      0x13c /home/liyupeng/zengyao/6.13/DT-W724V-20140311/output/host/usr/mips-unknown-linux-uclibc/sysroot/lib/libemailcms.a(emailcms.o)
                                        0x1c8 (size before relaxing)
 *fill*         0x000000000053fe64        0x4 00
 .rodata.cst8   0x000000000053fe68        0x8 /opt/toolchains/crosstools-mips-gcc-4.6-linux-3.4-uclibc-0.9.32-binutils-2.21/usr/lib/gcc/mips-unknown-linux-uclibc/4.6.2/libgcc.a(_fixunsdfsi.o)
 .rodata        0x000000000053fe70       0x20 /opt/toolchains/crosstools-mips-gcc-4.6-linux-3.4-uclibc-0.9.32-binutils-2.21/usr/lib/gcc/mips-unknown-linux-uclibc/4.6.2/libgcc.a(_thenan_df.o)
                0x000000000053fe70                __thenan_df

.rodata1
 *(.rodata1)

.sdata2
 *(.sdata2 .sdata2.* .gnu.linkonce.s2.*)

.sbss2
 *(.sbss2 .sbss2.* .gnu.linkonce.sb2.*)

.eh_frame_hdr   0x000000000053fe90       0x1c
 *(.eh_frame_hdr)
 .eh_frame_hdr  0x000000000053fe90       0x1c /opt/toolchains/crosstools-mips-gcc-4.6-linux-3.4-uclibc-0.9.32-binutils-2.21/usr/lib/gcc/mips-unknown-linux-uclibc/4.6.2/libgcc.a(_udivdi3.o)

.eh_frame       0x000000000053feac       0x40
 *(.eh_frame)
 .eh_frame      0x000000000053feac        0x0 /opt/toolchains/crosstools-mips-gcc-4.6-linux-3.4-uclibc-0.9.32-binutils-2.21/usr/lib/gcc/mips-unknown-linux-uclibc/4.6.2/crtbegin.o
 .eh_frame      0x000000000053feac       0x28 /opt/toolchains/crosstools-mips-gcc-4.6-linux-3.4-uclibc-0.9.32-binutils-2.21/usr/lib/gcc/mips-unknown-linux-uclibc/4.6.2/libgcc.a(_udivdi3.o)
 .eh_frame      0x000000000053fed4       0x14 /opt/toolchains/crosstools-mips-gcc-4.6-linux-3.4-uclibc-0.9.32-binutils-2.21/usr/lib/gcc/mips-unknown-linux-uclibc/4.6.2/libgcc.a(_umoddi3.o)
                                         0x28 (size before relaxing)
 .eh_frame      0x000000000053fee8        0x4 /opt/toolchains/crosstools-mips-gcc-4.6-linux-3.4-uclibc-0.9.32-binutils-2.21/usr/lib/gcc/mips-unknown-linux-uclibc/4.6.2/crtend.o

.gcc_except_table
 *(.gcc_except_table .gcc_except_table.*)
                0x000000000053feec                . = (ALIGN (0x10000) - ((0x10000 - .) & 0xffff))
                0x0000000000540000                . = DATA_SEGMENT_ALIGN (0x10000, 0x1000)

.eh_frame
 *(.eh_frame)

.gcc_except_table
 *(.gcc_except_table .gcc_except_table.*)

.tdata
 *(.tdata .tdata.* .gnu.linkonce.td.*)

.tbss
 *(.tbss .tbss.* .gnu.linkonce.tb.*)
 *(.tcommon)

.preinit_array  0x0000000000540000        0x0
                0x0000000000540000                PROVIDE (__preinit_array_start, .)
 *(.preinit_array)
                0x0000000000540000                PROVIDE (__preinit_array_end, .)

.init_array     0x0000000000540000        0x0
                0x0000000000540000                PROVIDE (__init_array_start, .)
 *(SORT(.init_array.*))
 *(.init_array)
                0x0000000000540000                PROVIDE (__init_array_end, .)

.fini_array     0x0000000000540000        0x0
                0x0000000000540000                PROVIDE (__fini_array_start, .)
 *(SORT(.fini_array.*))
 *(.fini_array)
                0x0000000000540000                PROVIDE (__fini_array_end, .)

.ctors          0x0000000000540000      0x15c
 *crtbegin.o(.ctors)
 .ctors         0x0000000000540000        0x4 /opt/toolchains/crosstools-mips-gcc-4.6-linux-3.4-uclibc-0.9.32-binutils-2.21/usr/lib/gcc/mips-unknown-linux-uclibc/4.6.2/crtbegin.o
 *crtbegin?.o(.ctors)
 *(EXCLUDE_FILE(*crtend?.o *crtend.o) .ctors)
 .ctors         0x0000000000540004        0x4 /home/liyupeng/zengyao/6.13/DT-W724V-20140311/output/package/atp/configuration/cmsmain/management.o
 .ctors         0x0000000000540008        0x4 /home/liyupeng/zengyao/6.13/DT-W724V-20140311/output/host/usr/mips-unknown-linux-uclibc/sysroot/lib/libcmscore.a(cmsmsgproc.o)
 .ctors         0x000000000054000c        0x4 /home/liyupeng/zengyao/6.13/DT-W724V-20140311/output/host/usr/mips-unknown-linux-uclibc/sysroot/lib/libinterfacecore.a(intfstack.o)
 .ctors         0x0000000000540010        0x4 /home/liyupeng/zengyao/6.13/DT-W724V-20140311/output/host/usr/mips-unknown-linux-uclibc/sysroot/lib/libdmscms.a(dmscmsmsgproc.o)
 .ctors         0x0000000000540014        0x4 /home/liyupeng/zengyao/6.13/DT-W724V-20140311/output/host/usr/mips-unknown-linux-uclibc/sysroot/lib/libledservicecms.a(ledserviceini.o)
 .ctors         0x0000000000540018        0x4 /home/liyupeng/zengyao/6.13/DT-W724V-20140311/output/host/usr/mips-unknown-linux-uclibc/sysroot/lib/libnascms.a(nascms.o)
 .ctors         0x000000000054001c        0x4 /home/liyupeng/zengyao/6.13/DT-W724V-20140311/output/host/usr/mips-unknown-linux-uclibc/sysroot/lib/liboamcms.a(oamcms.o)
 .ctors         0x0000000000540020        0x4 /home/liyupeng/zengyao/6.13/DT-W724V-20140311/output/host/usr/mips-unknown-linux-uclibc/sysroot/lib/libtr143cms.a(tr143cmsmsgproc.o)
 .ctors         0x0000000000540024        0x4 /home/liyupeng/zengyao/6.13/DT-W724V-20140311/output/host/usr/mips-unknown-linux-uclibc/sysroot/lib/libusbmngrcms.a(usbmngrcmsproc.o)
 .ctors         0x0000000000540028        0x4 /home/liyupeng/zengyao/6.13/DT-W724V-20140311/output/host/usr/mips-unknown-linux-uclibc/sysroot/lib/libusbmountcms.a(usbmntcmsmsgproc.o)
 .ctors         0x000000000054002c        0x4 /home/liyupeng/zengyao/6.13/DT-W724V-20140311/output/host/usr/mips-unknown-linux-uclibc/sysroot/lib/libcupscms.a(cupscms.o)
 .ctors         0x0000000000540030        0x4 /home/liyupeng/zengyao/6.13/DT-W724V-20140311/output/host/usr/mips-unknown-linux-uclibc/sysroot/lib/libusbstoragecms.a(usbstoragecmsmsgproc.o)
 .ctors         0x0000000000540034        0x4 /home/liyupeng/zengyao/6.13/DT-W724V-20140311/output/host/usr/mips-unknown-linux-uclibc/sysroot/lib/libftpservercms.a(ftpservercmsmsgproc.o)
 .ctors         0x0000000000540038        0x4 /home/liyupeng/zengyao/6.13/DT-W724V-20140311/output/host/usr/mips-unknown-linux-uclibc/sysroot/lib/libcwmpcms.a(cwmpcmsmsgproc.o)
 .ctors         0x000000000054003c        0x4 /home/liyupeng/zengyao/6.13/DT-W724V-20140311/output/host/usr/mips-unknown-linux-uclibc/sysroot/lib/libcwmpcms.a(cwmpschdwlmsgproc.o)
 .ctors         0x0000000000540040        0x4 /home/liyupeng/zengyao/6.13/DT-W724V-20140311/output/host/usr/mips-unknown-linux-uclibc/sysroot/lib/libippingcms.a(ippingcmsmsgproc.o)
 .ctors         0x0000000000540044        0x4 /home/liyupeng/zengyao/6.13/DT-W724V-20140311/output/host/usr/mips-unknown-linux-uclibc/sysroot/lib/liblogcms.a(logcmsmsgproc.o)
 .ctors         0x0000000000540048        0x4 /home/liyupeng/zengyao/6.13/DT-W724V-20140311/output/host/usr/mips-unknown-linux-uclibc/sysroot/lib/libmiccms.a(miccmsmsgproc.o)
 .ctors         0x000000000054004c        0x4 /home/liyupeng/zengyao/6.13/DT-W724V-20140311/output/host/usr/mips-unknown-linux-uclibc/sysroot/lib/libsysinfocms.a(sysinfocmsmsgproc.o)
 .ctors         0x0000000000540050        0x4 /home/liyupeng/zengyao/6.13/DT-W724V-20140311/output/host/usr/mips-unknown-linux-uclibc/sysroot/lib/libsysinfocms.a(sysperiodicstatistics.o)
 .ctors         0x0000000000540054        0x4 /home/liyupeng/zengyao/6.13/DT-W724V-20140311/output/host/usr/mips-unknown-linux-uclibc/sysroot/lib/libtelnetdcms.a(telnetdcmsmsgproc.o)
 .ctors         0x0000000000540058        0x4 /home/liyupeng/zengyao/6.13/DT-W724V-20140311/output/host/usr/mips-unknown-linux-uclibc/sysroot/lib/libtr111cms.a(tr111cmsmsgproc.o)
 .ctors         0x000000000054005c        0x4 /home/liyupeng/zengyao/6.13/DT-W724V-20140311/output/host/usr/mips-unknown-linux-uclibc/sysroot/lib/libtr232cms.a(ipdrcmsmsgproc.o)
 .ctors         0x0000000000540060        0x4 /home/liyupeng/zengyao/6.13/DT-W724V-20140311/output/host/usr/mips-unknown-linux-uclibc/sysroot/lib/libtraceroutecms.a(traceroutecmsmsgproc.o)
 .ctors         0x0000000000540064        0x4 /home/liyupeng/zengyao/6.13/DT-W724V-20140311/output/host/usr/mips-unknown-linux-uclibc/sysroot/lib/libupnpcms.a(upnpcms.o)
 .ctors         0x0000000000540068        0x4 /home/liyupeng/zengyao/6.13/DT-W724V-20140311/output/host/usr/mips-unknown-linux-uclibc/sysroot/lib/libuserintfcms.a(userintfcmsmsgproc.o)
 .ctors         0x000000000054006c        0x4 /home/liyupeng/zengyao/6.13/DT-W724V-20140311/output/host/usr/mips-unknown-linux-uclibc/sysroot/lib/libwebcms.a(webcmsmsgproc.o)
 .ctors         0x0000000000540070        0x4 /home/liyupeng/zengyao/6.13/DT-W724V-20140311/output/host/usr/mips-unknown-linux-uclibc/sysroot/lib/libbridgeportcms.a(bridgeportcmsapi.o)
 .ctors         0x0000000000540074        0x4 /home/liyupeng/zengyao/6.13/DT-W724V-20140311/output/host/usr/mips-unknown-linux-uclibc/sysroot/lib/libbridgeportcms.a(bridgingcmsinit.o)
 .ctors         0x0000000000540078        0x4 /home/liyupeng/zengyao/6.13/DT-W724V-20140311/output/host/usr/mips-unknown-linux-uclibc/sysroot/lib/libbridgeportcms.a(bridgingfiltercmsmsgproc.o)
 .ctors         0x000000000054007c        0x4 /home/liyupeng/zengyao/6.13/DT-W724V-20140311/output/host/usr/mips-unknown-linux-uclibc/sysroot/lib/libipv6commoncms.a(ipv6commoncmsproc.o)
 .ctors         0x0000000000540080        0x4 /home/liyupeng/zengyao/6.13/DT-W724V-20140311/output/host/usr/mips-unknown-linux-uclibc/sysroot/lib/libddnscms.a(ddnscmsmsgproc.o)
 .ctors         0x0000000000540084        0x4 /home/liyupeng/zengyao/6.13/DT-W724V-20140311/output/host/usr/mips-unknown-linux-uclibc/sysroot/lib/libddnscms.a(ddnscmsapi.o)
 .ctors         0x0000000000540088        0x4 /home/liyupeng/zengyao/6.13/DT-W724V-20140311/output/host/usr/mips-unknown-linux-uclibc/sysroot/lib/libdhcp6ccms.a(dhcp6ccms.o)
 .ctors         0x000000000054008c        0x4 /home/liyupeng/zengyao/6.13/DT-W724V-20140311/output/host/usr/mips-unknown-linux-uclibc/sysroot/lib/libdhcp6ccms.a(dhcp6ccmsmsgproc.o)
 .ctors         0x0000000000540090        0x4 /home/liyupeng/zengyao/6.13/DT-W724V-20140311/output/host/usr/mips-unknown-linux-uclibc/sysroot/lib/libdhcp6scms.a(dhcp6scmsproctr181.o)
 .ctors         0x0000000000540094        0x4 /home/liyupeng/zengyao/6.13/DT-W724V-20140311/output/host/usr/mips-unknown-linux-uclibc/sysroot/lib/libdhcpccms.a(dhcpccmsmsgproc.o)
 .ctors         0x0000000000540098        0x4 /home/liyupeng/zengyao/6.13/DT-W724V-20140311/output/host/usr/mips-unknown-linux-uclibc/sysroot/lib/libdhcpscms.a(dhcpscmsmsgproc.o)
 .ctors         0x000000000054009c        0x4 /home/liyupeng/zengyao/6.13/DT-W724V-20140311/output/host/usr/mips-unknown-linux-uclibc/sysroot/lib/libdnscms.a(dnscmsinit.o)
 .ctors         0x00000000005400a0        0x4 /home/liyupeng/zengyao/6.13/DT-W724V-20140311/output/host/usr/mips-unknown-linux-uclibc/sysroot/lib/libdnscms.a(dnscmsdb.o)
 .ctors         0x00000000005400a4        0x4 /home/liyupeng/zengyao/6.13/DT-W724V-20140311/output/host/usr/mips-unknown-linux-uclibc/sysroot/lib/libdnsdiagcms.a(dnsdiagcmsmsgproc.o)
 .ctors         0x00000000005400a8        0x4 /home/liyupeng/zengyao/6.13/DT-W724V-20140311/output/host/usr/mips-unknown-linux-uclibc/sysroot/lib/libethintfcms.a(ethintfcmsapi.o)
 .ctors         0x00000000005400ac        0x4 /home/liyupeng/zengyao/6.13/DT-W724V-20140311/output/host/usr/mips-unknown-linux-uclibc/sysroot/lib/libethintfcms.a(ethintfcmsmsgproc.o)
 .ctors         0x00000000005400b0        0x4 /home/liyupeng/zengyao/6.13/DT-W724V-20140311/output/host/usr/mips-unknown-linux-uclibc/sysroot/lib/libethlinkcms.a(ethlinkcmsapi.o)
 .ctors         0x00000000005400b4        0x4 /home/liyupeng/zengyao/6.13/DT-W724V-20140311/output/host/usr/mips-unknown-linux-uclibc/sysroot/lib/libfirewallcmsdt.a(firewallcmsdt.o)
 .ctors         0x00000000005400b8        0x4 /home/liyupeng/zengyao/6.13/DT-W724V-20140311/output/host/usr/mips-unknown-linux-uclibc/sysroot/lib/libfirewallcmsdt.a(fwfilterapi.o)
 .ctors         0x00000000005400bc        0x4 /home/liyupeng/zengyao/6.13/DT-W724V-20140311/output/host/usr/mips-unknown-linux-uclibc/sysroot/lib/libfirewallcmsdt.a(abuseapi.o)
 .ctors         0x00000000005400c0        0x4 /home/liyupeng/zengyao/6.13/DT-W724V-20140311/output/host/usr/mips-unknown-linux-uclibc/sysroot/lib/libfirewallcmsdt.a(timeruleflushfcctl.o)
 .ctors         0x00000000005400c4        0x4 /home/liyupeng/zengyao/6.13/DT-W724V-20140311/output/host/usr/mips-unknown-linux-uclibc/sysroot/lib/libfoncms.a(foncmsmsgproc.o)
 .ctors         0x00000000005400c8        0x4 /home/liyupeng/zengyao/6.13/DT-W724V-20140311/output/host/usr/mips-unknown-linux-uclibc/sysroot/lib/libhybridcms.a(hybridcms.o)
 .ctors         0x00000000005400cc        0x4 /home/liyupeng/zengyao/6.13/DT-W724V-20140311/output/host/usr/mips-unknown-linux-uclibc/sysroot/lib/libhybridcms.a(hybridcmsfilter.o)
 .ctors         0x00000000005400d0        0x4 /home/liyupeng/zengyao/6.13/DT-W724V-20140311/output/host/usr/mips-unknown-linux-uclibc/sysroot/lib/libigmpcms.a(igmpcmsmsgproc.o)
 .ctors         0x00000000005400d4        0x4 /home/liyupeng/zengyao/6.13/DT-W724V-20140311/output/host/usr/mips-unknown-linux-uclibc/sysroot/lib/libipcheckcms.a(ipcheckcmsmsgproc.o)
 .ctors         0x00000000005400d8        0x4 /home/liyupeng/zengyao/6.13/DT-W724V-20140311/output/host/usr/mips-unknown-linux-uclibc/sysroot/lib/libipintfcms.a(ipintfcmsapi.o)
 .ctors         0x00000000005400dc        0x4 /home/liyupeng/zengyao/6.13/DT-W724V-20140311/output/host/usr/mips-unknown-linux-uclibc/sysroot/lib/liblannamecms.a(lannamecmsmsgproc.o)
 .ctors         0x00000000005400e0        0x4 /home/liyupeng/zengyao/6.13/DT-W724V-20140311/output/host/usr/mips-unknown-linux-uclibc/sysroot/lib/libltecms.a(ltecmssimcard.o)
 .ctors         0x00000000005400e4        0x4 /home/liyupeng/zengyao/6.13/DT-W724V-20140311/output/host/usr/mips-unknown-linux-uclibc/sysroot/lib/libltecms.a(ltesmartcardreader.o)
 .ctors         0x00000000005400e8        0x4 /home/liyupeng/zengyao/6.13/DT-W724V-20140311/output/host/usr/mips-unknown-linux-uclibc/sysroot/lib/libltecms.a(ltecmsmsgproc.o)
 .ctors         0x00000000005400ec        0x4 /home/liyupeng/zengyao/6.13/DT-W724V-20140311/output/host/usr/mips-unknown-linux-uclibc/sysroot/lib/libltecms.a(ltecmsapi.o)
 .ctors         0x00000000005400f0        0x4 /home/liyupeng/zengyao/6.13/DT-W724V-20140311/output/host/usr/mips-unknown-linux-uclibc/sysroot/lib/libltecms.a(ltecmsmobile.o)
 .ctors         0x00000000005400f4        0x4 /home/liyupeng/zengyao/6.13/DT-W724V-20140311/output/host/usr/mips-unknown-linux-uclibc/sysroot/lib/libmldcms.a(mldcmsmsgproc.o)
 .ctors         0x00000000005400f8        0x4 /home/liyupeng/zengyao/6.13/DT-W724V-20140311/output/host/usr/mips-unknown-linux-uclibc/sysroot/lib/libnatcms.a(natcmsmsgproc.o)
 .ctors         0x00000000005400fc        0x4 /home/liyupeng/zengyao/6.13/DT-W724V-20140311/output/host/usr/mips-unknown-linux-uclibc/sysroot/lib/libndiscms.a(ndiscmsmsgproc.o)
 .ctors         0x0000000000540100        0x4 /home/liyupeng/zengyao/6.13/DT-W724V-20140311/output/host/usr/mips-unknown-linux-uclibc/sysroot/lib/libneighdisccms.a(neighdisccms.o)
 .ctors         0x0000000000540104        0x4 /home/liyupeng/zengyao/6.13/DT-W724V-20140311/output/host/usr/mips-unknown-linux-uclibc/sysroot/lib/libpppintfcms.a(pppintfcmsinit.o)
 .ctors         0x0000000000540108        0x4 /home/liyupeng/zengyao/6.13/DT-W724V-20140311/output/host/usr/mips-unknown-linux-uclibc/sysroot/lib/libprivacybtncms.a(privacybtncmsmsgproc.o)
 .ctors         0x000000000054010c        0x4 /home/liyupeng/zengyao/6.13/DT-W724V-20140311/output/host/usr/mips-unknown-linux-uclibc/sysroot/lib/libdtqoscms.a(qosapi.o)
 .ctors         0x0000000000540110        0x4 /home/liyupeng/zengyao/6.13/DT-W724V-20140311/output/host/usr/mips-unknown-linux-uclibc/sysroot/lib/libradvdcms.a(radvdcms.o)
 .ctors         0x0000000000540114        0x4 /home/liyupeng/zengyao/6.13/DT-W724V-20140311/output/host/usr/mips-unknown-linux-uclibc/sysroot/lib/libradvdcms.a(radvdcmsinit.o)
 .ctors         0x0000000000540118        0x4 /home/liyupeng/zengyao/6.13/DT-W724V-20140311/output/host/usr/mips-unknown-linux-uclibc/sysroot/lib/libradvdcms.a(radvdcmsmsgproc.o)
 .ctors         0x000000000054011c        0x4 /home/liyupeng/zengyao/6.13/DT-W724V-20140311/output/host/usr/mips-unknown-linux-uclibc/sysroot/lib/libradvdcms.a(radvdcmsmsgproctr181.o)
 .ctors         0x0000000000540120        0x4 /home/liyupeng/zengyao/6.13/DT-W724V-20140311/output/host/usr/mips-unknown-linux-uclibc/sysroot/lib/libroute6cms.a(route6cmsmsgproc.o)
 .ctors         0x0000000000540124        0x4 /home/liyupeng/zengyao/6.13/DT-W724V-20140311/output/host/usr/mips-unknown-linux-uclibc/sysroot/lib/libroute6cms.a(route6cmsapi.o)
 .ctors         0x0000000000540128        0x4 /home/liyupeng/zengyao/6.13/DT-W724V-20140311/output/host/usr/mips-unknown-linux-uclibc/sysroot/lib/libroutecms.a(routecmsmsgproc.o)
 .ctors         0x000000000054012c        0x4 /home/liyupeng/zengyao/6.13/DT-W724V-20140311/output/host/usr/mips-unknown-linux-uclibc/sysroot/lib/libsntpcms.a(sntpcms.o)
 .ctors         0x0000000000540130        0x4 /home/liyupeng/zengyao/6.13/DT-W724V-20140311/output/host/usr/mips-unknown-linux-uclibc/sysroot/lib/libsntpcms.a(sntpcmsmsgproc.o)
 .ctors         0x0000000000540134        0x4 /home/liyupeng/zengyao/6.13/DT-W724V-20140311/output/host/usr/mips-unknown-linux-uclibc/sysroot/lib/libvlantermcms.a(vlantermcms.o)
 .ctors         0x0000000000540138        0x4 /home/liyupeng/zengyao/6.13/DT-W724V-20140311/output/host/usr/mips-unknown-linux-uclibc/sysroot/lib/libwlancms.a(wlancmsmsgproc.o)
 .ctors         0x000000000054013c        0x4 /home/liyupeng/zengyao/6.13/DT-W724V-20140311/output/host/usr/mips-unknown-linux-uclibc/sysroot/lib/libatmlinkcms.a(atmlinkcmsapi.o)
 .ctors         0x0000000000540140        0x4 /home/liyupeng/zengyao/6.13/DT-W724V-20140311/output/host/usr/mips-unknown-linux-uclibc/sysroot/lib/libdslchannelcms.a(dslchannelcmsapi.o)
 .ctors         0x0000000000540144        0x4 /home/liyupeng/zengyao/6.13/DT-W724V-20140311/output/host/usr/mips-unknown-linux-uclibc/sysroot/lib/libdsllinecms.a(dsllinecmsapi.o)
 .ctors         0x0000000000540148        0x4 /home/liyupeng/zengyao/6.13/DT-W724V-20140311/output/host/usr/mips-unknown-linux-uclibc/sysroot/lib/libptmlinkcms.a(ptmlinkcmsapi.o)
 .ctors         0x000000000054014c        0x4 /home/liyupeng/zengyao/6.13/DT-W724V-20140311/output/host/usr/mips-unknown-linux-uclibc/sysroot/lib/libdtvoicecms.a(voicecmsmsgproc.o)
 .ctors         0x0000000000540150        0x4 /home/liyupeng/zengyao/6.13/DT-W724V-20140311/output/host/usr/mips-unknown-linux-uclibc/sysroot/lib/librsscms.a(voicersscmsmsgproc.o)
 .ctors         0x0000000000540154        0x4 /home/liyupeng/zengyao/6.13/DT-W724V-20140311/output/host/usr/mips-unknown-linux-uclibc/sysroot/lib/libemailcms.a(voiceemailcmsmsgproc.o)
 *(SORT(.ctors.*))
 *(.ctors)
 .ctors         0x0000000000540158        0x4 /opt/toolchains/crosstools-mips-gcc-4.6-linux-3.4-uclibc-0.9.32-binutils-2.21/usr/lib/gcc/mips-unknown-linux-uclibc/4.6.2/crtend.o

.dtors          0x000000000054015c        0x8
 *crtbegin.o(.dtors)
 .dtors         0x000000000054015c        0x4 /opt/toolchains/crosstools-mips-gcc-4.6-linux-3.4-uclibc-0.9.32-binutils-2.21/usr/lib/gcc/mips-unknown-linux-uclibc/4.6.2/crtbegin.o
 *crtbegin?.o(.dtors)
 *(EXCLUDE_FILE(*crtend?.o *crtend.o) .dtors)
 *(SORT(.dtors.*))
 *(.dtors)
 .dtors         0x0000000000540160        0x4 /opt/toolchains/crosstools-mips-gcc-4.6-linux-3.4-uclibc-0.9.32-binutils-2.21/usr/lib/gcc/mips-unknown-linux-uclibc/4.6.2/crtend.o
                0x0000000000540160                __DTOR_END__

.jcr            0x0000000000540164        0x4
 *(.jcr)
 .jcr           0x0000000000540164        0x0 /opt/toolchains/crosstools-mips-gcc-4.6-linux-3.4-uclibc-0.9.32-binutils-2.21/usr/lib/gcc/mips-unknown-linux-uclibc/4.6.2/crtbegin.o
 .jcr           0x0000000000540164        0x4 /opt/toolchains/crosstools-mips-gcc-4.6-linux-3.4-uclibc-0.9.32-binutils-2.21/usr/lib/gcc/mips-unknown-linux-uclibc/4.6.2/crtend.o

.data.rel.ro    0x0000000000540168      0xf7c
 *(.data.rel.ro.local* .gnu.linkonce.d.rel.ro.local.*)
 .data.rel.ro.local
                0x0000000000540168       0x98 /home/liyupeng/zengyao/6.13/DT-W724V-20140311/output/host/usr/mips-unknown-linux-uclibc/sysroot/lib/libinterfacecore.a(interfaceapi.o)
 .data.rel.ro.local
                0x0000000000540200       0x5c /home/liyupeng/zengyao/6.13/DT-W724V-20140311/output/host/usr/mips-unknown-linux-uclibc/sysroot/lib/libinterfacecore.a(intfstats.o)
                0x0000000000540200                g_stReg
 .data.rel.ro.local
                0x000000000054025c       0x10 /home/liyupeng/zengyao/6.13/DT-W724V-20140311/output/host/usr/mips-unknown-linux-uclibc/sysroot/lib/libinterfacecore.a(intfstack.o)
 .data.rel.ro.local
                0x000000000054026c       0x40 /home/liyupeng/zengyao/6.13/DT-W724V-20140311/output/host/usr/mips-unknown-linux-uclibc/sysroot/lib/libnascms.a(nascms.o)
 .data.rel.ro.local
                0x00000000005402ac       0x38 /home/liyupeng/zengyao/6.13/DT-W724V-20140311/output/host/usr/mips-unknown-linux-uclibc/sysroot/lib/libusbmngrcms.a(usbmngrcmsproc.o)
 .data.rel.ro.local
                0x00000000005402e4       0x24 /home/liyupeng/zengyao/6.13/DT-W724V-20140311/output/host/usr/mips-unknown-linux-uclibc/sysroot/lib/libusbmountcms.a(usbmntcmsmsgproc.o)
 .data.rel.ro.local
                0x0000000000540308        0x8 /home/liyupeng/zengyao/6.13/DT-W724V-20140311/output/host/usr/mips-unknown-linux-uclibc/sysroot/lib/libcupscms.a(cupscms.o)
 .data.rel.ro.local
                0x0000000000540310       0x78 /home/liyupeng/zengyao/6.13/DT-W724V-20140311/output/host/usr/mips-unknown-linux-uclibc/sysroot/lib/libusbstoragecms.a(usbstoragecmsmsgproc.o)
 .data.rel.ro.local
                0x0000000000540388       0x10 /home/liyupeng/zengyao/6.13/DT-W724V-20140311/output/host/usr/mips-unknown-linux-uclibc/sysroot/lib/libcwmpcms.a(cwmpcmsmsgproc.o)
 .data.rel.ro.local
                0x0000000000540398        0x8 /home/liyupeng/zengyao/6.13/DT-W724V-20140311/output/host/usr/mips-unknown-linux-uclibc/sysroot/lib/libtr232cms.a(ipdrcms.o)
 .data.rel.ro.local
                0x00000000005403a0       0x10 /home/liyupeng/zengyao/6.13/DT-W724V-20140311/output/host/usr/mips-unknown-linux-uclibc/sysroot/lib/libtr232cms.a(ipdrcmsmsgproc.o)
 .data.rel.ro.local
                0x00000000005403b0        0x8 /home/liyupeng/zengyao/6.13/DT-W724V-20140311/output/host/usr/mips-unknown-linux-uclibc/sysroot/lib/libuserintfcms.a(userintfcmsmsgproc.o)
 .data.rel.ro.local
                0x00000000005403b8        0x8 /home/liyupeng/zengyao/6.13/DT-W724V-20140311/output/host/usr/mips-unknown-linux-uclibc/sysroot/lib/libwebcms.a(webcmsmsgproc.o)
 .data.rel.ro.local
                0x00000000005403c0       0x3c /home/liyupeng/zengyao/6.13/DT-W724V-20140311/output/host/usr/mips-unknown-linux-uclibc/sysroot/lib/libbridgeportcms.a(bridgeportcmsapi.o)
 .data.rel.ro.local
                0x00000000005403fc       0x10 /home/liyupeng/zengyao/6.13/DT-W724V-20140311/output/host/usr/mips-unknown-linux-uclibc/sysroot/lib/libbridgeportcms.a(bridgingcmsinit.o)
 .data.rel.ro.local
                0x000000000054040c       0x18 /home/liyupeng/zengyao/6.13/DT-W724V-20140311/output/host/usr/mips-unknown-linux-uclibc/sysroot/lib/libbridgeportcms.a(bridgingfiltercmsmsgproc.o)
 .data.rel.ro.local
                0x0000000000540424       0x38 /home/liyupeng/zengyao/6.13/DT-W724V-20140311/output/host/usr/mips-unknown-linux-uclibc/sysroot/lib/libddnscms.a(ddnscms.o)
 .data.rel.ro.local
                0x000000000054045c       0x18 /home/liyupeng/zengyao/6.13/DT-W724V-20140311/output/host/usr/mips-unknown-linux-uclibc/sysroot/lib/libdhcp6ccms.a(dhcp6ccmsmsgproc.o)
 .data.rel.ro.local
                0x0000000000540474        0x8 /home/liyupeng/zengyao/6.13/DT-W724V-20140311/output/host/usr/mips-unknown-linux-uclibc/sysroot/lib/libdhcp6scms.a(dhcp6scmsproctr181.o)
 .data.rel.ro.local
                0x000000000054047c        0x8 /home/liyupeng/zengyao/6.13/DT-W724V-20140311/output/host/usr/mips-unknown-linux-uclibc/sysroot/lib/libdhcpccms.a(dhcpccmsmsgproc.o)
 .data.rel.ro.local
                0x0000000000540484       0x2c /home/liyupeng/zengyao/6.13/DT-W724V-20140311/output/host/usr/mips-unknown-linux-uclibc/sysroot/lib/libdnscms.a(dnscmsdb.o)
 .data.rel.ro.local
                0x00000000005404b0        0x8 /home/liyupeng/zengyao/6.13/DT-W724V-20140311/output/host/usr/mips-unknown-linux-uclibc/sysroot/lib/libdnsdiagcms.a(dnsdiagcmsmsgproc.o)
 .data.rel.ro.local
                0x00000000005404b8       0x44 /home/liyupeng/zengyao/6.13/DT-W724V-20140311/output/host/usr/mips-unknown-linux-uclibc/sysroot/lib/libethintfcms.a(ethintfcmsapi.o)
 .data.rel.ro.local
                0x00000000005404fc        0x8 /home/liyupeng/zengyao/6.13/DT-W724V-20140311/output/host/usr/mips-unknown-linux-uclibc/sysroot/lib/libethlinkcms.a(ethlinkcmsapi.o)
 .data.rel.ro.local
                0x0000000000540504       0x20 /home/liyupeng/zengyao/6.13/DT-W724V-20140311/output/host/usr/mips-unknown-linux-uclibc/sysroot/lib/libfoncms.a(foncmsmsgproc.o)
 .data.rel.ro.local
                0x0000000000540524       0x30 /home/liyupeng/zengyao/6.13/DT-W724V-20140311/output/host/usr/mips-unknown-linux-uclibc/sysroot/lib/libhybridcms.a(hybridcms.o)
 .data.rel.ro.local
                0x0000000000540554       0x50 /home/liyupeng/zengyao/6.13/DT-W724V-20140311/output/host/usr/mips-unknown-linux-uclibc/sysroot/lib/libhybridcms.a(hybridcmsfilter.o)
 .data.rel.ro.local
                0x00000000005405a4       0x7c /home/liyupeng/zengyao/6.13/DT-W724V-20140311/output/host/usr/mips-unknown-linux-uclibc/sysroot/lib/libipintfcms.a(ipintfcmsapi.o)
 .data.rel.ro.local
                0x0000000000540620       0x1c /home/liyupeng/zengyao/6.13/DT-W724V-20140311/output/host/usr/mips-unknown-linux-uclibc/sysroot/lib/libipintfcms.a(ipintfcmsint.o)
 .data.rel.ro.local
                0x000000000054063c       0x20 /home/liyupeng/zengyao/6.13/DT-W724V-20140311/output/host/usr/mips-unknown-linux-uclibc/sysroot/lib/libltecms.a(ltesmartcardreader.o)
 .data.rel.ro.local
                0x000000000054065c       0x10 /home/liyupeng/zengyao/6.13/DT-W724V-20140311/output/host/usr/mips-unknown-linux-uclibc/sysroot/lib/libltecms.a(ltecmsmsgproc.o)
 .data.rel.ro.local
                0x000000000054066c       0x3c /home/liyupeng/zengyao/6.13/DT-W724V-20140311/output/host/usr/mips-unknown-linux-uclibc/sysroot/lib/libltecms.a(ltecmsapi.o)
 .data.rel.ro.local
                0x00000000005406a8       0x10 /home/liyupeng/zengyao/6.13/DT-W724V-20140311/output/host/usr/mips-unknown-linux-uclibc/sysroot/lib/libnatcms.a(natcmsmsgproc.o)
 .data.rel.ro.local
                0x00000000005406b8        0xc /home/liyupeng/zengyao/6.13/DT-W724V-20140311/output/host/usr/mips-unknown-linux-uclibc/sysroot/lib/libnatcms.a(prttrgutil.o)
 .data.rel.ro.local
                0x00000000005406c4       0x18 /home/liyupeng/zengyao/6.13/DT-W724V-20140311/output/host/usr/mips-unknown-linux-uclibc/sysroot/lib/libneighdisccms.a(neighdisccms.o)
 .data.rel.ro.local
                0x00000000005406dc       0x44 /home/liyupeng/zengyao/6.13/DT-W724V-20140311/output/host/usr/mips-unknown-linux-uclibc/sysroot/lib/libpppintfcms.a(pppintfcmsinit.o)
 .data.rel.ro.local
                0x0000000000540720       0x1c /home/liyupeng/zengyao/6.13/DT-W724V-20140311/output/host/usr/mips-unknown-linux-uclibc/sysroot/lib/libpppintfcms.a(pppintfcmsmsg.o)
                0x0000000000540720                m_aszPPPcStatus
 .data.rel.ro.local
                0x000000000054073c        0x8 /home/liyupeng/zengyao/6.13/DT-W724V-20140311/output/host/usr/mips-unknown-linux-uclibc/sysroot/lib/libprivacybtncms.a(privacybtncmsmsgproc.o)
 .data.rel.ro.local
                0x0000000000540744       0x3c /home/liyupeng/zengyao/6.13/DT-W724V-20140311/output/host/usr/mips-unknown-linux-uclibc/sysroot/lib/libradvdcms.a(radvdcms.o)
 .data.rel.ro.local
                0x0000000000540780        0x8 /home/liyupeng/zengyao/6.13/DT-W724V-20140311/output/host/usr/mips-unknown-linux-uclibc/sysroot/lib/libradvdcms.a(radvdcmsmsgproc.o)
 .data.rel.ro.local
                0x0000000000540788       0x20 /home/liyupeng/zengyao/6.13/DT-W724V-20140311/output/host/usr/mips-unknown-linux-uclibc/sysroot/lib/libradvdcms.a(radvdcmsmsgproctr181.o)
 .data.rel.ro.local
                0x00000000005407a8       0x18 /home/liyupeng/zengyao/6.13/DT-W724V-20140311/output/host/usr/mips-unknown-linux-uclibc/sysroot/lib/libroute6cms.a(route6cmsmsgproc.o)
 .data.rel.ro.local
                0x00000000005407c0       0xa4 /home/liyupeng/zengyao/6.13/DT-W724V-20140311/output/host/usr/mips-unknown-linux-uclibc/sysroot/lib/libroutecms.a(routecmsmsgproc.o)
 .data.rel.ro.local
                0x0000000000540864       0x20 /home/liyupeng/zengyao/6.13/DT-W724V-20140311/output/host/usr/mips-unknown-linux-uclibc/sysroot/lib/libsntpcms.a(sntpcms.o)
 .data.rel.ro.local
                0x0000000000540884       0x10 /home/liyupeng/zengyao/6.13/DT-W724V-20140311/output/host/usr/mips-unknown-linux-uclibc/sysroot/lib/libsntpcms.a(sntpcmsmsgproc.o)
 .data.rel.ro.local
                0x0000000000540894       0xe0 /home/liyupeng/zengyao/6.13/DT-W724V-20140311/output/host/usr/mips-unknown-linux-uclibc/sysroot/lib/libwlancms.a(wlan_tr181.o)
 .data.rel.ro.local
                0x0000000000540974       0x10 /home/liyupeng/zengyao/6.13/DT-W724V-20140311/output/host/usr/mips-unknown-linux-uclibc/sysroot/lib/libwlanbcmcms.a(wlanbcmcms.o)
 .data.rel.ro.local
                0x0000000000540984       0x4c /home/liyupeng/zengyao/6.13/DT-W724V-20140311/output/host/usr/mips-unknown-linux-uclibc/sysroot/lib/libatmlinkcms.a(atmlinkcmsapi.o)
 .data.rel.ro.local
                0x00000000005409d0       0x3c /home/liyupeng/zengyao/6.13/DT-W724V-20140311/output/host/usr/mips-unknown-linux-uclibc/sysroot/lib/libptmlinkcms.a(ptmlinkcmsapi.o)
 *(.data.rel.ro* .gnu.linkonce.d.rel.ro.*)
 .data.rel.ro   0x0000000000540a0c       0x8c /home/liyupeng/zengyao/6.13/DT-W724V-20140311/output/package/atp/configuration/cmsmain/cmsinit.o
 .data.rel.ro   0x0000000000540a98       0x18 /home/liyupeng/zengyao/6.13/DT-W724V-20140311/output/host/usr/mips-unknown-linux-uclibc/sysroot/lib/libdmscms.a(dmscmsmsgproc.o)
 .data.rel.ro   0x0000000000540ab0       0x20 /home/liyupeng/zengyao/6.13/DT-W724V-20140311/output/host/usr/mips-unknown-linux-uclibc/sysroot/lib/libtr143cms.a(tr143cmsmsgproc.o)
 .data.rel.ro   0x0000000000540ad0       0x40 /home/liyupeng/zengyao/6.13/DT-W724V-20140311/output/host/usr/mips-unknown-linux-uclibc/sysroot/lib/libusbstoragecms.a(usbstoragecmsmsgproc.o)
 .data.rel.ro   0x0000000000540b10       0x20 /home/liyupeng/zengyao/6.13/DT-W724V-20140311/output/host/usr/mips-unknown-linux-uclibc/sysroot/lib/libcwmpcms.a(cwmpschdwlmsgproc.o)
 .data.rel.ro   0x0000000000540b30       0x10 /home/liyupeng/zengyao/6.13/DT-W724V-20140311/output/host/usr/mips-unknown-linux-uclibc/sysroot/lib/libippingcms.a(ippingcmsmsgproc.o)
 .data.rel.ro   0x0000000000540b40        0x8 /home/liyupeng/zengyao/6.13/DT-W724V-20140311/output/host/usr/mips-unknown-linux-uclibc/sysroot/lib/liblogcms.a(logcmsmsgproc.o)
 .data.rel.ro   0x0000000000540b48       0x50 /home/liyupeng/zengyao/6.13/DT-W724V-20140311/output/host/usr/mips-unknown-linux-uclibc/sysroot/lib/libsysinfocms.a(sysinfocmsmsgproc.o)
 .data.rel.ro   0x0000000000540b98        0x8 /home/liyupeng/zengyao/6.13/DT-W724V-20140311/output/host/usr/mips-unknown-linux-uclibc/sysroot/lib/libtelnetdcms.a(telnetdcmsmsgproc.o)
 .data.rel.ro   0x0000000000540ba0       0x20 /home/liyupeng/zengyao/6.13/DT-W724V-20140311/output/host/usr/mips-unknown-linux-uclibc/sysroot/lib/libtr232cms.a(ipdrcmsmsgproc.o)
 .data.rel.ro   0x0000000000540bc0       0x18 /home/liyupeng/zengyao/6.13/DT-W724V-20140311/output/host/usr/mips-unknown-linux-uclibc/sysroot/lib/libtraceroutecms.a(traceroutecmsmsgproc.o)
 .data.rel.ro   0x0000000000540bd8       0x18 /home/liyupeng/zengyao/6.13/DT-W724V-20140311/output/host/usr/mips-unknown-linux-uclibc/sysroot/lib/libwebcms.a(webcmsmsgproc.o)
 .data.rel.ro   0x0000000000540bf0        0x8 /home/liyupeng/zengyao/6.13/DT-W724V-20140311/output/host/usr/mips-unknown-linux-uclibc/sysroot/lib/libbridgeportcms.a(bridgeportcmsapi.o)
 .data.rel.ro   0x0000000000540bf8       0x10 /home/liyupeng/zengyao/6.13/DT-W724V-20140311/output/host/usr/mips-unknown-linux-uclibc/sysroot/lib/libddnscms.a(ddnscmsmsgproc.o)
 .data.rel.ro   0x0000000000540c08       0x20 /home/liyupeng/zengyao/6.13/DT-W724V-20140311/output/host/usr/mips-unknown-linux-uclibc/sysroot/lib/libdhcp6scms.a(dhcp6scmsproctr181.o)
 .data.rel.ro   0x0000000000540c28       0x38 /home/liyupeng/zengyao/6.13/DT-W724V-20140311/output/host/usr/mips-unknown-linux-uclibc/sysroot/lib/libdhcpscms.a(dhcpscmsmsgproc.o)
 .data.rel.ro   0x0000000000540c60       0x10 /home/liyupeng/zengyao/6.13/DT-W724V-20140311/output/host/usr/mips-unknown-linux-uclibc/sysroot/lib/libdnsdiagcms.a(dnsdiagcmsmsgproc.o)
 .data.rel.ro   0x0000000000540c70       0x44 /home/liyupeng/zengyao/6.13/DT-W724V-20140311/output/host/usr/mips-unknown-linux-uclibc/sysroot/lib/libethlinkcms.a(ethlinkcmsapi.o)
 .data.rel.ro   0x0000000000540cb4       0x28 /home/liyupeng/zengyao/6.13/DT-W724V-20140311/output/host/usr/mips-unknown-linux-uclibc/sysroot/lib/libfirewallcmsdt.a(fwfilterapi.o)
 .data.rel.ro   0x0000000000540cdc       0x18 /home/liyupeng/zengyao/6.13/DT-W724V-20140311/output/host/usr/mips-unknown-linux-uclibc/sysroot/lib/libfirewallcmsdt.a(abuseapi.o)
 .data.rel.ro   0x0000000000540cf4        0x8 /home/liyupeng/zengyao/6.13/DT-W724V-20140311/output/host/usr/mips-unknown-linux-uclibc/sysroot/lib/libigmpcms.a(igmpcmsmsgproc.o)
 .data.rel.ro   0x0000000000540cfc       0x18 /home/liyupeng/zengyao/6.13/DT-W724V-20140311/output/host/usr/mips-unknown-linux-uclibc/sysroot/lib/libipcheckcms.a(ipcheckcmsmsgproc.o)
 .data.rel.ro   0x0000000000540d14       0x10 /home/liyupeng/zengyao/6.13/DT-W724V-20140311/output/host/usr/mips-unknown-linux-uclibc/sysroot/lib/libipintfcms.a(ipintfcmsapi.o)
 .data.rel.ro   0x0000000000540d24       0x20 /home/liyupeng/zengyao/6.13/DT-W724V-20140311/output/host/usr/mips-unknown-linux-uclibc/sysroot/lib/libltecms.a(ltecmssimcard.o)
 .data.rel.ro   0x0000000000540d44        0x8 /home/liyupeng/zengyao/6.13/DT-W724V-20140311/output/host/usr/mips-unknown-linux-uclibc/sysroot/lib/libmldcms.a(mldcmsmsgproc.o)
 .data.rel.ro   0x0000000000540d4c       0x20 /home/liyupeng/zengyao/6.13/DT-W724V-20140311/output/host/usr/mips-unknown-linux-uclibc/sysroot/lib/libnatcms.a(natcmsmsgproc.o)
 .data.rel.ro   0x0000000000540d6c       0x10 /home/liyupeng/zengyao/6.13/DT-W724V-20140311/output/host/usr/mips-unknown-linux-uclibc/sysroot/lib/libpppintfcms.a(pppintfcmsinit.o)
 .data.rel.ro   0x0000000000540d7c       0x10 /home/liyupeng/zengyao/6.13/DT-W724V-20140311/output/host/usr/mips-unknown-linux-uclibc/sysroot/lib/libroutecms.a(routecmsmsgproc.o)
 .data.rel.ro   0x0000000000540d8c       0x44 /home/liyupeng/zengyao/6.13/DT-W724V-20140311/output/host/usr/mips-unknown-linux-uclibc/sysroot/lib/libvlantermcms.a(vlantermcms.o)
 .data.rel.ro   0x0000000000540dd0        0x8 /home/liyupeng/zengyao/6.13/DT-W724V-20140311/output/host/usr/mips-unknown-linux-uclibc/sysroot/lib/libatmlinkcms.a(atmlinkcmsapi.o)
 .data.rel.ro   0x0000000000540dd8       0x64 /home/liyupeng/zengyao/6.13/DT-W724V-20140311/output/host/usr/mips-unknown-linux-uclibc/sysroot/lib/libdslchannelcms.a(dslchannelcmsapi.o)
 .data.rel.ro   0x0000000000540e3c       0x5c /home/liyupeng/zengyao/6.13/DT-W724V-20140311/output/host/usr/mips-unknown-linux-uclibc/sysroot/lib/libdsllinecms.a(dsllinecmsapi.o)
 .data.rel.ro   0x0000000000540e98        0x8 /home/liyupeng/zengyao/6.13/DT-W724V-20140311/output/host/usr/mips-unknown-linux-uclibc/sysroot/lib/libptmlinkcms.a(ptmlinkcmsapi.o)
 .data.rel.ro   0x0000000000540ea0       0x3c /home/liyupeng/zengyao/6.13/DT-W724V-20140311/output/host/usr/mips-unknown-linux-uclibc/sysroot/lib/libdtvoicecms.a(voiceapi.o)
 .data.rel.ro   0x0000000000540edc       0x4c /home/liyupeng/zengyao/6.13/DT-W724V-20140311/output/host/usr/mips-unknown-linux-uclibc/sysroot/lib/libdtvoicecms.a(voicecms.o)
 .data.rel.ro   0x0000000000540f28       0x14 /home/liyupeng/zengyao/6.13/DT-W724V-20140311/output/host/usr/mips-unknown-linux-uclibc/sysroot/lib/libdtvoicecms.a(voicecfg.o)
 .data.rel.ro   0x0000000000540f3c      0x1a8 /home/liyupeng/zengyao/6.13/DT-W724V-20140311/output/host/usr/mips-unknown-linux-uclibc/sysroot/lib/libdtvoicecms.a(voicecmsmsgproc.o)
                0x00000000005410e4                . = DATA_SEGMENT_RELRO_END (., 0x0)

.data           0x00000000005410f0     0x2a40
                0x00000000005410f0                _fdata = .
 *(.data .data.* .gnu.linkonce.d.*)
 .data          0x00000000005410f0       0x10 /home/liyupeng/zengyao/6.13/DT-W724V-20140311/output/host/usr/mips-unknown-linux-uclibc/sysroot/usr/lib/crt1.o
                0x00000000005410f0                data_start
                0x00000000005410f0                __data_start
 .data          0x0000000000541100        0x0 /home/liyupeng/zengyao/6.13/DT-W724V-20140311/output/host/usr/mips-unknown-linux-uclibc/sysroot/usr/lib/crti.o
 .data          0x0000000000541100        0x0 /opt/toolchains/crosstools-mips-gcc-4.6-linux-3.4-uclibc-0.9.32-binutils-2.21/usr/lib/gcc/mips-unknown-linux-uclibc/4.6.2/crtbegin.o
 .data          0x0000000000541100        0x0 /home/liyupeng/zengyao/6.13/DT-W724V-20140311/output/package/atp/configuration/cmsmain/management.o
 .data          0x0000000000541100        0x0 /home/liyupeng/zengyao/6.13/DT-W724V-20140311/output/package/atp/configuration/cmsmain/cmsmonitor.o
 .data          0x0000000000541100        0x0 /home/liyupeng/zengyao/6.13/DT-W724V-20140311/output/package/atp/configuration/cmsmain/cmsinit.o
 .data          0x0000000000541100       0x10 /home/liyupeng/zengyao/6.13/DT-W724V-20140311/output/host/usr/mips-unknown-linux-uclibc/sysroot/lib/libcmscore.a(cmsmsgproc.o)
                0x0000000000541100                g_enCfgTool
 .data          0x0000000000541110        0x0 /home/liyupeng/zengyao/6.13/DT-W724V-20140311/output/host/usr/mips-unknown-linux-uclibc/sysroot/lib/libcmscore.a(cmsutil.o)
 .data.rel.local
                0x0000000000541110      0x408 /home/liyupeng/zengyao/6.13/DT-W724V-20140311/output/host/usr/mips-unknown-linux-uclibc/sysroot/lib/libcmscore.a(cmsutil.o)
 *fill*         0x0000000000541518        0x8 00
 .data          0x0000000000541520        0x0 /home/liyupeng/zengyao/6.13/DT-W724V-20140311/output/host/usr/mips-unknown-linux-uclibc/sysroot/lib/libcmscore.a(cmsinitapi.o)
 .data          0x0000000000541520        0x0 /home/liyupeng/zengyao/6.13/DT-W724V-20140311/output/host/usr/mips-unknown-linux-uclibc/sysroot/lib/libcmscore.a(cmssigqueue.o)
 .data          0x0000000000541520        0x0 /home/liyupeng/zengyao/6.13/DT-W724V-20140311/output/host/usr/mips-unknown-linux-uclibc/sysroot/lib/libinterfacecore.a(interfaceapi.o)
 .data.rel.local
                0x0000000000541520       0x1c /home/liyupeng/zengyao/6.13/DT-W724V-20140311/output/host/usr/mips-unknown-linux-uclibc/sysroot/lib/libinterfacecore.a(interfaceapi.o)
                0x0000000000541520                g_apcIntfStatuses
 *fill*         0x000000000054153c        0x4 00
 .data          0x0000000000541540        0x0 /home/liyupeng/zengyao/6.13/DT-W724V-20140311/output/host/usr/mips-unknown-linux-uclibc/sysroot/lib/libinterfacecore.a(intfstats.o)
 .data          0x0000000000541540        0x0 /home/liyupeng/zengyao/6.13/DT-W724V-20140311/output/host/usr/mips-unknown-linux-uclibc/sysroot/lib/libinterfacecore.a(intfdescriptor.o)
 .data          0x0000000000541540        0x0 /home/liyupeng/zengyao/6.13/DT-W724V-20140311/output/host/usr/mips-unknown-linux-uclibc/sysroot/lib/libinterfacecore.a(intfcfgmsgproc.o)
 .data.rel.local
                0x0000000000541540       0x18 /home/liyupeng/zengyao/6.13/DT-W724V-20140311/output/host/usr/mips-unknown-linux-uclibc/sysroot/lib/libinterfacecore.a(intfcfgmsgproc.o)
 *fill*         0x0000000000541558        0x8 00
 .data          0x0000000000541560        0x0 /home/liyupeng/zengyao/6.13/DT-W724V-20140311/output/host/usr/mips-unknown-linux-uclibc/sysroot/lib/libinterfacecore.a(intfstack.o)
 .data          0x0000000000541560        0x0 /home/liyupeng/zengyao/6.13/DT-W724V-20140311/output/host/usr/mips-unknown-linux-uclibc/sysroot/lib/libdmscms.a(dmscmsmsgproc.o)
 .data          0x0000000000541560        0x0 /home/liyupeng/zengyao/6.13/DT-W724V-20140311/output/host/usr/mips-unknown-linux-uclibc/sysroot/lib/libledservicecms.a(ledserviceini.o)
 .data          0x0000000000541560       0x10 /home/liyupeng/zengyao/6.13/DT-W724V-20140311/output/host/usr/mips-unknown-linux-uclibc/sysroot/lib/libnascms.a(nascms.o)
 .data          0x0000000000541570        0x0 /home/liyupeng/zengyao/6.13/DT-W724V-20140311/output/host/usr/mips-unknown-linux-uclibc/sysroot/lib/liboamcms.a(oamcms.o)
 .data          0x0000000000541570        0x0 /home/liyupeng/zengyao/6.13/DT-W724V-20140311/output/host/usr/mips-unknown-linux-uclibc/sysroot/lib/libtr143cms.a(tr143cmsmsgproc.o)
 .data          0x0000000000541570        0x0 /home/liyupeng/zengyao/6.13/DT-W724V-20140311/output/host/usr/mips-unknown-linux-uclibc/sysroot/lib/libusbmngrcms.a(usbmngrcmsproc.o)
 .data          0x0000000000541570        0x0 /home/liyupeng/zengyao/6.13/DT-W724V-20140311/output/host/usr/mips-unknown-linux-uclibc/sysroot/lib/libusbmountcms.a(usbmntcmsmsgproc.o)
 .data          0x0000000000541570        0x0 /home/liyupeng/zengyao/6.13/DT-W724V-20140311/output/host/usr/mips-unknown-linux-uclibc/sysroot/lib/libusbmountcms.a(usbdiskmonitor.o)
 .data          0x0000000000541570        0x0 /home/liyupeng/zengyao/6.13/DT-W724V-20140311/output/host/usr/mips-unknown-linux-uclibc/sysroot/lib/libusbmountcms.a(usbmntcmsinit.o)
 .data          0x0000000000541570        0x0 /home/liyupeng/zengyao/6.13/DT-W724V-20140311/output/host/usr/mips-unknown-linux-uclibc/sysroot/lib/libcupscms.a(cupscms.o)
 .data          0x0000000000541570       0x10 /home/liyupeng/zengyao/6.13/DT-W724V-20140311/output/host/usr/mips-unknown-linux-uclibc/sysroot/lib/libusbstoragecms.a(usbstoragecmsmsgproc.o)
 .data          0x0000000000541580        0x0 /home/liyupeng/zengyao/6.13/DT-W724V-20140311/output/host/usr/mips-unknown-linux-uclibc/sysroot/lib/libusbstoragecms.a(usbstoragecms.o)
 .data          0x0000000000541580        0x0 /home/liyupeng/zengyao/6.13/DT-W724V-20140311/output/host/usr/mips-unknown-linux-uclibc/sysroot/lib/libusbstoragecms.a(usbstoragecmsinit.o)
 .data          0x0000000000541580        0x0 /home/liyupeng/zengyao/6.13/DT-W724V-20140311/output/host/usr/mips-unknown-linux-uclibc/sysroot/lib/libusbstoragecms.a(usbstorageloginctl.o)
 .data          0x0000000000541580        0x0 /home/liyupeng/zengyao/6.13/DT-W724V-20140311/output/host/usr/mips-unknown-linux-uclibc/sysroot/lib/libftpservercms.a(ftpservercmsmsgproc.o)
 .data          0x0000000000541580       0x10 /home/liyupeng/zengyao/6.13/DT-W724V-20140311/output/host/usr/mips-unknown-linux-uclibc/sysroot/lib/libftpservercms.a(ftpservercms.o)
 .data          0x0000000000541590        0x0 /home/liyupeng/zengyao/6.13/DT-W724V-20140311/output/host/usr/mips-unknown-linux-uclibc/sysroot/lib/libsambacms.a(sambacms.o)
 .data          0x0000000000541590        0x0 /home/liyupeng/zengyao/6.13/DT-W724V-20140311/output/host/usr/mips-unknown-linux-uclibc/sysroot/lib/libsambacms.a(sambacmsmsgproc.o)
 .data          0x0000000000541590        0x0 /home/liyupeng/zengyao/6.13/DT-W724V-20140311/output/host/usr/mips-unknown-linux-uclibc/sysroot/lib/libcwmpcms.a(cwmpcmsmsgproc.o)
 .data.rel      0x0000000000541590       0x10 /home/liyupeng/zengyao/6.13/DT-W724V-20140311/output/host/usr/mips-unknown-linux-uclibc/sysroot/lib/libcwmpcms.a(cwmpcmsmsgproc.o)
 .data          0x00000000005415a0        0x0 /home/liyupeng/zengyao/6.13/DT-W724V-20140311/output/host/usr/mips-unknown-linux-uclibc/sysroot/lib/libcwmpcms.a(cwmpcms.o)
 .data          0x00000000005415a0        0x0 /home/liyupeng/zengyao/6.13/DT-W724V-20140311/output/host/usr/mips-unknown-linux-uclibc/sysroot/lib/libcwmpcms.a(cwmpschdwlmsgproc.o)
 .data          0x00000000005415a0        0x0 /home/liyupeng/zengyao/6.13/DT-W724V-20140311/output/host/usr/mips-unknown-linux-uclibc/sysroot/lib/libippingcms.a(ippingcmsmsgproc.o)
 .data          0x00000000005415a0        0x0 /home/liyupeng/zengyao/6.13/DT-W724V-20140311/output/host/usr/mips-unknown-linux-uclibc/sysroot/lib/liblogcms.a(logcms.o)
 .data          0x00000000005415a0        0x0 /home/liyupeng/zengyao/6.13/DT-W724V-20140311/output/host/usr/mips-unknown-linux-uclibc/sysroot/lib/liblogcms.a(logcmsinit.o)
 .data          0x00000000005415a0        0x0 /home/liyupeng/zengyao/6.13/DT-W724V-20140311/output/host/usr/mips-unknown-linux-uclibc/sysroot/lib/liblogcms.a(logcmsmsgproc.o)
 .data          0x00000000005415a0        0x0 /home/liyupeng/zengyao/6.13/DT-W724V-20140311/output/host/usr/mips-unknown-linux-uclibc/sysroot/lib/libmiccms.a(miccmsmsgproc.o)
 .data          0x00000000005415a0        0x0 /home/liyupeng/zengyao/6.13/DT-W724V-20140311/output/host/usr/mips-unknown-linux-uclibc/sysroot/lib/libmiccms.a(miccms.o)
 .data          0x00000000005415a0        0x0 /home/liyupeng/zengyao/6.13/DT-W724V-20140311/output/host/usr/mips-unknown-linux-uclibc/sysroot/lib/libportmntcms.a(portmntcms.o)
 .data          0x00000000005415a0        0x0 /home/liyupeng/zengyao/6.13/DT-W724V-20140311/output/host/usr/mips-unknown-linux-uclibc/sysroot/lib/libsysinfocms.a(sysinfoinit.o)
 .data          0x00000000005415a0        0x0 /home/liyupeng/zengyao/6.13/DT-W724V-20140311/output/host/usr/mips-unknown-linux-uclibc/sysroot/lib/libsysinfocms.a(sysinfocmsmsgproc.o)
 .data          0x00000000005415a0        0x0 /home/liyupeng/zengyao/6.13/DT-W724V-20140311/output/host/usr/mips-unknown-linux-uclibc/sysroot/lib/libsysinfocms.a(sysinfocms.o)
 .data          0x00000000005415a0        0x0 /home/liyupeng/zengyao/6.13/DT-W724V-20140311/output/host/usr/mips-unknown-linux-uclibc/sysroot/lib/libsysinfocms.a(sysperiodicstatistics.o)
 .data.rel      0x00000000005415a0       0x20 /home/liyupeng/zengyao/6.13/DT-W724V-20140311/output/host/usr/mips-unknown-linux-uclibc/sysroot/lib/libsysinfocms.a(sysperiodicstatistics.o)
 .data          0x00000000005415c0        0x0 /home/liyupeng/zengyao/6.13/DT-W724V-20140311/output/host/usr/mips-unknown-linux-uclibc/sysroot/lib/libtelnetdcms.a(telnetdcmsinit.o)
 .data          0x00000000005415c0        0x0 /home/liyupeng/zengyao/6.13/DT-W724V-20140311/output/host/usr/mips-unknown-linux-uclibc/sysroot/lib/libtelnetdcms.a(telnetdcmsmsgproc.o)
 .data          0x00000000005415c0        0x0 /home/liyupeng/zengyao/6.13/DT-W724V-20140311/output/host/usr/mips-unknown-linux-uclibc/sysroot/lib/libtr111cms.a(tr111cmsmsgproc.o)
 .data          0x00000000005415c0        0x0 /home/liyupeng/zengyao/6.13/DT-W724V-20140311/output/host/usr/mips-unknown-linux-uclibc/sysroot/lib/libtr111cms.a(tr111cms.o)
 .data          0x00000000005415c0        0x0 /home/liyupeng/zengyao/6.13/DT-W724V-20140311/output/host/usr/mips-unknown-linux-uclibc/sysroot/lib/libtr232cms.a(ipdrcms.o)
 .data          0x00000000005415c0        0x0 /home/liyupeng/zengyao/6.13/DT-W724V-20140311/output/host/usr/mips-unknown-linux-uclibc/sysroot/lib/libtr232cms.a(ipdrcmsmsgproc.o)
 .data          0x00000000005415c0        0x0 /home/liyupeng/zengyao/6.13/DT-W724V-20140311/output/host/usr/mips-unknown-linux-uclibc/sysroot/lib/libtr232cms.a(ipdrcmsinit.o)
 .data          0x00000000005415c0        0x0 /home/liyupeng/zengyao/6.13/DT-W724V-20140311/output/host/usr/mips-unknown-linux-uclibc/sysroot/lib/libtraceroutecms.a(traceroutecmsmsgproc.o)
 .data          0x00000000005415c0        0x0 /home/liyupeng/zengyao/6.13/DT-W724V-20140311/output/host/usr/mips-unknown-linux-uclibc/sysroot/lib/libupnpcms.a(upnpcms.o)
 .data          0x00000000005415c0        0x0 /home/liyupeng/zengyao/6.13/DT-W724V-20140311/output/host/usr/mips-unknown-linux-uclibc/sysroot/lib/libuserintfcms.a(userintfinit.o)
 .data          0x00000000005415c0        0x0 /home/liyupeng/zengyao/6.13/DT-W724V-20140311/output/host/usr/mips-unknown-linux-uclibc/sysroot/lib/libuserintfcms.a(userintfcmsmsgproc.o)
 .data          0x00000000005415c0        0x0 /home/liyupeng/zengyao/6.13/DT-W724V-20140311/output/host/usr/mips-unknown-linux-uclibc/sysroot/lib/libuserintfcms.a(userintfcms.o)
 .data          0x00000000005415c0        0x0 /home/liyupeng/zengyao/6.13/DT-W724V-20140311/output/host/usr/mips-unknown-linux-uclibc/sysroot/lib/libwebcms.a(webcmsmsgproc.o)
 .data          0x00000000005415c0        0x0 /home/liyupeng/zengyao/6.13/DT-W724V-20140311/output/host/usr/mips-unknown-linux-uclibc/sysroot/lib/libbridgeportcms.a(bridgeportcmsapi.o)
 .data          0x00000000005415c0        0x0 /home/liyupeng/zengyao/6.13/DT-W724V-20140311/output/host/usr/mips-unknown-linux-uclibc/sysroot/lib/libbridgeportcms.a(bridgeportcms.o)
 .data          0x00000000005415c0        0x0 /home/liyupeng/zengyao/6.13/DT-W724V-20140311/output/host/usr/mips-unknown-linux-uclibc/sysroot/lib/libbridgeportcms.a(bridgingcmsinit.o)
 .data          0x00000000005415c0        0x0 /home/liyupeng/zengyao/6.13/DT-W724V-20140311/output/host/usr/mips-unknown-linux-uclibc/sysroot/lib/libbridgeportcms.a(bridgingfiltercmsapi.o)
 .data          0x00000000005415c0        0x0 /home/liyupeng/zengyao/6.13/DT-W724V-20140311/output/host/usr/mips-unknown-linux-uclibc/sysroot/lib/libbridgeportcms.a(bridgingfiltercmsinit.o)
 .data          0x00000000005415c0        0x0 /home/liyupeng/zengyao/6.13/DT-W724V-20140311/output/host/usr/mips-unknown-linux-uclibc/sysroot/lib/libbridgeportcms.a(bridgingfiltercmsmsgproc.o)
 .data          0x00000000005415c0        0x0 /home/liyupeng/zengyao/6.13/DT-W724V-20140311/output/host/usr/mips-unknown-linux-uclibc/sysroot/lib/libbridgeportcms.a(bridgingfilteroptions.o)
 .data          0x00000000005415c0        0x0 /home/liyupeng/zengyao/6.13/DT-W724V-20140311/output/host/usr/mips-unknown-linux-uclibc/sysroot/lib/libipv6commoncms.a(ipv6commoncms.o)
 .data          0x00000000005415c0        0x0 /home/liyupeng/zengyao/6.13/DT-W724V-20140311/output/host/usr/mips-unknown-linux-uclibc/sysroot/lib/libipv6commoncms.a(ipv6commoncmsproc.o)
 .data          0x00000000005415c0        0x0 /home/liyupeng/zengyao/6.13/DT-W724V-20140311/output/host/usr/mips-unknown-linux-uclibc/sysroot/lib/libddnscms.a(ddnscms.o)
 .data          0x00000000005415c0        0x0 /home/liyupeng/zengyao/6.13/DT-W724V-20140311/output/host/usr/mips-unknown-linux-uclibc/sysroot/lib/libddnscms.a(ddnscmsinit.o)
 .data          0x00000000005415c0        0x0 /home/liyupeng/zengyao/6.13/DT-W724V-20140311/output/host/usr/mips-unknown-linux-uclibc/sysroot/lib/libddnscms.a(ddnscmsmsgproc.o)
 .data          0x00000000005415c0        0x0 /home/liyupeng/zengyao/6.13/DT-W724V-20140311/output/host/usr/mips-unknown-linux-uclibc/sysroot/lib/libddnscms.a(ddnscmsapi.o)
 .data          0x00000000005415c0       0x10 /home/liyupeng/zengyao/6.13/DT-W724V-20140311/output/host/usr/mips-unknown-linux-uclibc/sysroot/lib/libdhcp6ccms.a(dhcp6ccms.o)
 .data          0x00000000005415d0        0x0 /home/liyupeng/zengyao/6.13/DT-W724V-20140311/output/host/usr/mips-unknown-linux-uclibc/sysroot/lib/libdhcp6ccms.a(dhcp6ccmsmsgproc.o)
 .data          0x00000000005415d0       0x20 /home/liyupeng/zengyao/6.13/DT-W724V-20140311/output/host/usr/mips-unknown-linux-uclibc/sysroot/lib/libdhcp6scms.a(dhcp6scms.o)
 .data          0x00000000005415f0        0x0 /home/liyupeng/zengyao/6.13/DT-W724V-20140311/output/host/usr/mips-unknown-linux-uclibc/sysroot/lib/libdhcp6scms.a(dhcp6scmsinit.o)
 .data          0x00000000005415f0        0x0 /home/liyupeng/zengyao/6.13/DT-W724V-20140311/output/host/usr/mips-unknown-linux-uclibc/sysroot/lib/libdhcp6scms.a(dhcp6scmsapi.o)
 .data          0x00000000005415f0        0x0 /home/liyupeng/zengyao/6.13/DT-W724V-20140311/output/host/usr/mips-unknown-linux-uclibc/sysroot/lib/libdhcp6scms.a(dhcp6scmsproctr181.o)
 .data          0x00000000005415f0        0x0 /home/liyupeng/zengyao/6.13/DT-W724V-20140311/output/host/usr/mips-unknown-linux-uclibc/sysroot/lib/libdhcpccms.a(dhcpccmsmsgproc.o)
 .data.rel.local
                0x00000000005415f0       0x18 /home/liyupeng/zengyao/6.13/DT-W724V-20140311/output/host/usr/mips-unknown-linux-uclibc/sysroot/lib/libdhcpccms.a(dhcpccmsmsgproc.o)
 *fill*         0x0000000000541608        0x8 00
 .data          0x0000000000541610        0x0 /home/liyupeng/zengyao/6.13/DT-W724V-20140311/output/host/usr/mips-unknown-linux-uclibc/sysroot/lib/libdhcpccms.a(dhcpccmsinit.o)
 .data          0x0000000000541610        0x0 /home/liyupeng/zengyao/6.13/DT-W724V-20140311/output/host/usr/mips-unknown-linux-uclibc/sysroot/lib/libdhcpccms.a(dhcpccms.o)
 .data          0x0000000000541610        0x0 /home/liyupeng/zengyao/6.13/DT-W724V-20140311/output/host/usr/mips-unknown-linux-uclibc/sysroot/lib/libdhcpscms.a(lanapi.o)
 .data          0x0000000000541610        0x0 /home/liyupeng/zengyao/6.13/DT-W724V-20140311/output/host/usr/mips-unknown-linux-uclibc/sysroot/lib/libdhcpscms.a(lanutil.o)
 .data          0x0000000000541610        0x0 /home/liyupeng/zengyao/6.13/DT-W724V-20140311/output/host/usr/mips-unknown-linux-uclibc/sysroot/lib/libdhcpscms.a(dhcpscmsinit.o)
 .data          0x0000000000541610        0x0 /home/liyupeng/zengyao/6.13/DT-W724V-20140311/output/host/usr/mips-unknown-linux-uclibc/sysroot/lib/libdhcpscms.a(dhcpscmsnotifymngr.o)
 .data          0x0000000000541610        0x0 /home/liyupeng/zengyao/6.13/DT-W724V-20140311/output/host/usr/mips-unknown-linux-uclibc/sysroot/lib/libdhcpscms.a(dhcpscmsmsgproc.o)
 .data          0x0000000000541610        0x0 /home/liyupeng/zengyao/6.13/DT-W724V-20140311/output/host/usr/mips-unknown-linux-uclibc/sysroot/lib/libdhcpscms.a(dhcpscms_tr181.o)
 .data          0x0000000000541610        0x0 /home/liyupeng/zengyao/6.13/DT-W724V-20140311/output/host/usr/mips-unknown-linux-uclibc/sysroot/lib/libdnscms.a(dnscmsinit.o)
 .data          0x0000000000541610        0x0 /home/liyupeng/zengyao/6.13/DT-W724V-20140311/output/host/usr/mips-unknown-linux-uclibc/sysroot/lib/libdnscms.a(dnscms.o)
 .data          0x0000000000541610        0x0 /home/liyupeng/zengyao/6.13/DT-W724V-20140311/output/host/usr/mips-unknown-linux-uclibc/sysroot/lib/libdnscms.a(dnscmsdb.o)
 .data          0x0000000000541610        0x0 /home/liyupeng/zengyao/6.13/DT-W724V-20140311/output/host/usr/mips-unknown-linux-uclibc/sysroot/lib/libdnsdiagcms.a(dnsdiagcmsmsgproc.o)
 .data          0x0000000000541610        0x0 /home/liyupeng/zengyao/6.13/DT-W724V-20140311/output/host/usr/mips-unknown-linux-uclibc/sysroot/lib/libethintfcms.a(ethintfcmsapi.o)
 .data          0x0000000000541610       0x10 /home/liyupeng/zengyao/6.13/DT-W724V-20140311/output/host/usr/mips-unknown-linux-uclibc/sysroot/lib/libethintfcms.a(ethintfcmsutil.o)
                0x0000000000541610                g_ulEthPowerSaveEnable
 .data          0x0000000000541620        0x0 /home/liyupeng/zengyao/6.13/DT-W724V-20140311/output/host/usr/mips-unknown-linux-uclibc/sysroot/lib/libethintfcms.a(ethintfcmsmsgproc.o)
 .data          0x0000000000541620       0x10 /home/liyupeng/zengyao/6.13/DT-W724V-20140311/output/host/usr/mips-unknown-linux-uclibc/sysroot/lib/libethlinkcms.a(ethlinkcmsapi.o)
 .data          0x0000000000541630        0x0 /home/liyupeng/zengyao/6.13/DT-W724V-20140311/output/host/usr/mips-unknown-linux-uclibc/sysroot/lib/libfirewallcmsdt.a(firewallcmsdt.o)
 .data          0x0000000000541630        0x0 /home/liyupeng/zengyao/6.13/DT-W724V-20140311/output/host/usr/mips-unknown-linux-uclibc/sysroot/lib/libfirewallcmsdt.a(fwfilterapi.o)
 .data          0x0000000000541630       0x10 /home/liyupeng/zengyao/6.13/DT-W724V-20140311/output/host/usr/mips-unknown-linux-uclibc/sysroot/lib/libfirewallcmsdt.a(fwfilterutil.o)
                0x0000000000541630                ulFilterEnable
 .data          0x0000000000541640        0x0 /home/liyupeng/zengyao/6.13/DT-W724V-20140311/output/host/usr/mips-unknown-linux-uclibc/sysroot/lib/libfirewallcmsdt.a(abuseapi.o)
 .data          0x0000000000541640      0x7c0 /home/liyupeng/zengyao/6.13/DT-W724V-20140311/output/host/usr/mips-unknown-linux-uclibc/sysroot/lib/libfirewallcmsdt.a(abuseutil.o)
                0x0000000000541640                g_intTimerAction
                0x0000000000541644                ulAbuseEnable
                0x0000000000541648                ulAbuseUpdateFlg
 .data          0x0000000000541e00        0x0 /home/liyupeng/zengyao/6.13/DT-W724V-20140311/output/host/usr/mips-unknown-linux-uclibc/sysroot/lib/libfirewallcmsdt.a(timeruleflushfcctl.o)
 .data          0x0000000000541e00        0x0 /home/liyupeng/zengyao/6.13/DT-W724V-20140311/output/host/usr/mips-unknown-linux-uclibc/sysroot/lib/libfoncms.a(foncms.o)
 .data          0x0000000000541e00        0x0 /home/liyupeng/zengyao/6.13/DT-W724V-20140311/output/host/usr/mips-unknown-linux-uclibc/sysroot/lib/libfoncms.a(foncmsinit.o)
 .data          0x0000000000541e00        0x0 /home/liyupeng/zengyao/6.13/DT-W724V-20140311/output/host/usr/mips-unknown-linux-uclibc/sysroot/lib/libfoncms.a(foncmsmsgproc.o)
 .data          0x0000000000541e00        0x0 /home/liyupeng/zengyao/6.13/DT-W724V-20140311/output/host/usr/mips-unknown-linux-uclibc/sysroot/lib/libhybridcms.a(hybridcms.o)
 .data.rel.local
                0x0000000000541e00       0x34 /home/liyupeng/zengyao/6.13/DT-W724V-20140311/output/host/usr/mips-unknown-linux-uclibc/sysroot/lib/libhybridcms.a(hybridcms.o)
                0x0000000000541e00                m_apcLastErrorInfo
                0x0000000000541e10                m_apcBondingMode
                0x0000000000541e20                m_apcStatus
 *fill*         0x0000000000541e34        0xc 00
 .data          0x0000000000541e40        0x0 /home/liyupeng/zengyao/6.13/DT-W724V-20140311/output/host/usr/mips-unknown-linux-uclibc/sysroot/lib/libhybridcms.a(hybridcmsfilter.o)
 .data          0x0000000000541e40        0x0 /home/liyupeng/zengyao/6.13/DT-W724V-20140311/output/host/usr/mips-unknown-linux-uclibc/sysroot/lib/libigmpcms.a(igmpcmsmsgproc.o)
 .data          0x0000000000541e40        0x0 /home/liyupeng/zengyao/6.13/DT-W724V-20140311/output/host/usr/mips-unknown-linux-uclibc/sysroot/lib/libigmpcms.a(igmpcms.o)
 .data          0x0000000000541e40        0x0 /home/liyupeng/zengyao/6.13/DT-W724V-20140311/output/host/usr/mips-unknown-linux-uclibc/sysroot/lib/libipcheckcms.a(ipcheckcms.o)
 .data          0x0000000000541e40        0x0 /home/liyupeng/zengyao/6.13/DT-W724V-20140311/output/host/usr/mips-unknown-linux-uclibc/sysroot/lib/libipcheckcms.a(ipcheckcmsinit.o)
 .data          0x0000000000541e40        0x0 /home/liyupeng/zengyao/6.13/DT-W724V-20140311/output/host/usr/mips-unknown-linux-uclibc/sysroot/lib/libipcheckcms.a(ipcheckcmsmsgproc.o)
 .data          0x0000000000541e40        0x0 /home/liyupeng/zengyao/6.13/DT-W724V-20140311/output/host/usr/mips-unknown-linux-uclibc/sysroot/lib/libipintfcms.a(ipintfcmsapi.o)
 .data          0x0000000000541e40        0x0 /home/liyupeng/zengyao/6.13/DT-W724V-20140311/output/host/usr/mips-unknown-linux-uclibc/sysroot/lib/libipintfcms.a(ipintfcmsget.o)
 .data          0x0000000000541e40        0x0 /home/liyupeng/zengyao/6.13/DT-W724V-20140311/output/host/usr/mips-unknown-linux-uclibc/sysroot/lib/libipintfcms.a(ipintfcmsset.o)
 .data          0x0000000000541e40        0x0 /home/liyupeng/zengyao/6.13/DT-W724V-20140311/output/host/usr/mips-unknown-linux-uclibc/sysroot/lib/libipintfcms.a(ipintfcmsint.o)
 .data          0x0000000000541e40        0x0 /home/liyupeng/zengyao/6.13/DT-W724V-20140311/output/host/usr/mips-unknown-linux-uclibc/sysroot/lib/libiptunnelcms.a(iptunnelcmsinit.o)
 .data          0x0000000000541e40        0x0 /home/liyupeng/zengyao/6.13/DT-W724V-20140311/output/host/usr/mips-unknown-linux-uclibc/sysroot/lib/libiptunnelcms.a(iptunnelcmsapi.o)
 .data          0x0000000000541e40        0x0 /home/liyupeng/zengyao/6.13/DT-W724V-20140311/output/host/usr/mips-unknown-linux-uclibc/sysroot/lib/libiptunnelcms.a(iptunnelcms.o)
 .data          0x0000000000541e40        0x0 /home/liyupeng/zengyao/6.13/DT-W724V-20140311/output/host/usr/mips-unknown-linux-uclibc/sysroot/lib/liblannamecms.a(lannamecms.o)
 .data          0x0000000000541e40        0x0 /home/liyupeng/zengyao/6.13/DT-W724V-20140311/output/host/usr/mips-unknown-linux-uclibc/sysroot/lib/liblannamecms.a(lannamecmsmsgproc.o)
 .data          0x0000000000541e40        0x0 /home/liyupeng/zengyao/6.13/DT-W724V-20140311/output/host/usr/mips-unknown-linux-uclibc/sysroot/lib/libltecms.a(lteprofile.o)
 .data          0x0000000000541e40        0x0 /home/liyupeng/zengyao/6.13/DT-W724V-20140311/output/host/usr/mips-unknown-linux-uclibc/sysroot/lib/libltecms.a(ltecmssimcard.o)
 .data.rel.local
                0x0000000000541e40       0x10 /home/liyupeng/zengyao/6.13/DT-W724V-20140311/output/host/usr/mips-unknown-linux-uclibc/sysroot/lib/libltecms.a(ltecmssimcard.o)
 .data          0x0000000000541e50       0x10 /home/liyupeng/zengyao/6.13/DT-W724V-20140311/output/host/usr/mips-unknown-linux-uclibc/sysroot/lib/libltecms.a(ltecmswminfo.o)
                0x0000000000541e50                g_sim_state
 .data          0x0000000000541e60        0x0 /home/liyupeng/zengyao/6.13/DT-W724V-20140311/output/host/usr/mips-unknown-linux-uclibc/sysroot/lib/libltecms.a(ltesmartcardreader.o)
 .data          0x0000000000541e60        0x0 /home/liyupeng/zengyao/6.13/DT-W724V-20140311/output/host/usr/mips-unknown-linux-uclibc/sysroot/lib/libltecms.a(ltecmsmsgproc.o)
 .data          0x0000000000541e60        0x0 /home/liyupeng/zengyao/6.13/DT-W724V-20140311/output/host/usr/mips-unknown-linux-uclibc/sysroot/lib/libltecms.a(ltecmsapi.o)
 .data.rel.local
                0x0000000000541e60        0x8 /home/liyupeng/zengyao/6.13/DT-W724V-20140311/output/host/usr/mips-unknown-linux-uclibc/sysroot/lib/libltecms.a(ltecmsapi.o)
 *fill*         0x0000000000541e68        0x8 00
 .data          0x0000000000541e70        0x0 /home/liyupeng/zengyao/6.13/DT-W724V-20140311/output/host/usr/mips-unknown-linux-uclibc/sysroot/lib/libltecms.a(ltecmsmobile.o)
 .data.rel.local
                0x0000000000541e70       0x20 /home/liyupeng/zengyao/6.13/DT-W724V-20140311/output/host/usr/mips-unknown-linux-uclibc/sysroot/lib/libltecms.a(ltecmsmobile.o)
 .data          0x0000000000541e90        0x0 /home/liyupeng/zengyao/6.13/DT-W724V-20140311/output/host/usr/mips-unknown-linux-uclibc/sysroot/lib/libmldcms.a(mldcms.o)
 .data          0x0000000000541e90        0x0 /home/liyupeng/zengyao/6.13/DT-W724V-20140311/output/host/usr/mips-unknown-linux-uclibc/sysroot/lib/libmldcms.a(mldcmsmsgproc.o)
 .data          0x0000000000541e90       0x10 /home/liyupeng/zengyao/6.13/DT-W724V-20140311/output/host/usr/mips-unknown-linux-uclibc/sysroot/lib/libnatcms.a(natcmsmsgproc.o)
 .data          0x0000000000541ea0        0x0 /home/liyupeng/zengyao/6.13/DT-W724V-20140311/output/host/usr/mips-unknown-linux-uclibc/sysroot/lib/libnatcms.a(natcmsinit.o)
 .data          0x0000000000541ea0       0x10 /home/liyupeng/zengyao/6.13/DT-W724V-20140311/output/host/usr/mips-unknown-linux-uclibc/sysroot/lib/libnatcms.a(natcms.o)
                0x0000000000541ea0                g_enKrnlVersion
 .data          0x0000000000541eb0        0x0 /home/liyupeng/zengyao/6.13/DT-W724V-20140311/output/host/usr/mips-unknown-linux-uclibc/sysroot/lib/libnatcms.a(natutil.o)
 .data          0x0000000000541eb0        0x0 /home/liyupeng/zengyao/6.13/DT-W724V-20140311/output/host/usr/mips-unknown-linux-uclibc/sysroot/lib/libnatcms.a(natdmz.o)
 .data          0x0000000000541eb0        0x0 /home/liyupeng/zengyao/6.13/DT-W724V-20140311/output/host/usr/mips-unknown-linux-uclibc/sysroot/lib/libnatcms.a(natportmap.o)
 .data          0x0000000000541eb0        0x0 /home/liyupeng/zengyao/6.13/DT-W724V-20140311/output/host/usr/mips-unknown-linux-uclibc/sysroot/lib/libnatcms.a(prttrgapi.o)
 .data          0x0000000000541eb0        0x0 /home/liyupeng/zengyao/6.13/DT-W724V-20140311/output/host/usr/mips-unknown-linux-uclibc/sysroot/lib/libnatcms.a(prttrgutil.o)
 .data          0x0000000000541eb0        0x0 /home/liyupeng/zengyao/6.13/DT-W724V-20140311/output/host/usr/mips-unknown-linux-uclibc/sysroot/lib/libnatcms.a(natcmsctclean.o)
 .data          0x0000000000541eb0        0x0 /home/liyupeng/zengyao/6.13/DT-W724V-20140311/output/host/usr/mips-unknown-linux-uclibc/sysroot/lib/libndiscms.a(ndiscmsmsgproc.o)
 .data          0x0000000000541eb0        0x0 /home/liyupeng/zengyao/6.13/DT-W724V-20140311/output/host/usr/mips-unknown-linux-uclibc/sysroot/lib/libneighdisccms.a(neighdisccms.o)
 .data          0x0000000000541eb0        0x0 /home/liyupeng/zengyao/6.13/DT-W724V-20140311/output/host/usr/mips-unknown-linux-uclibc/sysroot/lib/libpppccms.a(pppcapi.o)
 .data          0x0000000000541eb0        0x0 /home/liyupeng/zengyao/6.13/DT-W724V-20140311/output/host/usr/mips-unknown-linux-uclibc/sysroot/lib/libpppintfcms.a(pppintfcmsinit.o)
 .data          0x0000000000541eb0        0x0 /home/liyupeng/zengyao/6.13/DT-W724V-20140311/output/host/usr/mips-unknown-linux-uclibc/sysroot/lib/libpppintfcms.a(pppintfcms.o)
 .data          0x0000000000541eb0        0x0 /home/liyupeng/zengyao/6.13/DT-W724V-20140311/output/host/usr/mips-unknown-linux-uclibc/sysroot/lib/libpppintfcms.a(pppintfcmsmsg.o)
 .data          0x0000000000541eb0        0x0 /home/liyupeng/zengyao/6.13/DT-W724V-20140311/output/host/usr/mips-unknown-linux-uclibc/sysroot/lib/libpppintfcms.a(pppintfcmsadapt.o)
 .data          0x0000000000541eb0        0x0 /home/liyupeng/zengyao/6.13/DT-W724V-20140311/output/host/usr/mips-unknown-linux-uclibc/sysroot/lib/libprivacybtncms.a(privacybtncmsmsgproc.o)
 .data          0x0000000000541eb0       0x10 /home/liyupeng/zengyao/6.13/DT-W724V-20140311/output/host/usr/mips-unknown-linux-uclibc/sysroot/lib/libprivacybtncms.a(privacybtncms.o)
 .data          0x0000000000541ec0        0x0 /home/liyupeng/zengyao/6.13/DT-W724V-20140311/output/host/usr/mips-unknown-linux-uclibc/sysroot/lib/libdtqoscms.a(qosapi.o)
 .data          0x0000000000541ec0        0x0 /home/liyupeng/zengyao/6.13/DT-W724V-20140311/output/host/usr/mips-unknown-linux-uclibc/sysroot/lib/libdtqoscms.a(qosconfig.o)
 .data          0x0000000000541ec0        0x0 /home/liyupeng/zengyao/6.13/DT-W724V-20140311/output/host/usr/mips-unknown-linux-uclibc/sysroot/lib/libradvdcms.a(radvdcms.o)
 .data          0x0000000000541ec0        0x0 /home/liyupeng/zengyao/6.13/DT-W724V-20140311/output/host/usr/mips-unknown-linux-uclibc/sysroot/lib/libradvdcms.a(radvdcmsinit.o)
 .data          0x0000000000541ec0        0x0 /home/liyupeng/zengyao/6.13/DT-W724V-20140311/output/host/usr/mips-unknown-linux-uclibc/sysroot/lib/libradvdcms.a(radvdcmsmsgproc.o)
 .data          0x0000000000541ec0        0x0 /home/liyupeng/zengyao/6.13/DT-W724V-20140311/output/host/usr/mips-unknown-linux-uclibc/sysroot/lib/libradvdcms.a(radvdcmsapi.o)
 .data          0x0000000000541ec0        0x0 /home/liyupeng/zengyao/6.13/DT-W724V-20140311/output/host/usr/mips-unknown-linux-uclibc/sysroot/lib/libradvdcms.a(radvdcmsmsgproctr181.o)
 .data          0x0000000000541ec0        0x0 /home/liyupeng/zengyao/6.13/DT-W724V-20140311/output/host/usr/mips-unknown-linux-uclibc/sysroot/lib/libroute6cms.a(route6cms.o)
 .data          0x0000000000541ec0        0x0 /home/liyupeng/zengyao/6.13/DT-W724V-20140311/output/host/usr/mips-unknown-linux-uclibc/sysroot/lib/libroute6cms.a(route6cmsinit.o)
 .data          0x0000000000541ec0        0x0 /home/liyupeng/zengyao/6.13/DT-W724V-20140311/output/host/usr/mips-unknown-linux-uclibc/sysroot/lib/libroute6cms.a(route6cmsmsgproc.o)
 .data          0x0000000000541ec0        0x0 /home/liyupeng/zengyao/6.13/DT-W724V-20140311/output/host/usr/mips-unknown-linux-uclibc/sysroot/lib/libroute6cms.a(route6cmsapi.o)
 .data          0x0000000000541ec0        0x0 /home/liyupeng/zengyao/6.13/DT-W724V-20140311/output/host/usr/mips-unknown-linux-uclibc/sysroot/lib/libroutecms.a(routecmsmsgproc.o)
 .data          0x0000000000541ec0        0x0 /home/liyupeng/zengyao/6.13/DT-W724V-20140311/output/host/usr/mips-unknown-linux-uclibc/sysroot/lib/libroutecms.a(routecmsinit.o)
 .data          0x0000000000541ec0        0x0 /home/liyupeng/zengyao/6.13/DT-W724V-20140311/output/host/usr/mips-unknown-linux-uclibc/sysroot/lib/libroutecms.a(routecms.o)
 .data          0x0000000000541ec0        0x0 /home/liyupeng/zengyao/6.13/DT-W724V-20140311/output/host/usr/mips-unknown-linux-uclibc/sysroot/lib/libroutecms.a(routedft.o)
 .data          0x0000000000541ec0        0x0 /home/liyupeng/zengyao/6.13/DT-W724V-20140311/output/host/usr/mips-unknown-linux-uclibc/sysroot/lib/libroutecms.a(routestatic.o)
 .data          0x0000000000541ec0        0x0 /home/liyupeng/zengyao/6.13/DT-W724V-20140311/output/host/usr/mips-unknown-linux-uclibc/sysroot/lib/libroutecms.a(routelist.o)
 .data          0x0000000000541ec0       0x10 /home/liyupeng/zengyao/6.13/DT-W724V-20140311/output/host/usr/mips-unknown-linux-uclibc/sysroot/lib/libsntpcms.a(sntpcms.o)
 .data          0x0000000000541ed0        0x0 /home/liyupeng/zengyao/6.13/DT-W724V-20140311/output/host/usr/mips-unknown-linux-uclibc/sysroot/lib/libsntpcms.a(sntpcmsposixtime.o)
 .data          0x0000000000541ed0        0x0 /home/liyupeng/zengyao/6.13/DT-W724V-20140311/output/host/usr/mips-unknown-linux-uclibc/sysroot/lib/libsntpcms.a(sntpcmsmsgproc.o)
 .data          0x0000000000541ed0        0x0 /home/liyupeng/zengyao/6.13/DT-W724V-20140311/output/host/usr/mips-unknown-linux-uclibc/sysroot/lib/libvlancms.a(vlancms.o)
 .data          0x0000000000541ed0        0x0 /home/liyupeng/zengyao/6.13/DT-W724V-20140311/output/host/usr/mips-unknown-linux-uclibc/sysroot/lib/libvlancms.a(vlancmsint.o)
 .data          0x0000000000541ed0        0x0 /home/liyupeng/zengyao/6.13/DT-W724V-20140311/output/host/usr/mips-unknown-linux-uclibc/sysroot/lib/libvlancms.a(vlancmsmsgproc.o)
 .data          0x0000000000541ed0       0x10 /home/liyupeng/zengyao/6.13/DT-W724V-20140311/output/host/usr/mips-unknown-linux-uclibc/sysroot/lib/libwancorecms.a(wancorecms.o)
                0x0000000000541ed0                g_ulUpdateMTU
 .data          0x0000000000541ee0        0x0 /home/liyupeng/zengyao/6.13/DT-W724V-20140311/output/host/usr/mips-unknown-linux-uclibc/sysroot/lib/libvlantermcms.a(vlantermcms.o)
 .data          0x0000000000541ee0      0x340 /home/liyupeng/zengyao/6.13/DT-W724V-20140311/output/host/usr/mips-unknown-linux-uclibc/sysroot/lib/libwlancms.a(wlancmsmsgproc.o)
                0x0000000000541ee0                g_stWlWpsDefault
                0x0000000000541f38                g_stWlConfDefault
 .data.rel.local
                0x0000000000542220      0x4bc /home/liyupeng/zengyao/6.13/DT-W724V-20140311/output/host/usr/mips-unknown-linux-uclibc/sysroot/lib/libwlancms.a(wlancmsmsgproc.o)
 *fill*         0x00000000005426dc        0x4 00
 .data          0x00000000005426e0       0x10 /home/liyupeng/zengyao/6.13/DT-W724V-20140311/output/host/usr/mips-unknown-linux-uclibc/sysroot/lib/libwlancms.a(wlancmsinit.o)
                0x00000000005426e0                g_iWlanCurBand
                0x00000000005426e4                g_iWlan5GEnableFlag
                0x00000000005426e8                g_iWlanEnableFlag
 .data          0x00000000005426f0        0x0 /home/liyupeng/zengyao/6.13/DT-W724V-20140311/output/host/usr/mips-unknown-linux-uclibc/sysroot/lib/libwlancms.a(wlancmslal.o)
 .data          0x00000000005426f0       0x80 /home/liyupeng/zengyao/6.13/DT-W724V-20140311/output/host/usr/mips-unknown-linux-uclibc/sysroot/lib/libwlancms.a(wlan_tr181.o)
                0x00000000005426f0                g_ulWlMaxAssocNumDefault
                0x0000000000542700                g_astWlWMMAPDefault
                0x0000000000542760                g_iWlanWpsModeFlag
 .data          0x0000000000542770       0x10 /home/liyupeng/zengyao/6.13/DT-W724V-20140311/output/host/usr/mips-unknown-linux-uclibc/sysroot/lib/libwlanbcmcms.a(wlanbcmcms.o)
 .data          0x0000000000542780       0xd0 /home/liyupeng/zengyao/6.13/DT-W724V-20140311/output/host/usr/mips-unknown-linux-uclibc/sysroot/lib/libwlanbcmcms.a(wlanbcm963268.o)
 .data          0x0000000000542850        0x0 /home/liyupeng/zengyao/6.13/DT-W724V-20140311/output/host/usr/mips-unknown-linux-uclibc/sysroot/lib/libwlanbcmcms.a(wlanmonitor.o)
 .data          0x0000000000542850        0x0 /home/liyupeng/zengyao/6.13/DT-W724V-20140311/output/host/usr/mips-unknown-linux-uclibc/sysroot/lib/libatmlinkcms.a(atmlinkcmsapi.o)
 .data          0x0000000000542850       0x10 /home/liyupeng/zengyao/6.13/DT-W724V-20140311/output/host/usr/mips-unknown-linux-uclibc/sysroot/lib/libatmlinkcms.a(atmlinkdiag.o)
 .data          0x0000000000542860        0x0 /home/liyupeng/zengyao/6.13/DT-W724V-20140311/output/host/usr/mips-unknown-linux-uclibc/sysroot/lib/libdslchannelcms.a(dslchannelcmsapi.o)
 .data          0x0000000000542860        0x0 /home/liyupeng/zengyao/6.13/DT-W724V-20140311/output/host/usr/mips-unknown-linux-uclibc/sysroot/lib/libdslchannelcms.a(dslchanneldiag.o)
 .data          0x0000000000542860        0x0 /home/liyupeng/zengyao/6.13/DT-W724V-20140311/output/host/usr/mips-unknown-linux-uclibc/sysroot/lib/libdsllinecms.a(dsllinecmsapi.o)
 .data          0x0000000000542860        0x0 /home/liyupeng/zengyao/6.13/DT-W724V-20140311/output/host/usr/mips-unknown-linux-uclibc/sysroot/lib/libptmlinkcms.a(ptmlinkcmsapi.o)
 .data          0x0000000000542860      0x940 /home/liyupeng/zengyao/6.13/DT-W724V-20140311/output/host/usr/mips-unknown-linux-uclibc/sysroot/lib/libdtvoicecms.a(voiceapi.o)
 .data          0x00000000005431a0      0x910 /home/liyupeng/zengyao/6.13/DT-W724V-20140311/output/host/usr/mips-unknown-linux-uclibc/sysroot/lib/libdtvoicecms.a(voicecms.o)
                0x00000000005431a0                g_bDectLineNameSetAll
 .data          0x0000000000543ab0        0x0 /home/liyupeng/zengyao/6.13/DT-W724V-20140311/output/host/usr/mips-unknown-linux-uclibc/sysroot/lib/libdtvoicecms.a(voiceutil.o)
 .data          0x0000000000543ab0       0x10 /home/liyupeng/zengyao/6.13/DT-W724V-20140311/output/host/usr/mips-unknown-linux-uclibc/sysroot/lib/libdtvoicecms.a(voicecfg.o)
                0x0000000000543ab0                g_stVoiceCodec
 .data          0x0000000000543ac0       0x10 /home/liyupeng/zengyao/6.13/DT-W724V-20140311/output/host/usr/mips-unknown-linux-uclibc/sysroot/lib/libdtvoicecms.a(IniParser.o)
 .data          0x0000000000543ad0        0x0 /home/liyupeng/zengyao/6.13/DT-W724V-20140311/output/host/usr/mips-unknown-linux-uclibc/sysroot/lib/libdtvoicecms.a(voicediag.o)
 .data          0x0000000000543ad0       0x60 /home/liyupeng/zengyao/6.13/DT-W724V-20140311/output/host/usr/mips-unknown-linux-uclibc/sysroot/lib/libdtvoicecms.a(voicecmsmsgproc.o)
                0x0000000000543ad0                g_stWanStatus2Name
 .data          0x0000000000543b30        0x0 /home/liyupeng/zengyao/6.13/DT-W724V-20140311/output/host/usr/mips-unknown-linux-uclibc/sysroot/lib/libnetpbcms.a(netphonebookapi.o)
 .data          0x0000000000543b30        0x0 /home/liyupeng/zengyao/6.13/DT-W724V-20140311/output/host/usr/mips-unknown-linux-uclibc/sysroot/lib/librsscms.a(rssapi.o)
 .data          0x0000000000543b30        0x0 /home/liyupeng/zengyao/6.13/DT-W724V-20140311/output/host/usr/mips-unknown-linux-uclibc/sysroot/lib/librsscms.a(voicersscmsmsgproc.o)
 .data          0x0000000000543b30        0x0 /home/liyupeng/zengyao/6.13/DT-W724V-20140311/output/host/usr/mips-unknown-linux-uclibc/sysroot/lib/libemailcms.a(emailapi.o)
 .data          0x0000000000543b30        0x0 /home/liyupeng/zengyao/6.13/DT-W724V-20140311/output/host/usr/mips-unknown-linux-uclibc/sysroot/lib/libemailcms.a(emailcms.o)
 .data          0x0000000000543b30        0x0 /home/liyupeng/zengyao/6.13/DT-W724V-20140311/output/host/usr/mips-unknown-linux-uclibc/sysroot/lib/libemailcms.a(voiceemailcmsmsgproc.o)
 .data          0x0000000000543b30        0x0 /opt/toolchains/crosstools-mips-gcc-4.6-linux-3.4-uclibc-0.9.32-binutils-2.21/usr/lib/gcc/mips-unknown-linux-uclibc/4.6.2/libgcc.a(_fixunsdfsi.o)
 .data          0x0000000000543b30        0x0 /opt/toolchains/crosstools-mips-gcc-4.6-linux-3.4-uclibc-0.9.32-binutils-2.21/usr/lib/gcc/mips-unknown-linux-uclibc/4.6.2/libgcc.a(_udivdi3.o)
 .data          0x0000000000543b30        0x0 /opt/toolchains/crosstools-mips-gcc-4.6-linux-3.4-uclibc-0.9.32-binutils-2.21/usr/lib/gcc/mips-unknown-linux-uclibc/4.6.2/libgcc.a(_umoddi3.o)
 .data          0x0000000000543b30        0x0 /opt/toolchains/crosstools-mips-gcc-4.6-linux-3.4-uclibc-0.9.32-binutils-2.21/usr/lib/gcc/mips-unknown-linux-uclibc/4.6.2/libgcc.a(_sf_to_df.o)
 .data          0x0000000000543b30        0x0 /opt/toolchains/crosstools-mips-gcc-4.6-linux-3.4-uclibc-0.9.32-binutils-2.21/usr/lib/gcc/mips-unknown-linux-uclibc/4.6.2/libgcc.a(_usi_to_sf.o)
 .data          0x0000000000543b30        0x0 /opt/toolchains/crosstools-mips-gcc-4.6-linux-3.4-uclibc-0.9.32-binutils-2.21/usr/lib/gcc/mips-unknown-linux-uclibc/4.6.2/libgcc.a(_addsub_df.o)
 .data          0x0000000000543b30        0x0 /opt/toolchains/crosstools-mips-gcc-4.6-linux-3.4-uclibc-0.9.32-binutils-2.21/usr/lib/gcc/mips-unknown-linux-uclibc/4.6.2/libgcc.a(_mul_df.o)
 .data          0x0000000000543b30        0x0 /opt/toolchains/crosstools-mips-gcc-4.6-linux-3.4-uclibc-0.9.32-binutils-2.21/usr/lib/gcc/mips-unknown-linux-uclibc/4.6.2/libgcc.a(_ge_df.o)
 .data          0x0000000000543b30        0x0 /opt/toolchains/crosstools-mips-gcc-4.6-linux-3.4-uclibc-0.9.32-binutils-2.21/usr/lib/gcc/mips-unknown-linux-uclibc/4.6.2/libgcc.a(_df_to_si.o)
 .data          0x0000000000543b30        0x0 /opt/toolchains/crosstools-mips-gcc-4.6-linux-3.4-uclibc-0.9.32-binutils-2.21/usr/lib/gcc/mips-unknown-linux-uclibc/4.6.2/libgcc.a(_make_df.o)
 .data          0x0000000000543b30        0x0 /opt/toolchains/crosstools-mips-gcc-4.6-linux-3.4-uclibc-0.9.32-binutils-2.21/usr/lib/gcc/mips-unknown-linux-uclibc/4.6.2/libgcc.a(_df_to_sf.o)
 .data          0x0000000000543b30        0x0 /opt/toolchains/crosstools-mips-gcc-4.6-linux-3.4-uclibc-0.9.32-binutils-2.21/usr/lib/gcc/mips-unknown-linux-uclibc/4.6.2/libgcc.a(_thenan_df.o)
 .data          0x0000000000543b30        0x0 /opt/toolchains/crosstools-mips-gcc-4.6-linux-3.4-uclibc-0.9.32-binutils-2.21/usr/lib/gcc/mips-unknown-linux-uclibc/4.6.2/libgcc.a(_lshrdi3.o)
 .data          0x0000000000543b30        0x0 /opt/toolchains/crosstools-mips-gcc-4.6-linux-3.4-uclibc-0.9.32-binutils-2.21/usr/lib/gcc/mips-unknown-linux-uclibc/4.6.2/libgcc.a(_ashldi3.o)
 .data          0x0000000000543b30        0x0 /opt/toolchains/crosstools-mips-gcc-4.6-linux-3.4-uclibc-0.9.32-binutils-2.21/usr/lib/gcc/mips-unknown-linux-uclibc/4.6.2/libgcc.a(_pack_sf.o)
 .data          0x0000000000543b30        0x0 /opt/toolchains/crosstools-mips-gcc-4.6-linux-3.4-uclibc-0.9.32-binutils-2.21/usr/lib/gcc/mips-unknown-linux-uclibc/4.6.2/libgcc.a(_unpack_sf.o)
 .data          0x0000000000543b30        0x0 /opt/toolchains/crosstools-mips-gcc-4.6-linux-3.4-uclibc-0.9.32-binutils-2.21/usr/lib/gcc/mips-unknown-linux-uclibc/4.6.2/libgcc.a(_make_sf.o)
 .data          0x0000000000543b30        0x0 /opt/toolchains/crosstools-mips-gcc-4.6-linux-3.4-uclibc-0.9.32-binutils-2.21/usr/lib/gcc/mips-unknown-linux-uclibc/4.6.2/libgcc.a(_pack_df.o)
 .data          0x0000000000543b30        0x0 /opt/toolchains/crosstools-mips-gcc-4.6-linux-3.4-uclibc-0.9.32-binutils-2.21/usr/lib/gcc/mips-unknown-linux-uclibc/4.6.2/libgcc.a(_unpack_df.o)
 .data          0x0000000000543b30        0x0 /opt/toolchains/crosstools-mips-gcc-4.6-linux-3.4-uclibc-0.9.32-binutils-2.21/usr/lib/gcc/mips-unknown-linux-uclibc/4.6.2/libgcc.a(_fpcmp_parts_df.o)
 .data          0x0000000000543b30        0x0 /opt/toolchains/crosstools-mips-gcc-4.6-linux-3.4-uclibc-0.9.32-binutils-2.21/usr/lib/gcc/mips-unknown-linux-uclibc/4.6.2/crtend.o
 .data          0x0000000000543b30        0x0 /home/liyupeng/zengyao/6.13/DT-W724V-20140311/output/host/usr/mips-unknown-linux-uclibc/sysroot/usr/lib/crtn.o

.rld_map        0x0000000000543b30        0x4
 .rld_map       0x0000000000543b30        0x4 /home/liyupeng/zengyao/6.13/DT-W724V-20140311/output/host/usr/mips-unknown-linux-uclibc/sysroot/usr/lib/crt1.o
                0x0000000000543b30                __RLD_MAP

.data1
 *(.data1)

.got.plt        0x0000000000543b34        0x0
 *(.got.plt)
 .got.plt       0x0000000000000000        0x0 /home/liyupeng/zengyao/6.13/DT-W724V-20140311/output/host/usr/mips-unknown-linux-uclibc/sysroot/usr/lib/crt1.o
                0x0000000000543b34                . = .
                0x000000000054bb30                _gp = (ALIGN (0x10) + 0x7ff0)

.got            0x0000000000543b40     0x16f4
 *(.got)
 .got           0x0000000000543b40     0x16f4 /home/liyupeng/zengyao/6.13/DT-W724V-20140311/output/host/usr/mips-unknown-linux-uclibc/sysroot/usr/lib/crt1.o
                0x0000000000543b40                _GLOBAL_OFFSET_TABLE_

.sdata          0x0000000000545234        0x4
 *(.sdata .sdata.* .gnu.linkonce.s.*)
 .sdata         0x0000000000545234        0x4 /opt/toolchains/crosstools-mips-gcc-4.6-linux-3.4-uclibc-0.9.32-binutils-2.21/usr/lib/gcc/mips-unknown-linux-uclibc/4.6.2/crtbegin.o
                0x0000000000545234                __dso_handle

.lit8
 *(.lit8)

.lit4
 *(.lit4)
                0x0000000000545238                _edata = .
                0x0000000000545238                PROVIDE (edata, .)
                0x0000000000545238                __bss_start = .
                0x0000000000545238                _fbss = .

.sbss           0x0000000000545238       0x40
 *(.dynsbss)
 *(.sbss .sbss.* .gnu.linkonce.sb.*)
 *(.scommon)
 .scommon       0x0000000000545238        0x8 /home/liyupeng/zengyao/6.13/DT-W724V-20140311/output/package/atp/configuration/cmsmain/cmsinit.o
                0x0000000000545238                g_pvVdbVoiceHdl
                0x000000000054523c                g_pvDummyDbHdl
 .scommon       0x0000000000545240        0x4 /home/liyupeng/zengyao/6.13/DT-W724V-20140311/output/host/usr/mips-unknown-linux-uclibc/sysroot/lib/libusbstoragecms.a(usbstoragecmsinit.o)
                0x0000000000545240                g_stStorageServiceInfo
 .scommon       0x0000000000545244        0x4 /home/liyupeng/zengyao/6.13/DT-W724V-20140311/output/host/usr/mips-unknown-linux-uclibc/sysroot/lib/libftpservercms.a(ftpservercms.o)
                0x0000000000545244                g_bFtpSerStart
 .scommon       0x0000000000545248        0x8 /home/liyupeng/zengyao/6.13/DT-W724V-20140311/output/host/usr/mips-unknown-linux-uclibc/sysroot/lib/libndiscms.a(ndiscmsmsgproc.o)
                0x0000000000545248                g_stLteInfo
 .scommon       0x0000000000545250        0x8 /home/liyupeng/zengyao/6.13/DT-W724V-20140311/output/host/usr/mips-unknown-linux-uclibc/sysroot/lib/libwlancms.a(wlan_tr181.o)
                0x0000000000545250                g_ulWlan2GFonInitFlag
                0x0000000000545254                g_ulWlan5GFonInitFlag
 .scommon       0x0000000000545258        0x4 /home/liyupeng/zengyao/6.13/DT-W724V-20140311/output/host/usr/mips-unknown-linux-uclibc/sysroot/lib/libdtvoicecms.a(voiceapi.o)
                0x0000000000545258                g_bVoiceUp
 .scommon       0x000000000054525c       0x14 /home/liyupeng/zengyao/6.13/DT-W724V-20140311/output/host/usr/mips-unknown-linux-uclibc/sysroot/lib/libdtvoicecms.a(voicecms.o)
                0x000000000054525c                g_bNeedSaveVdb
                0x0000000000545260                g_bNeedSaveDb
                0x0000000000545264                g_bNeedCwmpLog
                0x0000000000545268                g_bInit
                0x000000000054526c                g_bNeedSndNotify
 .scommon       0x0000000000545270        0x8 /home/liyupeng/zengyao/6.13/DT-W724V-20140311/output/host/usr/mips-unknown-linux-uclibc/sysroot/lib/librsscms.a(rssapi.o)
                0x0000000000545270                g_ulRefreshInterval
                0x0000000000545274                g_ulVdbIndx

.bss            0x0000000000545280    0xb5478
 *(.dynbss)
 .dynbss        0x0000000000000000        0x0 /home/liyupeng/zengyao/6.13/DT-W724V-20140311/output/host/usr/mips-unknown-linux-uclibc/sysroot/usr/lib/crt1.o
 *(.bss .bss.* .gnu.linkonce.b.*)
 .bss           0x0000000000545280        0x0 /home/liyupeng/zengyao/6.13/DT-W724V-20140311/output/host/usr/mips-unknown-linux-uclibc/sysroot/usr/lib/crt1.o
 .bss           0x0000000000545280        0x0 /home/liyupeng/zengyao/6.13/DT-W724V-20140311/output/host/usr/mips-unknown-linux-uclibc/sysroot/usr/lib/crti.o
 .bss           0x0000000000545280       0x20 /opt/toolchains/crosstools-mips-gcc-4.6-linux-3.4-uclibc-0.9.32-binutils-2.21/usr/lib/gcc/mips-unknown-linux-uclibc/4.6.2/crtbegin.o
 .bss           0x00000000005452a0       0x10 /home/liyupeng/zengyao/6.13/DT-W724V-20140311/output/package/atp/configuration/cmsmain/management.o
                0x00000000005452a0                g_ulRssInitSaveDb
 .bss           0x00000000005452b0        0x0 /home/liyupeng/zengyao/6.13/DT-W724V-20140311/output/package/atp/configuration/cmsmain/cmsmonitor.o
 .bss           0x00000000005452b0        0x0 /home/liyupeng/zengyao/6.13/DT-W724V-20140311/output/package/atp/configuration/cmsmain/cmsinit.o
 .bss           0x00000000005452b0       0x40 /home/liyupeng/zengyao/6.13/DT-W724V-20140311/output/host/usr/mips-unknown-linux-uclibc/sysroot/lib/libcmscore.a(cmsmsgproc.o)
                0x00000000005452b0                g_bCmsDbInited
                0x00000000005452b4                g_ulCmsErrCode
                0x00000000005452b8                g_bConfigSetReboot
 .bss           0x00000000005452f0       0x10 /home/liyupeng/zengyao/6.13/DT-W724V-20140311/output/host/usr/mips-unknown-linux-uclibc/sysroot/lib/libcmscore.a(cmsutil.o)
 .bss           0x0000000000545300       0x10 /home/liyupeng/zengyao/6.13/DT-W724V-20140311/output/host/usr/mips-unknown-linux-uclibc/sysroot/lib/libcmscore.a(cmsinitapi.o)
                0x0000000000545300                g_bInited
 .bss           0x0000000000545310        0x0 /home/liyupeng/zengyao/6.13/DT-W724V-20140311/output/host/usr/mips-unknown-linux-uclibc/sysroot/lib/libcmscore.a(cmssigqueue.o)
 .bss           0x0000000000545310       0x10 /home/liyupeng/zengyao/6.13/DT-W724V-20140311/output/host/usr/mips-unknown-linux-uclibc/sysroot/lib/libinterfacecore.a(interfaceapi.o)
                0x0000000000545310                g_pstRootInterface
 .bss           0x0000000000545320        0x0 /home/liyupeng/zengyao/6.13/DT-W724V-20140311/output/host/usr/mips-unknown-linux-uclibc/sysroot/lib/libinterfacecore.a(intfstats.o)
 .bss           0x0000000000545320       0x10 /home/liyupeng/zengyao/6.13/DT-W724V-20140311/output/host/usr/mips-unknown-linux-uclibc/sysroot/lib/libinterfacecore.a(intfdescriptor.o)
 .bss           0x0000000000545330        0x0 /home/liyupeng/zengyao/6.13/DT-W724V-20140311/output/host/usr/mips-unknown-linux-uclibc/sysroot/lib/libinterfacecore.a(intfcfgmsgproc.o)
 .bss           0x0000000000545330        0x0 /home/liyupeng/zengyao/6.13/DT-W724V-20140311/output/host/usr/mips-unknown-linux-uclibc/sysroot/lib/libinterfacecore.a(intfstack.o)
 .bss           0x0000000000545330     0x3d10 /home/liyupeng/zengyao/6.13/DT-W724V-20140311/output/host/usr/mips-unknown-linux-uclibc/sysroot/lib/libdmscms.a(dmscmsmsgproc.o)
 .bss           0x0000000000549040       0x10 /home/liyupeng/zengyao/6.13/DT-W724V-20140311/output/host/usr/mips-unknown-linux-uclibc/sysroot/lib/libledservicecms.a(ledserviceini.o)
 .bss           0x0000000000549050       0x40 /home/liyupeng/zengyao/6.13/DT-W724V-20140311/output/host/usr/mips-unknown-linux-uclibc/sysroot/lib/libnascms.a(nascms.o)
 .bss           0x0000000000549090        0x0 /home/liyupeng/zengyao/6.13/DT-W724V-20140311/output/host/usr/mips-unknown-linux-uclibc/sysroot/lib/liboamcms.a(oamcms.o)
 .bss           0x0000000000549090       0x20 /home/liyupeng/zengyao/6.13/DT-W724V-20140311/output/host/usr/mips-unknown-linux-uclibc/sysroot/lib/libtr143cms.a(tr143cmsmsgproc.o)
 .bss           0x00000000005490b0        0x0 /home/liyupeng/zengyao/6.13/DT-W724V-20140311/output/host/usr/mips-unknown-linux-uclibc/sysroot/lib/libusbmngrcms.a(usbmngrcmsproc.o)
 .bss           0x00000000005490b0     0x3c30 /home/liyupeng/zengyao/6.13/DT-W724V-20140311/output/host/usr/mips-unknown-linux-uclibc/sysroot/lib/libusbmountcms.a(usbmntcmsmsgproc.o)
 .bss           0x000000000054cce0       0x10 /home/liyupeng/zengyao/6.13/DT-W724V-20140311/output/host/usr/mips-unknown-linux-uclibc/sysroot/lib/libusbmountcms.a(usbdiskmonitor.o)
 .bss           0x000000000054ccf0        0x0 /home/liyupeng/zengyao/6.13/DT-W724V-20140311/output/host/usr/mips-unknown-linux-uclibc/sysroot/lib/libusbmountcms.a(usbmntcmsinit.o)
 .bss           0x000000000054ccf0      0x100 /home/liyupeng/zengyao/6.13/DT-W724V-20140311/output/host/usr/mips-unknown-linux-uclibc/sysroot/lib/libcupscms.a(cupscms.o)
                0x000000000054ccf0                g_acPrinterName
 .bss           0x000000000054cdf0      0x140 /home/liyupeng/zengyao/6.13/DT-W724V-20140311/output/host/usr/mips-unknown-linux-uclibc/sysroot/lib/libusbstoragecms.a(usbstoragecmsmsgproc.o)
                0x000000000054cdf0                g_bGuestBeEnable
                0x000000000054cdf4                g_bIsByMount
                0x000000000054cdf8                g_astStoSerUserAddSetTemp
                0x000000000054cdfc                g_pstStoSerLogicVolList
 .bss           0x000000000054cf30        0x0 /home/liyupeng/zengyao/6.13/DT-W724V-20140311/output/host/usr/mips-unknown-linux-uclibc/sysroot/lib/libusbstoragecms.a(usbstoragecms.o)
 .bss           0x000000000054cf30       0x10 /home/liyupeng/zengyao/6.13/DT-W724V-20140311/output/host/usr/mips-unknown-linux-uclibc/sysroot/lib/libusbstoragecms.a(usbstoragecmsinit.o)
                0x000000000054cf30                g_ulFtpIpv6WanAddAclTimes
                0x000000000054cf34                g_ulFtpWanAddAclTimes
 .bss           0x000000000054cf40       0x10 /home/liyupeng/zengyao/6.13/DT-W724V-20140311/output/host/usr/mips-unknown-linux-uclibc/sysroot/lib/libusbstoragecms.a(usbstorageloginctl.o)
 .bss           0x000000000054cf50        0x0 /home/liyupeng/zengyao/6.13/DT-W724V-20140311/output/host/usr/mips-unknown-linux-uclibc/sysroot/lib/libftpservercms.a(ftpservercmsmsgproc.o)
 .bss           0x000000000054cf50        0x0 /home/liyupeng/zengyao/6.13/DT-W724V-20140311/output/host/usr/mips-unknown-linux-uclibc/sysroot/lib/libftpservercms.a(ftpservercms.o)
 .bss           0x000000000054cf50      0x4c0 /home/liyupeng/zengyao/6.13/DT-W724V-20140311/output/host/usr/mips-unknown-linux-uclibc/sysroot/lib/libsambacms.a(sambacms.o)
                0x000000000054cf50                g_bSMBSerStart
 .bss           0x000000000054d410        0x0 /home/liyupeng/zengyao/6.13/DT-W724V-20140311/output/host/usr/mips-unknown-linux-uclibc/sysroot/lib/libsambacms.a(sambacmsmsgproc.o)
 .bss           0x000000000054d410       0x10 /home/liyupeng/zengyao/6.13/DT-W724V-20140311/output/host/usr/mips-unknown-linux-uclibc/sysroot/lib/libcwmpcms.a(cwmpcmsmsgproc.o)
                0x000000000054d410                g_pstWanUpForIpv6First
 .bss           0x000000000054d420       0x10 /home/liyupeng/zengyao/6.13/DT-W724V-20140311/output/host/usr/mips-unknown-linux-uclibc/sysroot/lib/libcwmpcms.a(cwmpcms.o)
                0x000000000054d420                g_pstCwmpWanInfo
 .bss           0x000000000054d430       0x70 /home/liyupeng/zengyao/6.13/DT-W724V-20140311/output/host/usr/mips-unknown-linux-uclibc/sysroot/lib/libcwmpcms.a(cwmpschdwlmsgproc.o)
                0x000000000054d430                g_astCwmpLocalAddr
                0x000000000054d470                g_bStartTimer
                0x000000000054d474                g_bUpgBusy
                0x000000000054d478                g_pstSchDwlTimeInfo
                0x000000000054d47c                g_pstCheckDataTimer
                0x000000000054d480                g_pstScheduleTimer
 .bss           0x000000000054d4a0       0x10 /home/liyupeng/zengyao/6.13/DT-W724V-20140311/output/host/usr/mips-unknown-linux-uclibc/sysroot/lib/libippingcms.a(ippingcmsmsgproc.o)
 .bss           0x000000000054d4b0        0x0 /home/liyupeng/zengyao/6.13/DT-W724V-20140311/output/host/usr/mips-unknown-linux-uclibc/sysroot/lib/liblogcms.a(logcms.o)
 .bss           0x000000000054d4b0        0x0 /home/liyupeng/zengyao/6.13/DT-W724V-20140311/output/host/usr/mips-unknown-linux-uclibc/sysroot/lib/liblogcms.a(logcmsinit.o)
 .bss           0x000000000054d4b0       0x10 /home/liyupeng/zengyao/6.13/DT-W724V-20140311/output/host/usr/mips-unknown-linux-uclibc/sysroot/lib/liblogcms.a(logcmsmsgproc.o)
 .bss           0x000000000054d4c0        0x0 /home/liyupeng/zengyao/6.13/DT-W724V-20140311/output/host/usr/mips-unknown-linux-uclibc/sysroot/lib/libmiccms.a(miccmsmsgproc.o)
 .bss           0x000000000054d4c0       0x10 /home/liyupeng/zengyao/6.13/DT-W724V-20140311/output/host/usr/mips-unknown-linux-uclibc/sysroot/lib/libmiccms.a(miccms.o)
 .bss           0x000000000054d4d0       0x10 /home/liyupeng/zengyao/6.13/DT-W724V-20140311/output/host/usr/mips-unknown-linux-uclibc/sysroot/lib/libportmntcms.a(portmntcms.o)
 .bss           0x000000000054d4e0        0x0 /home/liyupeng/zengyao/6.13/DT-W724V-20140311/output/host/usr/mips-unknown-linux-uclibc/sysroot/lib/libsysinfocms.a(sysinfoinit.o)
 .bss           0x000000000054d4e0     0xe120 /home/liyupeng/zengyao/6.13/DT-W724V-20140311/output/host/usr/mips-unknown-linux-uclibc/sysroot/lib/libsysinfocms.a(sysinfocmsmsgproc.o)
                0x000000000054d4e0                g_curProcessCount
                0x000000000054d4e4                g_curProcess
 .bss           0x000000000055b600        0x0 /home/liyupeng/zengyao/6.13/DT-W724V-20140311/output/host/usr/mips-unknown-linux-uclibc/sysroot/lib/libsysinfocms.a(sysinfocms.o)
 .bss           0x000000000055b600       0x10 /home/liyupeng/zengyao/6.13/DT-W724V-20140311/output/host/usr/mips-unknown-linux-uclibc/sysroot/lib/libsysinfocms.a(sysperiodicstatistics.o)
                0x000000000055b600                g_SampleSetList
 .bss           0x000000000055b610        0x0 /home/liyupeng/zengyao/6.13/DT-W724V-20140311/output/host/usr/mips-unknown-linux-uclibc/sysroot/lib/libtelnetdcms.a(telnetdcmsinit.o)
 .bss           0x000000000055b610       0x10 /home/liyupeng/zengyao/6.13/DT-W724V-20140311/output/host/usr/mips-unknown-linux-uclibc/sysroot/lib/libtelnetdcms.a(telnetdcmsmsgproc.o)
 .bss           0x000000000055b620       0x30 /home/liyupeng/zengyao/6.13/DT-W724V-20140311/output/host/usr/mips-unknown-linux-uclibc/sysroot/lib/libtr111cms.a(tr111cmsmsgproc.o)
 .bss           0x000000000055b650        0x0 /home/liyupeng/zengyao/6.13/DT-W724V-20140311/output/host/usr/mips-unknown-linux-uclibc/sysroot/lib/libtr111cms.a(tr111cms.o)
 .bss           0x000000000055b650        0x0 /home/liyupeng/zengyao/6.13/DT-W724V-20140311/output/host/usr/mips-unknown-linux-uclibc/sysroot/lib/libtr232cms.a(ipdrcms.o)
 .bss           0x000000000055b650      0x110 /home/liyupeng/zengyao/6.13/DT-W724V-20140311/output/host/usr/mips-unknown-linux-uclibc/sysroot/lib/libtr232cms.a(ipdrcmsmsgproc.o)
                0x000000000055b650                g_SntpSynFlag
 .bss           0x000000000055b760        0x0 /home/liyupeng/zengyao/6.13/DT-W724V-20140311/output/host/usr/mips-unknown-linux-uclibc/sysroot/lib/libtr232cms.a(ipdrcmsinit.o)
 .bss           0x000000000055b760       0x10 /home/liyupeng/zengyao/6.13/DT-W724V-20140311/output/host/usr/mips-unknown-linux-uclibc/sysroot/lib/libtraceroutecms.a(traceroutecmsmsgproc.o)
                0x000000000055b760                g_pstHops
 .bss           0x000000000055b770        0x0 /home/liyupeng/zengyao/6.13/DT-W724V-20140311/output/host/usr/mips-unknown-linux-uclibc/sysroot/lib/libupnpcms.a(upnpcms.o)
 .bss           0x000000000055b770        0x0 /home/liyupeng/zengyao/6.13/DT-W724V-20140311/output/host/usr/mips-unknown-linux-uclibc/sysroot/lib/libuserintfcms.a(userintfinit.o)
 .bss           0x000000000055b770        0x0 /home/liyupeng/zengyao/6.13/DT-W724V-20140311/output/host/usr/mips-unknown-linux-uclibc/sysroot/lib/libuserintfcms.a(userintfcmsmsgproc.o)
 .bss           0x000000000055b770        0x0 /home/liyupeng/zengyao/6.13/DT-W724V-20140311/output/host/usr/mips-unknown-linux-uclibc/sysroot/lib/libuserintfcms.a(userintfcms.o)
 .bss           0x000000000055b770       0x10 /home/liyupeng/zengyao/6.13/DT-W724V-20140311/output/host/usr/mips-unknown-linux-uclibc/sysroot/lib/libwebcms.a(webcmsmsgproc.o)
                0x000000000055b770                g_psHalpLockTimer
 .bss           0x000000000055b780        0x0 /home/liyupeng/zengyao/6.13/DT-W724V-20140311/output/host/usr/mips-unknown-linux-uclibc/sysroot/lib/libbridgeportcms.a(bridgeportcmsapi.o)
 .bss           0x000000000055b780        0x0 /home/liyupeng/zengyao/6.13/DT-W724V-20140311/output/host/usr/mips-unknown-linux-uclibc/sysroot/lib/libbridgeportcms.a(bridgeportcms.o)
 .bss           0x000000000055b780        0x0 /home/liyupeng/zengyao/6.13/DT-W724V-20140311/output/host/usr/mips-unknown-linux-uclibc/sysroot/lib/libbridgeportcms.a(bridgingcmsinit.o)
 .bss           0x000000000055b780       0x10 /home/liyupeng/zengyao/6.13/DT-W724V-20140311/output/host/usr/mips-unknown-linux-uclibc/sysroot/lib/libbridgeportcms.a(bridgingfiltercmsapi.o)
                0x000000000055b780                g_pstBridgingFilterList
 .bss           0x000000000055b790        0x0 /home/liyupeng/zengyao/6.13/DT-W724V-20140311/output/host/usr/mips-unknown-linux-uclibc/sysroot/lib/libbridgeportcms.a(bridgingfiltercmsinit.o)
 .bss           0x000000000055b790        0x0 /home/liyupeng/zengyao/6.13/DT-W724V-20140311/output/host/usr/mips-unknown-linux-uclibc/sysroot/lib/libbridgeportcms.a(bridgingfiltercmsmsgproc.o)
 .bss           0x000000000055b790       0x10 /home/liyupeng/zengyao/6.13/DT-W724V-20140311/output/host/usr/mips-unknown-linux-uclibc/sysroot/lib/libbridgeportcms.a(bridgingfilteroptions.o)
 .bss           0x000000000055b7a0        0x0 /home/liyupeng/zengyao/6.13/DT-W724V-20140311/output/host/usr/mips-unknown-linux-uclibc/sysroot/lib/libipv6commoncms.a(ipv6commoncms.o)
 .bss           0x000000000055b7a0      0x490 /home/liyupeng/zengyao/6.13/DT-W724V-20140311/output/host/usr/mips-unknown-linux-uclibc/sysroot/lib/libipv6commoncms.a(ipv6commoncmsproc.o)
                0x000000000055b7a0                g_ulIPV6IntWanNum
                0x000000000055b7a4                g_lOtherFlagFromDhcp6s
                0x000000000055b7c4                g_lManageFlagFromDhcp6s
 .bss           0x000000000055bc30       0x10 /home/liyupeng/zengyao/6.13/DT-W724V-20140311/output/host/usr/mips-unknown-linux-uclibc/sysroot/lib/libddnscms.a(ddnscms.o)
 .bss           0x000000000055bc40        0x0 /home/liyupeng/zengyao/6.13/DT-W724V-20140311/output/host/usr/mips-unknown-linux-uclibc/sysroot/lib/libddnscms.a(ddnscmsinit.o)
 .bss           0x000000000055bc40        0x0 /home/liyupeng/zengyao/6.13/DT-W724V-20140311/output/host/usr/mips-unknown-linux-uclibc/sysroot/lib/libddnscms.a(ddnscmsmsgproc.o)
 .bss           0x000000000055bc40        0x0 /home/liyupeng/zengyao/6.13/DT-W724V-20140311/output/host/usr/mips-unknown-linux-uclibc/sysroot/lib/libddnscms.a(ddnscmsapi.o)
 .bss           0x000000000055bc40        0x0 /home/liyupeng/zengyao/6.13/DT-W724V-20140311/output/host/usr/mips-unknown-linux-uclibc/sysroot/lib/libdhcp6ccms.a(dhcp6ccms.o)
 .bss           0x000000000055bc40       0x10 /home/liyupeng/zengyao/6.13/DT-W724V-20140311/output/host/usr/mips-unknown-linux-uclibc/sysroot/lib/libdhcp6ccms.a(dhcp6ccmsmsgproc.o)
 .bss           0x000000000055bc50       0x60 /home/liyupeng/zengyao/6.13/DT-W724V-20140311/output/host/usr/mips-unknown-linux-uclibc/sysroot/lib/libdhcp6scms.a(dhcp6scms.o)
                0x000000000055bc50                g_lWanCfgFlag
                0x000000000055bc70                g_lCurretModeFlag
 .bss           0x000000000055bcb0       0x20 /home/liyupeng/zengyao/6.13/DT-W724V-20140311/output/host/usr/mips-unknown-linux-uclibc/sysroot/lib/libdhcp6scms.a(dhcp6scmsinit.o)
                0x000000000055bcb0                g_lDhcp6sEnablgFlag
 .bss           0x000000000055bcd0        0x0 /home/liyupeng/zengyao/6.13/DT-W724V-20140311/output/host/usr/mips-unknown-linux-uclibc/sysroot/lib/libdhcp6scms.a(dhcp6scmsapi.o)
 .bss           0x000000000055bcd0       0x10 /home/liyupeng/zengyao/6.13/DT-W724V-20140311/output/host/usr/mips-unknown-linux-uclibc/sysroot/lib/libdhcp6scms.a(dhcp6scmsproctr181.o)
                0x000000000055bcd0                g_lDhcp6sIanaEnable
 .bss           0x000000000055bce0       0x10 /home/liyupeng/zengyao/6.13/DT-W724V-20140311/output/host/usr/mips-unknown-linux-uclibc/sysroot/lib/libdhcpccms.a(dhcpccmsmsgproc.o)
 .bss           0x000000000055bcf0        0x0 /home/liyupeng/zengyao/6.13/DT-W724V-20140311/output/host/usr/mips-unknown-linux-uclibc/sysroot/lib/libdhcpccms.a(dhcpccmsinit.o)
 .bss           0x000000000055bcf0        0x0 /home/liyupeng/zengyao/6.13/DT-W724V-20140311/output/host/usr/mips-unknown-linux-uclibc/sysroot/lib/libdhcpccms.a(dhcpccms.o)
 .bss           0x000000000055bcf0        0x0 /home/liyupeng/zengyao/6.13/DT-W724V-20140311/output/host/usr/mips-unknown-linux-uclibc/sysroot/lib/libdhcpscms.a(lanapi.o)
 .bss           0x000000000055bcf0        0x0 /home/liyupeng/zengyao/6.13/DT-W724V-20140311/output/host/usr/mips-unknown-linux-uclibc/sysroot/lib/libdhcpscms.a(lanutil.o)
 .bss           0x000000000055bcf0        0x0 /home/liyupeng/zengyao/6.13/DT-W724V-20140311/output/host/usr/mips-unknown-linux-uclibc/sysroot/lib/libdhcpscms.a(dhcpscmsinit.o)
 .bss           0x000000000055bcf0       0x10 /home/liyupeng/zengyao/6.13/DT-W724V-20140311/output/host/usr/mips-unknown-linux-uclibc/sysroot/lib/libdhcpscms.a(dhcpscmsnotifymngr.o)
 .bss           0x000000000055bd00       0x10 /home/liyupeng/zengyao/6.13/DT-W724V-20140311/output/host/usr/mips-unknown-linux-uclibc/sysroot/lib/libdhcpscms.a(dhcpscmsmsgproc.o)
 .bss           0x000000000055bd10      0x100 /home/liyupeng/zengyao/6.13/DT-W724V-20140311/output/host/usr/mips-unknown-linux-uclibc/sysroot/lib/libdhcpscms.a(dhcpscms_tr181.o)
                0x000000000055bd10                acOldSrcMac
 .bss           0x000000000055be10        0x0 /home/liyupeng/zengyao/6.13/DT-W724V-20140311/output/host/usr/mips-unknown-linux-uclibc/sysroot/lib/libdnscms.a(dnscmsinit.o)
 .bss           0x000000000055be10        0x0 /home/liyupeng/zengyao/6.13/DT-W724V-20140311/output/host/usr/mips-unknown-linux-uclibc/sysroot/lib/libdnscms.a(dnscms.o)
 .bss           0x000000000055be10        0x0 /home/liyupeng/zengyao/6.13/DT-W724V-20140311/output/host/usr/mips-unknown-linux-uclibc/sysroot/lib/libdnscms.a(dnscmsdb.o)
 .bss           0x000000000055be10       0x10 /home/liyupeng/zengyao/6.13/DT-W724V-20140311/output/host/usr/mips-unknown-linux-uclibc/sysroot/lib/libdnsdiagcms.a(dnsdiagcmsmsgproc.o)
 .bss           0x000000000055be20       0x10 /home/liyupeng/zengyao/6.13/DT-W724V-20140311/output/host/usr/mips-unknown-linux-uclibc/sysroot/lib/libethintfcms.a(ethintfcmsapi.o)
 .bss           0x000000000055be30       0x10 /home/liyupeng/zengyao/6.13/DT-W724V-20140311/output/host/usr/mips-unknown-linux-uclibc/sysroot/lib/libethintfcms.a(ethintfcmsutil.o)
 .bss           0x000000000055be40        0x0 /home/liyupeng/zengyao/6.13/DT-W724V-20140311/output/host/usr/mips-unknown-linux-uclibc/sysroot/lib/libethintfcms.a(ethintfcmsmsgproc.o)
 .bss           0x000000000055be40       0x20 /home/liyupeng/zengyao/6.13/DT-W724V-20140311/output/host/usr/mips-unknown-linux-uclibc/sysroot/lib/libethlinkcms.a(ethlinkcmsapi.o)
 .bss           0x000000000055be60       0xc0 /home/liyupeng/zengyao/6.13/DT-W724V-20140311/output/host/usr/mips-unknown-linux-uclibc/sysroot/lib/libfirewallcmsdt.a(firewallcmsdt.o)
                0x000000000055be60                g_acLocalDomain
                0x000000000055bee0                szLanMask
                0x000000000055bef8                szLanIP
 .bss           0x000000000055bf20        0x0 /home/liyupeng/zengyao/6.13/DT-W724V-20140311/output/host/usr/mips-unknown-linux-uclibc/sysroot/lib/libfirewallcmsdt.a(fwfilterapi.o)
 .bss           0x000000000055bf20       0x10 /home/liyupeng/zengyao/6.13/DT-W724V-20140311/output/host/usr/mips-unknown-linux-uclibc/sysroot/lib/libfirewallcmsdt.a(fwfilterutil.o)
                0x000000000055bf20                FWFilterTimeFcctlFlushHook
 .bss           0x000000000055bf30       0x10 /home/liyupeng/zengyao/6.13/DT-W724V-20140311/output/host/usr/mips-unknown-linux-uclibc/sysroot/lib/libfirewallcmsdt.a(abuseapi.o)
                0x000000000055bf30                g_blIsSettingAbuse
                0x000000000055bf34                ulAbuseIpv6Start
 .bss           0x000000000055bf40       0x20 /home/liyupeng/zengyao/6.13/DT-W724V-20140311/output/host/usr/mips-unknown-linux-uclibc/sysroot/lib/libfirewallcmsdt.a(abuseutil.o)
                0x000000000055bf40                g_abuseUpdate_tid
                0x000000000055bf44                g_pstAbuseDomainTimer
                0x000000000055bf48                g_pstAbuseUsrWhiteList
                0x000000000055bf4c                g_pstAbuseInitWhiteList
 .bss           0x000000000055bf60       0x10 /home/liyupeng/zengyao/6.13/DT-W724V-20140311/output/host/usr/mips-unknown-linux-uclibc/sysroot/lib/libfirewallcmsdt.a(timeruleflushfcctl.o)
 .bss           0x000000000055bf70       0x20 /home/liyupeng/zengyao/6.13/DT-W724V-20140311/output/host/usr/mips-unknown-linux-uclibc/sysroot/lib/libfoncms.a(foncms.o)
                0x000000000055bf70                g_bFirstRadiusSending
                0x000000000055bf74                g_bCheckHMConfig
                0x000000000055bf78                g_bHMConfigDownloaded
 .bss           0x000000000055bf90        0x0 /home/liyupeng/zengyao/6.13/DT-W724V-20140311/output/host/usr/mips-unknown-linux-uclibc/sysroot/lib/libfoncms.a(foncmsinit.o)
 .bss           0x000000000055bf90       0x10 /home/liyupeng/zengyao/6.13/DT-W724V-20140311/output/host/usr/mips-unknown-linux-uclibc/sysroot/lib/libfoncms.a(foncmsmsgproc.o)
 .bss           0x000000000055bfa0       0x50 /home/liyupeng/zengyao/6.13/DT-W724V-20140311/output/host/usr/mips-unknown-linux-uclibc/sysroot/lib/libhybridcms.a(hybridcms.o)
                0x000000000055bfa0                g_ulIsDSLTunnel6Up
                0x000000000055bfa4                m_aulBondingStats
 .bss           0x000000000055bff0    0x2b9b0 /home/liyupeng/zengyao/6.13/DT-W724V-20140311/output/host/usr/mips-unknown-linux-uclibc/sysroot/lib/libhybridcms.a(hybridcmsfilter.o)
 .bss           0x00000000005879a0        0x0 /home/liyupeng/zengyao/6.13/DT-W724V-20140311/output/host/usr/mips-unknown-linux-uclibc/sysroot/lib/libigmpcms.a(igmpcmsmsgproc.o)
 .bss           0x00000000005879a0      0x220 /home/liyupeng/zengyao/6.13/DT-W724V-20140311/output/host/usr/mips-unknown-linux-uclibc/sysroot/lib/libigmpcms.a(igmpcms.o)
 .bss           0x0000000000587bc0        0x0 /home/liyupeng/zengyao/6.13/DT-W724V-20140311/output/host/usr/mips-unknown-linux-uclibc/sysroot/lib/libipcheckcms.a(ipcheckcms.o)
 .bss           0x0000000000587bc0        0x0 /home/liyupeng/zengyao/6.13/DT-W724V-20140311/output/host/usr/mips-unknown-linux-uclibc/sysroot/lib/libipcheckcms.a(ipcheckcmsinit.o)
 .bss           0x0000000000587bc0       0x10 /home/liyupeng/zengyao/6.13/DT-W724V-20140311/output/host/usr/mips-unknown-linux-uclibc/sysroot/lib/libipcheckcms.a(ipcheckcmsmsgproc.o)
 .bss           0x0000000000587bd0       0x60 /home/liyupeng/zengyao/6.13/DT-W724V-20140311/output/host/usr/mips-unknown-linux-uclibc/sysroot/lib/libipintfcms.a(ipintfcmsapi.o)
 .bss           0x0000000000587c30        0x0 /home/liyupeng/zengyao/6.13/DT-W724V-20140311/output/host/usr/mips-unknown-linux-uclibc/sysroot/lib/libipintfcms.a(ipintfcmsget.o)
 .bss           0x0000000000587c30        0x0 /home/liyupeng/zengyao/6.13/DT-W724V-20140311/output/host/usr/mips-unknown-linux-uclibc/sysroot/lib/libipintfcms.a(ipintfcmsset.o)
 .bss           0x0000000000587c30        0x0 /home/liyupeng/zengyao/6.13/DT-W724V-20140311/output/host/usr/mips-unknown-linux-uclibc/sysroot/lib/libipintfcms.a(ipintfcmsint.o)
 .bss           0x0000000000587c30        0x0 /home/liyupeng/zengyao/6.13/DT-W724V-20140311/output/host/usr/mips-unknown-linux-uclibc/sysroot/lib/libiptunnelcms.a(iptunnelcmsinit.o)
 .bss           0x0000000000587c30        0x0 /home/liyupeng/zengyao/6.13/DT-W724V-20140311/output/host/usr/mips-unknown-linux-uclibc/sysroot/lib/libiptunnelcms.a(iptunnelcmsapi.o)
 .bss           0x0000000000587c30       0x10 /home/liyupeng/zengyao/6.13/DT-W724V-20140311/output/host/usr/mips-unknown-linux-uclibc/sysroot/lib/libiptunnelcms.a(iptunnelcms.o)
                0x0000000000587c30                g_pstIpTunnelConf
                0x0000000000587c34                g_pstIpTunnelHeader
 .bss           0x0000000000587c40       0xb0 /home/liyupeng/zengyao/6.13/DT-W724V-20140311/output/host/usr/mips-unknown-linux-uclibc/sysroot/lib/liblannamecms.a(lannamecms.o)
 .bss           0x0000000000587cf0        0x0 /home/liyupeng/zengyao/6.13/DT-W724V-20140311/output/host/usr/mips-unknown-linux-uclibc/sysroot/lib/liblannamecms.a(lannamecmsmsgproc.o)
 .bss           0x0000000000587cf0      0x150 /home/liyupeng/zengyao/6.13/DT-W724V-20140311/output/host/usr/mips-unknown-linux-uclibc/sysroot/lib/libltecms.a(lteprofile.o)
                0x0000000000587cf0                g_pstProfileList
 .bss           0x0000000000587e40        0x0 /home/liyupeng/zengyao/6.13/DT-W724V-20140311/output/host/usr/mips-unknown-linux-uclibc/sysroot/lib/libltecms.a(ltecmssimcard.o)
 .bss           0x0000000000587e40       0x20 /home/liyupeng/zengyao/6.13/DT-W724V-20140311/output/host/usr/mips-unknown-linux-uclibc/sysroot/lib/libltecms.a(ltecmswminfo.o)
                0x0000000000587e40                g_pstAssocCellHeader
                0x0000000000587e44                g_service_state
                0x0000000000587e48                g_pstLteGetTimer
 .bss           0x0000000000587e60       0x10 /home/liyupeng/zengyao/6.13/DT-W724V-20140311/output/host/usr/mips-unknown-linux-uclibc/sysroot/lib/libltecms.a(ltesmartcardreader.o)
                0x0000000000587e60                g_pstSmartcardReaderList
 .bss           0x0000000000587e70        0x0 /home/liyupeng/zengyao/6.13/DT-W724V-20140311/output/host/usr/mips-unknown-linux-uclibc/sysroot/lib/libltecms.a(ltecmsmsgproc.o)
 .bss           0x0000000000587e70       0x10 /home/liyupeng/zengyao/6.13/DT-W724V-20140311/output/host/usr/mips-unknown-linux-uclibc/sysroot/lib/libltecms.a(ltecmsapi.o)
                0x0000000000587e70                g_isLTEAttached
 .bss           0x0000000000587e80        0x0 /home/liyupeng/zengyao/6.13/DT-W724V-20140311/output/host/usr/mips-unknown-linux-uclibc/sysroot/lib/libltecms.a(ltecmsmobile.o)
 .bss           0x0000000000587e80      0x1a0 /home/liyupeng/zengyao/6.13/DT-W724V-20140311/output/host/usr/mips-unknown-linux-uclibc/sysroot/lib/libmldcms.a(mldcms.o)
                0x0000000000587e80                g_stMldInfo
 .bss           0x0000000000588020        0x0 /home/liyupeng/zengyao/6.13/DT-W724V-20140311/output/host/usr/mips-unknown-linux-uclibc/sysroot/lib/libmldcms.a(mldcmsmsgproc.o)
 .bss           0x0000000000588020       0x10 /home/liyupeng/zengyao/6.13/DT-W724V-20140311/output/host/usr/mips-unknown-linux-uclibc/sysroot/lib/libnatcms.a(natcmsmsgproc.o)
 .bss           0x0000000000588030        0x0 /home/liyupeng/zengyao/6.13/DT-W724V-20140311/output/host/usr/mips-unknown-linux-uclibc/sysroot/lib/libnatcms.a(natcmsinit.o)
 .bss           0x0000000000588030      0x2e0 /home/liyupeng/zengyao/6.13/DT-W724V-20140311/output/host/usr/mips-unknown-linux-uclibc/sysroot/lib/libnatcms.a(natcms.o)
                0x0000000000588030                g_acCtCleanPath
                0x0000000000588120                g_acKrnlNatPath
                0x0000000000588210                g_acKrnlCtPath
 .bss           0x0000000000588310        0x0 /home/liyupeng/zengyao/6.13/DT-W724V-20140311/output/host/usr/mips-unknown-linux-uclibc/sysroot/lib/libnatcms.a(natutil.o)
 .bss           0x0000000000588310        0x0 /home/liyupeng/zengyao/6.13/DT-W724V-20140311/output/host/usr/mips-unknown-linux-uclibc/sysroot/lib/libnatcms.a(natdmz.o)
 .bss           0x0000000000588310       0x30 /home/liyupeng/zengyao/6.13/DT-W724V-20140311/output/host/usr/mips-unknown-linux-uclibc/sysroot/lib/libnatcms.a(natportmap.o)
                0x0000000000588310                g_pstPortMapList
 .bss           0x0000000000588340        0x0 /home/liyupeng/zengyao/6.13/DT-W724V-20140311/output/host/usr/mips-unknown-linux-uclibc/sysroot/lib/libnatcms.a(prttrgapi.o)
 .bss           0x0000000000588340       0x10 /home/liyupeng/zengyao/6.13/DT-W724V-20140311/output/host/usr/mips-unknown-linux-uclibc/sysroot/lib/libnatcms.a(prttrgutil.o)
                0x0000000000588340                g_ulPT_mount
 .bss           0x0000000000588350       0x10 /home/liyupeng/zengyao/6.13/DT-W724V-20140311/output/host/usr/mips-unknown-linux-uclibc/sysroot/lib/libnatcms.a(natcmsctclean.o)
 .bss           0x0000000000588360        0x0 /home/liyupeng/zengyao/6.13/DT-W724V-20140311/output/host/usr/mips-unknown-linux-uclibc/sysroot/lib/libndiscms.a(ndiscmsmsgproc.o)
 .bss           0x0000000000588360       0x10 /home/liyupeng/zengyao/6.13/DT-W724V-20140311/output/host/usr/mips-unknown-linux-uclibc/sysroot/lib/libneighdisccms.a(neighdisccms.o)
 .bss           0x0000000000588370        0x0 /home/liyupeng/zengyao/6.13/DT-W724V-20140311/output/host/usr/mips-unknown-linux-uclibc/sysroot/lib/libpppccms.a(pppcapi.o)
 .bss           0x0000000000588370       0x10 /home/liyupeng/zengyao/6.13/DT-W724V-20140311/output/host/usr/mips-unknown-linux-uclibc/sysroot/lib/libpppintfcms.a(pppintfcmsinit.o)
 .bss           0x0000000000588380      0x110 /home/liyupeng/zengyao/6.13/DT-W724V-20140311/output/host/usr/mips-unknown-linux-uclibc/sysroot/lib/libpppintfcms.a(pppintfcms.o)
 .bss           0x0000000000588490      0x110 /home/liyupeng/zengyao/6.13/DT-W724V-20140311/output/host/usr/mips-unknown-linux-uclibc/sysroot/lib/libpppintfcms.a(pppintfcmsmsg.o)
 .bss           0x00000000005885a0        0x0 /home/liyupeng/zengyao/6.13/DT-W724V-20140311/output/host/usr/mips-unknown-linux-uclibc/sysroot/lib/libpppintfcms.a(pppintfcmsadapt.o)
 .bss           0x00000000005885a0       0x10 /home/liyupeng/zengyao/6.13/DT-W724V-20140311/output/host/usr/mips-unknown-linux-uclibc/sysroot/lib/libprivacybtncms.a(privacybtncmsmsgproc.o)
 .bss           0x00000000005885b0       0x90 /home/liyupeng/zengyao/6.13/DT-W724V-20140311/output/host/usr/mips-unknown-linux-uclibc/sysroot/lib/libprivacybtncms.a(privacybtncms.o)
 .bss           0x0000000000588640        0x0 /home/liyupeng/zengyao/6.13/DT-W724V-20140311/output/host/usr/mips-unknown-linux-uclibc/sysroot/lib/libdtqoscms.a(qosapi.o)
 .bss           0x0000000000588640        0x0 /home/liyupeng/zengyao/6.13/DT-W724V-20140311/output/host/usr/mips-unknown-linux-uclibc/sysroot/lib/libdtqoscms.a(qosconfig.o)
 .bss           0x0000000000588640       0x10 /home/liyupeng/zengyao/6.13/DT-W724V-20140311/output/host/usr/mips-unknown-linux-uclibc/sysroot/lib/libradvdcms.a(radvdcms.o)
                0x0000000000588640                g_ulBondingChgMTUFlag
 .bss           0x0000000000588650        0x0 /home/liyupeng/zengyao/6.13/DT-W724V-20140311/output/host/usr/mips-unknown-linux-uclibc/sysroot/lib/libradvdcms.a(radvdcmsinit.o)
 .bss           0x0000000000588650        0x0 /home/liyupeng/zengyao/6.13/DT-W724V-20140311/output/host/usr/mips-unknown-linux-uclibc/sysroot/lib/libradvdcms.a(radvdcmsmsgproc.o)
 .bss           0x0000000000588650      0x120 /home/liyupeng/zengyao/6.13/DT-W724V-20140311/output/host/usr/mips-unknown-linux-uclibc/sysroot/lib/libradvdcms.a(radvdcmsapi.o)
                0x0000000000588650                g_acLog
 .bss           0x0000000000588770        0x0 /home/liyupeng/zengyao/6.13/DT-W724V-20140311/output/host/usr/mips-unknown-linux-uclibc/sysroot/lib/libradvdcms.a(radvdcmsmsgproctr181.o)
 .bss           0x0000000000588770     0x25a0 /home/liyupeng/zengyao/6.13/DT-W724V-20140311/output/host/usr/mips-unknown-linux-uclibc/sysroot/lib/libroute6cms.a(route6cms.o)
                0x0000000000588770                g_stBindUsedIpRuleTable6
 .bss           0x000000000058ad10        0x0 /home/liyupeng/zengyao/6.13/DT-W724V-20140311/output/host/usr/mips-unknown-linux-uclibc/sysroot/lib/libroute6cms.a(route6cmsinit.o)
 .bss           0x000000000058ad10        0x0 /home/liyupeng/zengyao/6.13/DT-W724V-20140311/output/host/usr/mips-unknown-linux-uclibc/sysroot/lib/libroute6cms.a(route6cmsmsgproc.o)
 .bss           0x000000000058ad10        0x0 /home/liyupeng/zengyao/6.13/DT-W724V-20140311/output/host/usr/mips-unknown-linux-uclibc/sysroot/lib/libroute6cms.a(route6cmsapi.o)
 .bss           0x000000000058ad10        0x0 /home/liyupeng/zengyao/6.13/DT-W724V-20140311/output/host/usr/mips-unknown-linux-uclibc/sysroot/lib/libroutecms.a(routecmsmsgproc.o)
 .bss           0x000000000058ad10        0x0 /home/liyupeng/zengyao/6.13/DT-W724V-20140311/output/host/usr/mips-unknown-linux-uclibc/sysroot/lib/libroutecms.a(routecmsinit.o)
 .bss           0x000000000058ad10        0x0 /home/liyupeng/zengyao/6.13/DT-W724V-20140311/output/host/usr/mips-unknown-linux-uclibc/sysroot/lib/libroutecms.a(routecms.o)
 .bss           0x000000000058ad10     0x2df0 /home/liyupeng/zengyao/6.13/DT-W724V-20140311/output/host/usr/mips-unknown-linux-uclibc/sysroot/lib/libroutecms.a(routedft.o)
                0x000000000058ad10                g_acDftErrMsg
 .bss           0x000000000058db00       0x10 /home/liyupeng/zengyao/6.13/DT-W724V-20140311/output/host/usr/mips-unknown-linux-uclibc/sysroot/lib/libroutecms.a(routestatic.o)
 .bss           0x000000000058db10       0x10 /home/liyupeng/zengyao/6.13/DT-W724V-20140311/output/host/usr/mips-unknown-linux-uclibc/sysroot/lib/libroutecms.a(routelist.o)
 .bss           0x000000000058db20      0x160 /home/liyupeng/zengyao/6.13/DT-W724V-20140311/output/host/usr/mips-unknown-linux-uclibc/sysroot/lib/libsntpcms.a(sntpcms.o)
 .bss           0x000000000058dc80        0x0 /home/liyupeng/zengyao/6.13/DT-W724V-20140311/output/host/usr/mips-unknown-linux-uclibc/sysroot/lib/libsntpcms.a(sntpcmsposixtime.o)
 .bss           0x000000000058dc80       0x10 /home/liyupeng/zengyao/6.13/DT-W724V-20140311/output/host/usr/mips-unknown-linux-uclibc/sysroot/lib/libsntpcms.a(sntpcmsmsgproc.o)
 .bss           0x000000000058dc90        0x0 /home/liyupeng/zengyao/6.13/DT-W724V-20140311/output/host/usr/mips-unknown-linux-uclibc/sysroot/lib/libvlancms.a(vlancms.o)
 .bss           0x000000000058dc90        0x0 /home/liyupeng/zengyao/6.13/DT-W724V-20140311/output/host/usr/mips-unknown-linux-uclibc/sysroot/lib/libvlancms.a(vlancmsint.o)
 .bss           0x000000000058dc90        0x0 /home/liyupeng/zengyao/6.13/DT-W724V-20140311/output/host/usr/mips-unknown-linux-uclibc/sysroot/lib/libvlancms.a(vlancmsmsgproc.o)
 .bss           0x000000000058dc90       0x70 /home/liyupeng/zengyao/6.13/DT-W724V-20140311/output/host/usr/mips-unknown-linux-uclibc/sysroot/lib/libwancorecms.a(wancorecms.o)
                0x000000000058dc90                g_ulUpdateMTUFlag
 .bss           0x000000000058dd00        0x0 /home/liyupeng/zengyao/6.13/DT-W724V-20140311/output/host/usr/mips-unknown-linux-uclibc/sysroot/lib/libvlantermcms.a(vlantermcms.o)
 .bss           0x000000000058dd00       0x40 /home/liyupeng/zengyao/6.13/DT-W724V-20140311/output/host/usr/mips-unknown-linux-uclibc/sysroot/lib/libwlancms.a(wlancmsmsgproc.o)
                0x000000000058dd00                g_ucWl5GWpsPinDefault
                0x000000000058dd10                g_ucWlWpsPinDefault
                0x000000000058dd20                g_ulInterfaceMask
                0x000000000058dd24                g_ulWlanCommonMask
                0x000000000058dd28                g_iWlanSntpFlag
 .bss           0x000000000058dd40       0x10 /home/liyupeng/zengyao/6.13/DT-W724V-20140311/output/host/usr/mips-unknown-linux-uclibc/sysroot/lib/libwlancms.a(wlancmsinit.o)
                0x000000000058dd40                g_eCurWlanMode
                0x000000000058dd44                g_iWlanInitSetupFlag
 .bss           0x000000000058dd50       0x10 /home/liyupeng/zengyao/6.13/DT-W724V-20140311/output/host/usr/mips-unknown-linux-uclibc/sysroot/lib/libwlancms.a(wlancmslal.o)
                0x000000000058dd50                g_ePreWlanMode
 .bss           0x000000000058dd60     0x7900 /home/liyupeng/zengyao/6.13/DT-W724V-20140311/output/host/usr/mips-unknown-linux-uclibc/sysroot/lib/libwlancms.a(wlan_tr181.o)
                0x000000000058dd60                g_bNeedCloseWlanAfterNoConnt
                0x000000000058dd64                g_iWlan5GEnableUserSet
                0x000000000058dd68                g_iWlanEnableUserSet
 .bss           0x0000000000595660       0xd0 /home/liyupeng/zengyao/6.13/DT-W724V-20140311/output/host/usr/mips-unknown-linux-uclibc/sysroot/lib/libwlanbcmcms.a(wlanbcmcms.o)
                0x0000000000595660                g_ulSetupAllFlag
 .bss           0x0000000000595730        0x0 /home/liyupeng/zengyao/6.13/DT-W724V-20140311/output/host/usr/mips-unknown-linux-uclibc/sysroot/lib/libwlanbcmcms.a(wlanbcm963268.o)
 .bss           0x0000000000595730       0x90 /home/liyupeng/zengyao/6.13/DT-W724V-20140311/output/host/usr/mips-unknown-linux-uclibc/sysroot/lib/libwlanbcmcms.a(wlanmonitor.o)
                0x0000000000595730                g_ulAssocDevCount
                0x0000000000595734                g_pstDisAssocDevHeader
                0x0000000000595738                g_pstAssocDevHeader
                0x000000000059573c                g_acpreKeyMisMatch
                0x000000000059575c                g_acKeyMisMatch
                0x000000000059577c                g_acMisMatch
                0x000000000059579c                g_acMaCFltDeny
 .bss           0x00000000005957c0        0x0 /home/liyupeng/zengyao/6.13/DT-W724V-20140311/output/host/usr/mips-unknown-linux-uclibc/sysroot/lib/libatmlinkcms.a(atmlinkcmsapi.o)
 .bss           0x00000000005957c0        0x0 /home/liyupeng/zengyao/6.13/DT-W724V-20140311/output/host/usr/mips-unknown-linux-uclibc/sysroot/lib/libatmlinkcms.a(atmlinkdiag.o)
 .bss           0x00000000005957c0        0x0 /home/liyupeng/zengyao/6.13/DT-W724V-20140311/output/host/usr/mips-unknown-linux-uclibc/sysroot/lib/libdslchannelcms.a(dslchannelcmsapi.o)
 .bss           0x00000000005957c0        0x0 /home/liyupeng/zengyao/6.13/DT-W724V-20140311/output/host/usr/mips-unknown-linux-uclibc/sysroot/lib/libdslchannelcms.a(dslchanneldiag.o)
 .bss           0x00000000005957c0       0x10 /home/liyupeng/zengyao/6.13/DT-W724V-20140311/output/host/usr/mips-unknown-linux-uclibc/sysroot/lib/libdsllinecms.a(dsllinecmsapi.o)
                0x00000000005957c0                g_ulLinkStatus
 .bss           0x00000000005957d0        0x0 /home/liyupeng/zengyao/6.13/DT-W724V-20140311/output/host/usr/mips-unknown-linux-uclibc/sysroot/lib/libptmlinkcms.a(ptmlinkcmsapi.o)
 .bss           0x00000000005957d0       0x30 /home/liyupeng/zengyao/6.13/DT-W724V-20140311/output/host/usr/mips-unknown-linux-uclibc/sysroot/lib/libdtvoicecms.a(voiceapi.o)
                0x00000000005957d0                g_bNeedCheck
                0x00000000005957d4                g_bHasCheck
                0x00000000005957d8                g_WriteVDBTimer
                0x00000000005957dc                g_ulPreVoipLedState
 .bss           0x0000000000595800       0x10 /home/liyupeng/zengyao/6.13/DT-W724V-20140311/output/host/usr/mips-unknown-linux-uclibc/sysroot/lib/libdtvoicecms.a(voicecms.o)
                0x0000000000595800                g_bVoiceLogged
 .bss           0x0000000000595810        0x0 /home/liyupeng/zengyao/6.13/DT-W724V-20140311/output/host/usr/mips-unknown-linux-uclibc/sysroot/lib/libdtvoicecms.a(voiceutil.o)
 .bss           0x0000000000595810       0x10 /home/liyupeng/zengyao/6.13/DT-W724V-20140311/output/host/usr/mips-unknown-linux-uclibc/sysroot/lib/libdtvoicecms.a(voicecfg.o)
                0x0000000000595810                g_pstVoiceTapiCfg
                0x0000000000595814                g_pstVoiceState
                0x0000000000595818                g_pstVoiceServiceCfg
 .bss           0x0000000000595820       0xa0 /home/liyupeng/zengyao/6.13/DT-W724V-20140311/output/host/usr/mips-unknown-linux-uclibc/sysroot/lib/libdtvoicecms.a(IniParser.o)
 .bss           0x00000000005958c0        0x0 /home/liyupeng/zengyao/6.13/DT-W724V-20140311/output/host/usr/mips-unknown-linux-uclibc/sysroot/lib/libdtvoicecms.a(voicediag.o)
 .bss           0x00000000005958c0       0x20 /home/liyupeng/zengyao/6.13/DT-W724V-20140311/output/host/usr/mips-unknown-linux-uclibc/sysroot/lib/libdtvoicecms.a(voicecmsmsgproc.o)
                0x00000000005958c0                g_stCmsWanStatus
 .bss           0x00000000005958e0        0x0 /home/liyupeng/zengyao/6.13/DT-W724V-20140311/output/host/usr/mips-unknown-linux-uclibc/sysroot/lib/libnetpbcms.a(netphonebookapi.o)
 .bss           0x00000000005958e0       0x20 /home/liyupeng/zengyao/6.13/DT-W724V-20140311/output/host/usr/mips-unknown-linux-uclibc/sysroot/lib/librsscms.a(rssapi.o)
                0x00000000005958e0                m_bSigChld
                0x00000000005958e4                g_bV6WanUp
                0x00000000005958e8                g_bV4WanUp
                0x00000000005958ec                g_pstRssTimer
 .bss           0x0000000000595900        0x0 /home/liyupeng/zengyao/6.13/DT-W724V-20140311/output/host/usr/mips-unknown-linux-uclibc/sysroot/lib/librsscms.a(voicersscmsmsgproc.o)
 .bss           0x0000000000595900       0x50 /home/liyupeng/zengyao/6.13/DT-W724V-20140311/output/host/usr/mips-unknown-linux-uclibc/sysroot/lib/libemailcms.a(emailapi.o)
                0x0000000000595900                g_bV6WanStatus
                0x0000000000595904                g_bV4WanStatus
                0x0000000000595908                g_bWanStatus
                0x0000000000595910                g_alAccountId
                0x0000000000595938                g_auSessionId
 .bss           0x0000000000595950       0x10 /home/liyupeng/zengyao/6.13/DT-W724V-20140311/output/host/usr/mips-unknown-linux-uclibc/sysroot/lib/libemailcms.a(emailcms.o)
 .bss           0x0000000000595960        0x0 /home/liyupeng/zengyao/6.13/DT-W724V-20140311/output/host/usr/mips-unknown-linux-uclibc/sysroot/lib/libemailcms.a(voiceemailcmsmsgproc.o)
 .bss           0x0000000000595960        0x0 /opt/toolchains/crosstools-mips-gcc-4.6-linux-3.4-uclibc-0.9.32-binutils-2.21/usr/lib/gcc/mips-unknown-linux-uclibc/4.6.2/libgcc.a(_fixunsdfsi.o)
 .bss           0x0000000000595960        0x0 /opt/toolchains/crosstools-mips-gcc-4.6-linux-3.4-uclibc-0.9.32-binutils-2.21/usr/lib/gcc/mips-unknown-linux-uclibc/4.6.2/libgcc.a(_udivdi3.o)
 .bss           0x0000000000595960        0x0 /opt/toolchains/crosstools-mips-gcc-4.6-linux-3.4-uclibc-0.9.32-binutils-2.21/usr/lib/gcc/mips-unknown-linux-uclibc/4.6.2/libgcc.a(_umoddi3.o)
 .bss           0x0000000000595960        0x0 /opt/toolchains/crosstools-mips-gcc-4.6-linux-3.4-uclibc-0.9.32-binutils-2.21/usr/lib/gcc/mips-unknown-linux-uclibc/4.6.2/libgcc.a(_sf_to_df.o)
 .bss           0x0000000000595960        0x0 /opt/toolchains/crosstools-mips-gcc-4.6-linux-3.4-uclibc-0.9.32-binutils-2.21/usr/lib/gcc/mips-unknown-linux-uclibc/4.6.2/libgcc.a(_usi_to_sf.o)
 .bss           0x0000000000595960        0x0 /opt/toolchains/crosstools-mips-gcc-4.6-linux-3.4-uclibc-0.9.32-binutils-2.21/usr/lib/gcc/mips-unknown-linux-uclibc/4.6.2/libgcc.a(_addsub_df.o)
 .bss           0x0000000000595960        0x0 /opt/toolchains/crosstools-mips-gcc-4.6-linux-3.4-uclibc-0.9.32-binutils-2.21/usr/lib/gcc/mips-unknown-linux-uclibc/4.6.2/libgcc.a(_mul_df.o)
 .bss           0x0000000000595960        0x0 /opt/toolchains/crosstools-mips-gcc-4.6-linux-3.4-uclibc-0.9.32-binutils-2.21/usr/lib/gcc/mips-unknown-linux-uclibc/4.6.2/libgcc.a(_ge_df.o)
 .bss           0x0000000000595960        0x0 /opt/toolchains/crosstools-mips-gcc-4.6-linux-3.4-uclibc-0.9.32-binutils-2.21/usr/lib/gcc/mips-unknown-linux-uclibc/4.6.2/libgcc.a(_df_to_si.o)
 .bss           0x0000000000595960        0x0 /opt/toolchains/crosstools-mips-gcc-4.6-linux-3.4-uclibc-0.9.32-binutils-2.21/usr/lib/gcc/mips-unknown-linux-uclibc/4.6.2/libgcc.a(_make_df.o)
 .bss           0x0000000000595960        0x0 /opt/toolchains/crosstools-mips-gcc-4.6-linux-3.4-uclibc-0.9.32-binutils-2.21/usr/lib/gcc/mips-unknown-linux-uclibc/4.6.2/libgcc.a(_df_to_sf.o)
 .bss           0x0000000000595960        0x0 /opt/toolchains/crosstools-mips-gcc-4.6-linux-3.4-uclibc-0.9.32-binutils-2.21/usr/lib/gcc/mips-unknown-linux-uclibc/4.6.2/libgcc.a(_thenan_df.o)
 .bss           0x0000000000595960        0x0 /opt/toolchains/crosstools-mips-gcc-4.6-linux-3.4-uclibc-0.9.32-binutils-2.21/usr/lib/gcc/mips-unknown-linux-uclibc/4.6.2/libgcc.a(_lshrdi3.o)
 .bss           0x0000000000595960        0x0 /opt/toolchains/crosstools-mips-gcc-4.6-linux-3.4-uclibc-0.9.32-binutils-2.21/usr/lib/gcc/mips-unknown-linux-uclibc/4.6.2/libgcc.a(_ashldi3.o)
 .bss           0x0000000000595960        0x0 /opt/toolchains/crosstools-mips-gcc-4.6-linux-3.4-uclibc-0.9.32-binutils-2.21/usr/lib/gcc/mips-unknown-linux-uclibc/4.6.2/libgcc.a(_pack_sf.o)
 .bss           0x0000000000595960        0x0 /opt/toolchains/crosstools-mips-gcc-4.6-linux-3.4-uclibc-0.9.32-binutils-2.21/usr/lib/gcc/mips-unknown-linux-uclibc/4.6.2/libgcc.a(_unpack_sf.o)
 .bss           0x0000000000595960        0x0 /opt/toolchains/crosstools-mips-gcc-4.6-linux-3.4-uclibc-0.9.32-binutils-2.21/usr/lib/gcc/mips-unknown-linux-uclibc/4.6.2/libgcc.a(_make_sf.o)
 .bss           0x0000000000595960        0x0 /opt/toolchains/crosstools-mips-gcc-4.6-linux-3.4-uclibc-0.9.32-binutils-2.21/usr/lib/gcc/mips-unknown-linux-uclibc/4.6.2/libgcc.a(_pack_df.o)
 .bss           0x0000000000595960        0x0 /opt/toolchains/crosstools-mips-gcc-4.6-linux-3.4-uclibc-0.9.32-binutils-2.21/usr/lib/gcc/mips-unknown-linux-uclibc/4.6.2/libgcc.a(_unpack_df.o)
 .bss           0x0000000000595960        0x0 /opt/toolchains/crosstools-mips-gcc-4.6-linux-3.4-uclibc-0.9.32-binutils-2.21/usr/lib/gcc/mips-unknown-linux-uclibc/4.6.2/libgcc.a(_fpcmp_parts_df.o)
 .bss           0x0000000000595960        0x0 /opt/toolchains/crosstools-mips-gcc-4.6-linux-3.4-uclibc-0.9.32-binutils-2.21/usr/lib/gcc/mips-unknown-linux-uclibc/4.6.2/crtend.o
 .bss           0x0000000000595960        0x0 /home/liyupeng/zengyao/6.13/DT-W724V-20140311/output/host/usr/mips-unknown-linux-uclibc/sysroot/usr/lib/crtn.o
 *(COMMON)
 COMMON         0x0000000000595960      0x720 /home/liyupeng/zengyao/6.13/DT-W724V-20140311/output/host/usr/mips-unknown-linux-uclibc/sysroot/lib/libusbstoragecms.a(usbstoragecmsmsgproc.o)
                0x0000000000595960                g_astStoSerPhyMediumList
 COMMON         0x0000000000596080     0x3528 /home/liyupeng/zengyao/6.13/DT-W724V-20140311/output/host/usr/mips-unknown-linux-uclibc/sysroot/lib/libusbstoragecms.a(usbstoragecms.o)
                0x0000000000596080                g_astStoSerUserInfo
 COMMON         0x00000000005995a8      0x118 /home/liyupeng/zengyao/6.13/DT-W724V-20140311/output/host/usr/mips-unknown-linux-uclibc/sysroot/lib/libcwmpcms.a(cwmpschdwlmsgproc.o)
                0x00000000005995a8                g_astDiffValArray
                0x00000000005996a8                g_pstSchDwlTime
 COMMON         0x00000000005996c0      0xd60 /home/liyupeng/zengyao/6.13/DT-W724V-20140311/output/host/usr/mips-unknown-linux-uclibc/sysroot/lib/libipv6commoncms.a(ipv6commoncmsproc.o)
                0x00000000005996c0                g_stDHCPv6SaveWanPara
 COMMON         0x000000000059a420      0x154 /home/liyupeng/zengyao/6.13/DT-W724V-20140311/output/host/usr/mips-unknown-linux-uclibc/sysroot/lib/libethintfcms.a(ethintfcmsutil.o)
                0x000000000059a420                g_astEthItfCfg
 *fill*         0x000000000059a574        0x4 00
 COMMON         0x000000000059a578       0x30 /home/liyupeng/zengyao/6.13/DT-W724V-20140311/output/host/usr/mips-unknown-linux-uclibc/sysroot/lib/libltecms.a(ltecmswminfo.o)
                0x000000000059a578                g_stSysinfo
                0x000000000059a598                g_stWminfo
 COMMON         0x000000000059a5a8      0x2f8 /home/liyupeng/zengyao/6.13/DT-W724V-20140311/output/host/usr/mips-unknown-linux-uclibc/sysroot/lib/libltecms.a(ltecmsapi.o)
                0x000000000059a5a8                g_stLteInfoEng
                0x000000000059a698                g_astLteCfg
 COMMON         0x000000000059a8a0       0x81 /home/liyupeng/zengyao/6.13/DT-W724V-20140311/output/host/usr/mips-unknown-linux-uclibc/sysroot/lib/libmldcms.a(mldcms.o)
                0x000000000059a8a0                g_acMldWanPath
 *fill*         0x000000000059a921        0x3 00
 COMMON         0x000000000059a924      0x3c4 /home/liyupeng/zengyao/6.13/DT-W724V-20140311/output/host/usr/mips-unknown-linux-uclibc/sysroot/lib/libndiscms.a(ndiscmsmsgproc.o)
                0x000000000059a924                g_stLteIpv6Info
 COMMON         0x000000000059ace8     0x3760 /home/liyupeng/zengyao/6.13/DT-W724V-20140311/output/host/usr/mips-unknown-linux-uclibc/sysroot/lib/libradvdcms.a(radvdcmsinit.o)
                0x000000000059ace8                g_stRadvdInfo
                0x000000000059b608                g_stRadvdParameter
 COMMON         0x000000000059e448     0xae00 /home/liyupeng/zengyao/6.13/DT-W724V-20140311/output/host/usr/mips-unknown-linux-uclibc/sysroot/lib/libwlancms.a(wlancmsinit.o)
                0x000000000059e448                g_astWlVar
                0x00000000005a91f8                g_astWlMapTbl
 COMMON         0x00000000005a9248      0x120 /home/liyupeng/zengyao/6.13/DT-W724V-20140311/output/host/usr/mips-unknown-linux-uclibc/sysroot/lib/libwlancms.a(wlan_tr181.o)
                0x00000000005a9248                g_astWlRadio
 COMMON         0x00000000005a9368       0x10 /home/liyupeng/zengyao/6.13/DT-W724V-20140311/output/host/usr/mips-unknown-linux-uclibc/sysroot/lib/libwlanbcmcms.a(wlanmonitor.o)
                0x00000000005a9368                g_pstWlanAssocList
 COMMON         0x00000000005a9378     0x2ff4 /home/liyupeng/zengyao/6.13/DT-W724V-20140311/output/host/usr/mips-unknown-linux-uclibc/sysroot/lib/libdtvoicecms.a(voiceapi.o)
                0x00000000005a9378                g_stVoiceCheckUri
 COMMON         0x00000000005ac36c    0x23248 /home/liyupeng/zengyao/6.13/DT-W724V-20140311/output/host/usr/mips-unknown-linux-uclibc/sysroot/lib/libdtvoicecms.a(voicecms.o)
                0x00000000005ac36c                g_stVoiceService
                0x00000000005cf354                g_stVoiceDectLine
                0x00000000005cf3c4                g_stVoiceIncomRelate
 *fill*         0x00000000005cf5b4        0x4 00
 COMMON         0x00000000005cf5b8    0x2b140 /home/liyupeng/zengyao/6.13/DT-W724V-20140311/output/host/usr/mips-unknown-linux-uclibc/sysroot/lib/librsscms.a(rssapi.o)
                0x00000000005cf5b8                g_acVdbSubListInfo
                0x00000000005e3db8                g_acNewSublistTitle
                0x00000000005e7fb8                g_acNewSublistText
                0x00000000005f81b8                g_acForkPidInfo
                0x00000000005f91f8                g_acChannelInfo
                0x00000000005fa6f8                . = ALIGN ((. != 0x0)?0x4:0x1)
                0x00000000005fa6f8                . = ALIGN (0x4)
                0x00000000005fa6f8                . = ALIGN (0x4)
                0x00000000005fa6f8                _end = .
                0x00000000005fa6f8                PROVIDE (end, .)
                0x00000000005fa6f8                . = DATA_SEGMENT_END (.)

.stab
 *(.stab)

.stabstr
 *(.stabstr)

.stab.excl
 *(.stab.excl)

.stab.exclstr
 *(.stab.exclstr)

.stab.index
 *(.stab.index)

.stab.indexstr
 *(.stab.indexstr)

.pdr            0x0000000000000000    0x15a20
 .pdr           0x0000000000000000       0x20 /home/liyupeng/zengyao/6.13/DT-W724V-20140311/output/host/usr/mips-unknown-linux-uclibc/sysroot/usr/lib/crt1.o
 .pdr           0x0000000000000020       0x40 /home/liyupeng/zengyao/6.13/DT-W724V-20140311/output/host/usr/mips-unknown-linux-uclibc/sysroot/usr/lib/crti.o
 .pdr           0x0000000000000060        0x0 /opt/toolchains/crosstools-mips-gcc-4.6-linux-3.4-uclibc-0.9.32-binutils-2.21/usr/lib/gcc/mips-unknown-linux-uclibc/4.6.2/crtbegin.o
 .pdr           0x0000000000000060       0x60 /home/liyupeng/zengyao/6.13/DT-W724V-20140311/output/package/atp/configuration/cmsmain/management.o
 .pdr           0x00000000000000c0       0x40 /home/liyupeng/zengyao/6.13/DT-W724V-20140311/output/package/atp/configuration/cmsmain/cmsmonitor.o
 .pdr           0x0000000000000100       0x20 /home/liyupeng/zengyao/6.13/DT-W724V-20140311/output/package/atp/configuration/cmsmain/cmsinit.o
 .pdr           0x0000000000000120      0x4a0 /home/liyupeng/zengyao/6.13/DT-W724V-20140311/output/host/usr/mips-unknown-linux-uclibc/sysroot/lib/libcmscore.a(cmsmsgproc.o)
 .pdr           0x00000000000005c0      0x4e0 /home/liyupeng/zengyao/6.13/DT-W724V-20140311/output/host/usr/mips-unknown-linux-uclibc/sysroot/lib/libcmscore.a(cmsutil.o)
 .pdr           0x0000000000000aa0       0x80 /home/liyupeng/zengyao/6.13/DT-W724V-20140311/output/host/usr/mips-unknown-linux-uclibc/sysroot/lib/libcmscore.a(cmsinitapi.o)
 .pdr           0x0000000000000b20       0x40 /home/liyupeng/zengyao/6.13/DT-W724V-20140311/output/host/usr/mips-unknown-linux-uclibc/sysroot/lib/libcmscore.a(cmssigqueue.o)
 .pdr           0x0000000000000b60      0x440 /home/liyupeng/zengyao/6.13/DT-W724V-20140311/output/host/usr/mips-unknown-linux-uclibc/sysroot/lib/libinterfacecore.a(interfaceapi.o)
 .pdr           0x0000000000000fa0      0x180 /home/liyupeng/zengyao/6.13/DT-W724V-20140311/output/host/usr/mips-unknown-linux-uclibc/sysroot/lib/libinterfacecore.a(intfstats.o)
 .pdr           0x0000000000001120       0x60 /home/liyupeng/zengyao/6.13/DT-W724V-20140311/output/host/usr/mips-unknown-linux-uclibc/sysroot/lib/libinterfacecore.a(intfdescriptor.o)
 .pdr           0x0000000000001180       0xc0 /home/liyupeng/zengyao/6.13/DT-W724V-20140311/output/host/usr/mips-unknown-linux-uclibc/sysroot/lib/libinterfacecore.a(intfcfgmsgproc.o)
 .pdr           0x0000000000001240       0x80 /home/liyupeng/zengyao/6.13/DT-W724V-20140311/output/host/usr/mips-unknown-linux-uclibc/sysroot/lib/libinterfacecore.a(intfstack.o)
 .pdr           0x00000000000012c0      0x280 /home/liyupeng/zengyao/6.13/DT-W724V-20140311/output/host/usr/mips-unknown-linux-uclibc/sysroot/lib/libdmscms.a(dmscmsmsgproc.o)
 .pdr           0x0000000000001540      0x100 /home/liyupeng/zengyao/6.13/DT-W724V-20140311/output/host/usr/mips-unknown-linux-uclibc/sysroot/lib/libledservicecms.a(ledserviceini.o)
 .pdr           0x0000000000001640      0x4e0 /home/liyupeng/zengyao/6.13/DT-W724V-20140311/output/host/usr/mips-unknown-linux-uclibc/sysroot/lib/libnascms.a(nascms.o)
 .pdr           0x0000000000001b20       0x60 /home/liyupeng/zengyao/6.13/DT-W724V-20140311/output/host/usr/mips-unknown-linux-uclibc/sysroot/lib/liboamcms.a(oamcms.o)
 .pdr           0x0000000000001b80      0x1e0 /home/liyupeng/zengyao/6.13/DT-W724V-20140311/output/host/usr/mips-unknown-linux-uclibc/sysroot/lib/libtr143cms.a(tr143cmsmsgproc.o)
 .pdr           0x0000000000001d60      0x220 /home/liyupeng/zengyao/6.13/DT-W724V-20140311/output/host/usr/mips-unknown-linux-uclibc/sysroot/lib/libusbmngrcms.a(usbmngrcmsproc.o)
 .pdr           0x0000000000001f80      0x200 /home/liyupeng/zengyao/6.13/DT-W724V-20140311/output/host/usr/mips-unknown-linux-uclibc/sysroot/lib/libusbmountcms.a(usbmntcmsmsgproc.o)
 .pdr           0x0000000000002180       0x80 /home/liyupeng/zengyao/6.13/DT-W724V-20140311/output/host/usr/mips-unknown-linux-uclibc/sysroot/lib/libusbmountcms.a(usbdiskmonitor.o)
 .pdr           0x0000000000002200       0x20 /home/liyupeng/zengyao/6.13/DT-W724V-20140311/output/host/usr/mips-unknown-linux-uclibc/sysroot/lib/libusbmountcms.a(usbmntcmsinit.o)
 .pdr           0x0000000000002220      0x100 /home/liyupeng/zengyao/6.13/DT-W724V-20140311/output/host/usr/mips-unknown-linux-uclibc/sysroot/lib/libcupscms.a(cupscms.o)
 .pdr           0x0000000000002320      0x960 /home/liyupeng/zengyao/6.13/DT-W724V-20140311/output/host/usr/mips-unknown-linux-uclibc/sysroot/lib/libusbstoragecms.a(usbstoragecmsmsgproc.o)
 .pdr           0x0000000000002c80      0x420 /home/liyupeng/zengyao/6.13/DT-W724V-20140311/output/host/usr/mips-unknown-linux-uclibc/sysroot/lib/libusbstoragecms.a(usbstoragecms.o)
 .pdr           0x00000000000030a0      0x120 /home/liyupeng/zengyao/6.13/DT-W724V-20140311/output/host/usr/mips-unknown-linux-uclibc/sysroot/lib/libusbstoragecms.a(usbstoragecmsinit.o)
 .pdr           0x00000000000031c0      0x140 /home/liyupeng/zengyao/6.13/DT-W724V-20140311/output/host/usr/mips-unknown-linux-uclibc/sysroot/lib/libusbstoragecms.a(usbstorageloginctl.o)
 .pdr           0x0000000000003300       0xa0 /home/liyupeng/zengyao/6.13/DT-W724V-20140311/output/host/usr/mips-unknown-linux-uclibc/sysroot/lib/libftpservercms.a(ftpservercmsmsgproc.o)
 .pdr           0x00000000000033a0      0x220 /home/liyupeng/zengyao/6.13/DT-W724V-20140311/output/host/usr/mips-unknown-linux-uclibc/sysroot/lib/libftpservercms.a(ftpservercms.o)
 .pdr           0x00000000000035c0      0x200 /home/liyupeng/zengyao/6.13/DT-W724V-20140311/output/host/usr/mips-unknown-linux-uclibc/sysroot/lib/libsambacms.a(sambacms.o)
 .pdr           0x00000000000037c0        0x0 /home/liyupeng/zengyao/6.13/DT-W724V-20140311/output/host/usr/mips-unknown-linux-uclibc/sysroot/lib/libsambacms.a(sambacmsmsgproc.o)
 .pdr           0x00000000000037c0      0x280 /home/liyupeng/zengyao/6.13/DT-W724V-20140311/output/host/usr/mips-unknown-linux-uclibc/sysroot/lib/libcwmpcms.a(cwmpcmsmsgproc.o)
 .pdr           0x0000000000003a40       0xc0 /home/liyupeng/zengyao/6.13/DT-W724V-20140311/output/host/usr/mips-unknown-linux-uclibc/sysroot/lib/libcwmpcms.a(cwmpcms.o)
 .pdr           0x0000000000003b00      0x2e0 /home/liyupeng/zengyao/6.13/DT-W724V-20140311/output/host/usr/mips-unknown-linux-uclibc/sysroot/lib/libcwmpcms.a(cwmpschdwlmsgproc.o)
 .pdr           0x0000000000003de0       0xe0 /home/liyupeng/zengyao/6.13/DT-W724V-20140311/output/host/usr/mips-unknown-linux-uclibc/sysroot/lib/libippingcms.a(ippingcmsmsgproc.o)
 .pdr           0x0000000000003ec0       0x20 /home/liyupeng/zengyao/6.13/DT-W724V-20140311/output/host/usr/mips-unknown-linux-uclibc/sysroot/lib/liblogcms.a(logcms.o)
 .pdr           0x0000000000003ee0       0xa0 /home/liyupeng/zengyao/6.13/DT-W724V-20140311/output/host/usr/mips-unknown-linux-uclibc/sysroot/lib/liblogcms.a(logcmsinit.o)
 .pdr           0x0000000000003f80       0x80 /home/liyupeng/zengyao/6.13/DT-W724V-20140311/output/host/usr/mips-unknown-linux-uclibc/sysroot/lib/liblogcms.a(logcmsmsgproc.o)
 .pdr           0x0000000000004000       0x80 /home/liyupeng/zengyao/6.13/DT-W724V-20140311/output/host/usr/mips-unknown-linux-uclibc/sysroot/lib/libmiccms.a(miccmsmsgproc.o)
 .pdr           0x0000000000004080       0x40 /home/liyupeng/zengyao/6.13/DT-W724V-20140311/output/host/usr/mips-unknown-linux-uclibc/sysroot/lib/libmiccms.a(miccms.o)
 .pdr           0x00000000000040c0       0xa0 /home/liyupeng/zengyao/6.13/DT-W724V-20140311/output/host/usr/mips-unknown-linux-uclibc/sysroot/lib/libportmntcms.a(portmntcms.o)
 .pdr           0x0000000000004160       0x20 /home/liyupeng/zengyao/6.13/DT-W724V-20140311/output/host/usr/mips-unknown-linux-uclibc/sysroot/lib/libsysinfocms.a(sysinfoinit.o)
 .pdr           0x0000000000004180      0x300 /home/liyupeng/zengyao/6.13/DT-W724V-20140311/output/host/usr/mips-unknown-linux-uclibc/sysroot/lib/libsysinfocms.a(sysinfocmsmsgproc.o)
 .pdr           0x0000000000004480      0x120 /home/liyupeng/zengyao/6.13/DT-W724V-20140311/output/host/usr/mips-unknown-linux-uclibc/sysroot/lib/libsysinfocms.a(sysinfocms.o)
 .pdr           0x00000000000045a0      0x420 /home/liyupeng/zengyao/6.13/DT-W724V-20140311/output/host/usr/mips-unknown-linux-uclibc/sysroot/lib/libsysinfocms.a(sysperiodicstatistics.o)
 .pdr           0x00000000000049c0       0x20 /home/liyupeng/zengyao/6.13/DT-W724V-20140311/output/host/usr/mips-unknown-linux-uclibc/sysroot/lib/libtelnetdcms.a(telnetdcmsinit.o)
 .pdr           0x00000000000049e0       0xc0 /home/liyupeng/zengyao/6.13/DT-W724V-20140311/output/host/usr/mips-unknown-linux-uclibc/sysroot/lib/libtelnetdcms.a(telnetdcmsmsgproc.o)
 .pdr           0x0000000000004aa0      0x1c0 /home/liyupeng/zengyao/6.13/DT-W724V-20140311/output/host/usr/mips-unknown-linux-uclibc/sysroot/lib/libtr111cms.a(tr111cmsmsgproc.o)
 .pdr           0x0000000000004c60       0x40 /home/liyupeng/zengyao/6.13/DT-W724V-20140311/output/host/usr/mips-unknown-linux-uclibc/sysroot/lib/libtr111cms.a(tr111cms.o)
 .pdr           0x0000000000004ca0      0x280 /home/liyupeng/zengyao/6.13/DT-W724V-20140311/output/host/usr/mips-unknown-linux-uclibc/sysroot/lib/libtr232cms.a(ipdrcms.o)
 .pdr           0x0000000000004f20      0x140 /home/liyupeng/zengyao/6.13/DT-W724V-20140311/output/host/usr/mips-unknown-linux-uclibc/sysroot/lib/libtr232cms.a(ipdrcmsmsgproc.o)
 .pdr           0x0000000000005060       0x20 /home/liyupeng/zengyao/6.13/DT-W724V-20140311/output/host/usr/mips-unknown-linux-uclibc/sysroot/lib/libtr232cms.a(ipdrcmsinit.o)
 .pdr           0x0000000000005080      0x1e0 /home/liyupeng/zengyao/6.13/DT-W724V-20140311/output/host/usr/mips-unknown-linux-uclibc/sysroot/lib/libtraceroutecms.a(traceroutecmsmsgproc.o)
 .pdr           0x0000000000005260       0x80 /home/liyupeng/zengyao/6.13/DT-W724V-20140311/output/host/usr/mips-unknown-linux-uclibc/sysroot/lib/libupnpcms.a(upnpcms.o)
 .pdr           0x00000000000052e0        0x0 /home/liyupeng/zengyao/6.13/DT-W724V-20140311/output/host/usr/mips-unknown-linux-uclibc/sysroot/lib/libuserintfcms.a(userintfinit.o)
 .pdr           0x00000000000052e0       0x80 /home/liyupeng/zengyao/6.13/DT-W724V-20140311/output/host/usr/mips-unknown-linux-uclibc/sysroot/lib/libuserintfcms.a(userintfcmsmsgproc.o)
 .pdr           0x0000000000005360        0x0 /home/liyupeng/zengyao/6.13/DT-W724V-20140311/output/host/usr/mips-unknown-linux-uclibc/sysroot/lib/libuserintfcms.a(userintfcms.o)
 .pdr           0x0000000000005360      0x160 /home/liyupeng/zengyao/6.13/DT-W724V-20140311/output/host/usr/mips-unknown-linux-uclibc/sysroot/lib/libwebcms.a(webcmsmsgproc.o)
 .pdr           0x00000000000054c0       0xc0 /home/liyupeng/zengyao/6.13/DT-W724V-20140311/output/host/usr/mips-unknown-linux-uclibc/sysroot/lib/libbridgeportcms.a(bridgeportcmsapi.o)
 .pdr           0x0000000000005580       0xa0 /home/liyupeng/zengyao/6.13/DT-W724V-20140311/output/host/usr/mips-unknown-linux-uclibc/sysroot/lib/libbridgeportcms.a(bridgeportcms.o)
 .pdr           0x0000000000005620       0x80 /home/liyupeng/zengyao/6.13/DT-W724V-20140311/output/host/usr/mips-unknown-linux-uclibc/sysroot/lib/libbridgeportcms.a(bridgingcmsinit.o)
 .pdr           0x00000000000056a0      0x280 /home/liyupeng/zengyao/6.13/DT-W724V-20140311/output/host/usr/mips-unknown-linux-uclibc/sysroot/lib/libbridgeportcms.a(bridgingfiltercmsapi.o)
 .pdr           0x0000000000005920       0x20 /home/liyupeng/zengyao/6.13/DT-W724V-20140311/output/host/usr/mips-unknown-linux-uclibc/sysroot/lib/libbridgeportcms.a(bridgingfiltercmsinit.o)
 .pdr           0x0000000000005940      0x120 /home/liyupeng/zengyao/6.13/DT-W724V-20140311/output/host/usr/mips-unknown-linux-uclibc/sysroot/lib/libbridgeportcms.a(bridgingfiltercmsmsgproc.o)
 .pdr           0x0000000000005a60      0x1a0 /home/liyupeng/zengyao/6.13/DT-W724V-20140311/output/host/usr/mips-unknown-linux-uclibc/sysroot/lib/libbridgeportcms.a(bridgingfilteroptions.o)
 .pdr           0x0000000000005c00      0x160 /home/liyupeng/zengyao/6.13/DT-W724V-20140311/output/host/usr/mips-unknown-linux-uclibc/sysroot/lib/libipv6commoncms.a(ipv6commoncms.o)
 .pdr           0x0000000000005d60       0xa0 /home/liyupeng/zengyao/6.13/DT-W724V-20140311/output/host/usr/mips-unknown-linux-uclibc/sysroot/lib/libipv6commoncms.a(ipv6commoncmsproc.o)
 .pdr           0x0000000000005e00      0x2c0 /home/liyupeng/zengyao/6.13/DT-W724V-20140311/output/host/usr/mips-unknown-linux-uclibc/sysroot/lib/libddnscms.a(ddnscms.o)
 .pdr           0x00000000000060c0       0x40 /home/liyupeng/zengyao/6.13/DT-W724V-20140311/output/host/usr/mips-unknown-linux-uclibc/sysroot/lib/libddnscms.a(ddnscmsinit.o)
 .pdr           0x0000000000006100       0x80 /home/liyupeng/zengyao/6.13/DT-W724V-20140311/output/host/usr/mips-unknown-linux-uclibc/sysroot/lib/libddnscms.a(ddnscmsmsgproc.o)
 .pdr           0x0000000000006180       0xe0 /home/liyupeng/zengyao/6.13/DT-W724V-20140311/output/host/usr/mips-unknown-linux-uclibc/sysroot/lib/libddnscms.a(ddnscmsapi.o)
 .pdr           0x0000000000006260       0xa0 /home/liyupeng/zengyao/6.13/DT-W724V-20140311/output/host/usr/mips-unknown-linux-uclibc/sysroot/lib/libdhcp6ccms.a(dhcp6ccms.o)
 .pdr           0x0000000000006300      0x2e0 /home/liyupeng/zengyao/6.13/DT-W724V-20140311/output/host/usr/mips-unknown-linux-uclibc/sysroot/lib/libdhcp6ccms.a(dhcp6ccmsmsgproc.o)
 .pdr           0x00000000000065e0      0x280 /home/liyupeng/zengyao/6.13/DT-W724V-20140311/output/host/usr/mips-unknown-linux-uclibc/sysroot/lib/libdhcp6scms.a(dhcp6scms.o)
 .pdr           0x0000000000006860       0x20 /home/liyupeng/zengyao/6.13/DT-W724V-20140311/output/host/usr/mips-unknown-linux-uclibc/sysroot/lib/libdhcp6scms.a(dhcp6scmsinit.o)
 .pdr           0x0000000000006880       0x20 /home/liyupeng/zengyao/6.13/DT-W724V-20140311/output/host/usr/mips-unknown-linux-uclibc/sysroot/lib/libdhcp6scms.a(dhcp6scmsapi.o)
 .pdr           0x00000000000068a0      0x1e0 /home/liyupeng/zengyao/6.13/DT-W724V-20140311/output/host/usr/mips-unknown-linux-uclibc/sysroot/lib/libdhcp6scms.a(dhcp6scmsproctr181.o)
 .pdr           0x0000000000006a80      0x200 /home/liyupeng/zengyao/6.13/DT-W724V-20140311/output/host/usr/mips-unknown-linux-uclibc/sysroot/lib/libdhcpccms.a(dhcpccmsmsgproc.o)
 .pdr           0x0000000000006c80       0x40 /home/liyupeng/zengyao/6.13/DT-W724V-20140311/output/host/usr/mips-unknown-linux-uclibc/sysroot/lib/libdhcpccms.a(dhcpccmsinit.o)
 .pdr           0x0000000000006cc0       0xc0 /home/liyupeng/zengyao/6.13/DT-W724V-20140311/output/host/usr/mips-unknown-linux-uclibc/sysroot/lib/libdhcpccms.a(dhcpccms.o)
 .pdr           0x0000000000006d80       0xa0 /home/liyupeng/zengyao/6.13/DT-W724V-20140311/output/host/usr/mips-unknown-linux-uclibc/sysroot/lib/libdhcpscms.a(lanapi.o)
 .pdr           0x0000000000006e20      0x140 /home/liyupeng/zengyao/6.13/DT-W724V-20140311/output/host/usr/mips-unknown-linux-uclibc/sysroot/lib/libdhcpscms.a(lanutil.o)
 .pdr           0x0000000000006f60       0x40 /home/liyupeng/zengyao/6.13/DT-W724V-20140311/output/host/usr/mips-unknown-linux-uclibc/sysroot/lib/libdhcpscms.a(dhcpscmsinit.o)
 .pdr           0x0000000000006fa0       0xc0 /home/liyupeng/zengyao/6.13/DT-W724V-20140311/output/host/usr/mips-unknown-linux-uclibc/sysroot/lib/libdhcpscms.a(dhcpscmsnotifymngr.o)
 .pdr           0x0000000000007060      0x100 /home/liyupeng/zengyao/6.13/DT-W724V-20140311/output/host/usr/mips-unknown-linux-uclibc/sysroot/lib/libdhcpscms.a(dhcpscmsmsgproc.o)
 .pdr           0x0000000000007160      0x1c0 /home/liyupeng/zengyao/6.13/DT-W724V-20140311/output/host/usr/mips-unknown-linux-uclibc/sysroot/lib/libdhcpscms.a(dhcpscms_tr181.o)
 .pdr           0x0000000000007320       0x60 /home/liyupeng/zengyao/6.13/DT-W724V-20140311/output/host/usr/mips-unknown-linux-uclibc/sysroot/lib/libdnscms.a(dnscmsinit.o)
 .pdr           0x0000000000007380      0x2a0 /home/liyupeng/zengyao/6.13/DT-W724V-20140311/output/host/usr/mips-unknown-linux-uclibc/sysroot/lib/libdnscms.a(dnscms.o)
 .pdr           0x0000000000007620      0x180 /home/liyupeng/zengyao/6.13/DT-W724V-20140311/output/host/usr/mips-unknown-linux-uclibc/sysroot/lib/libdnscms.a(dnscmsdb.o)
 .pdr           0x00000000000077a0      0x180 /home/liyupeng/zengyao/6.13/DT-W724V-20140311/output/host/usr/mips-unknown-linux-uclibc/sysroot/lib/libdnsdiagcms.a(dnsdiagcmsmsgproc.o)
 .pdr           0x0000000000007920      0x100 /home/liyupeng/zengyao/6.13/DT-W724V-20140311/output/host/usr/mips-unknown-linux-uclibc/sysroot/lib/libethintfcms.a(ethintfcmsapi.o)
 .pdr           0x0000000000007a20       0x80 /home/liyupeng/zengyao/6.13/DT-W724V-20140311/output/host/usr/mips-unknown-linux-uclibc/sysroot/lib/libethintfcms.a(ethintfcmsutil.o)
 .pdr           0x0000000000007aa0       0x40 /home/liyupeng/zengyao/6.13/DT-W724V-20140311/output/host/usr/mips-unknown-linux-uclibc/sysroot/lib/libethintfcms.a(ethintfcmsmsgproc.o)
 .pdr           0x0000000000007ae0      0x2c0 /home/liyupeng/zengyao/6.13/DT-W724V-20140311/output/host/usr/mips-unknown-linux-uclibc/sysroot/lib/libethlinkcms.a(ethlinkcmsapi.o)
 .pdr           0x0000000000007da0      0x440 /home/liyupeng/zengyao/6.13/DT-W724V-20140311/output/host/usr/mips-unknown-linux-uclibc/sysroot/lib/libfirewallcmsdt.a(firewallcmsdt.o)
 .pdr           0x00000000000081e0      0x180 /home/liyupeng/zengyao/6.13/DT-W724V-20140311/output/host/usr/mips-unknown-linux-uclibc/sysroot/lib/libfirewallcmsdt.a(fwfilterapi.o)
 .pdr           0x0000000000008360      0x5e0 /home/liyupeng/zengyao/6.13/DT-W724V-20140311/output/host/usr/mips-unknown-linux-uclibc/sysroot/lib/libfirewallcmsdt.a(fwfilterutil.o)
 .pdr           0x0000000000008940      0x100 /home/liyupeng/zengyao/6.13/DT-W724V-20140311/output/host/usr/mips-unknown-linux-uclibc/sysroot/lib/libfirewallcmsdt.a(abuseapi.o)
 .pdr           0x0000000000008a40      0x180 /home/liyupeng/zengyao/6.13/DT-W724V-20140311/output/host/usr/mips-unknown-linux-uclibc/sysroot/lib/libfirewallcmsdt.a(abuseutil.o)
 .pdr           0x0000000000008bc0      0x180 /home/liyupeng/zengyao/6.13/DT-W724V-20140311/output/host/usr/mips-unknown-linux-uclibc/sysroot/lib/libfirewallcmsdt.a(timeruleflushfcctl.o)
 .pdr           0x0000000000008d40      0x4c0 /home/liyupeng/zengyao/6.13/DT-W724V-20140311/output/host/usr/mips-unknown-linux-uclibc/sysroot/lib/libfoncms.a(foncms.o)
 .pdr           0x0000000000009200       0x20 /home/liyupeng/zengyao/6.13/DT-W724V-20140311/output/host/usr/mips-unknown-linux-uclibc/sysroot/lib/libfoncms.a(foncmsinit.o)
 .pdr           0x0000000000009220      0x240 /home/liyupeng/zengyao/6.13/DT-W724V-20140311/output/host/usr/mips-unknown-linux-uclibc/sysroot/lib/libfoncms.a(foncmsmsgproc.o)
 .pdr           0x0000000000009460      0x380 /home/liyupeng/zengyao/6.13/DT-W724V-20140311/output/host/usr/mips-unknown-linux-uclibc/sysroot/lib/libhybridcms.a(hybridcms.o)
 .pdr           0x00000000000097e0      0x8a0 /home/liyupeng/zengyao/6.13/DT-W724V-20140311/output/host/usr/mips-unknown-linux-uclibc/sysroot/lib/libhybridcms.a(hybridcmsfilter.o)
 .pdr           0x000000000000a080       0x40 /home/liyupeng/zengyao/6.13/DT-W724V-20140311/output/host/usr/mips-unknown-linux-uclibc/sysroot/lib/libigmpcms.a(igmpcmsmsgproc.o)
 .pdr           0x000000000000a0c0      0x1c0 /home/liyupeng/zengyao/6.13/DT-W724V-20140311/output/host/usr/mips-unknown-linux-uclibc/sysroot/lib/libigmpcms.a(igmpcms.o)
 .pdr           0x000000000000a280       0xa0 /home/liyupeng/zengyao/6.13/DT-W724V-20140311/output/host/usr/mips-unknown-linux-uclibc/sysroot/lib/libipcheckcms.a(ipcheckcms.o)
 .pdr           0x000000000000a320       0x20 /home/liyupeng/zengyao/6.13/DT-W724V-20140311/output/host/usr/mips-unknown-linux-uclibc/sysroot/lib/libipcheckcms.a(ipcheckcmsinit.o)
 .pdr           0x000000000000a340       0x60 /home/liyupeng/zengyao/6.13/DT-W724V-20140311/output/host/usr/mips-unknown-linux-uclibc/sysroot/lib/libipcheckcms.a(ipcheckcmsmsgproc.o)
 .pdr           0x000000000000a3a0      0x380 /home/liyupeng/zengyao/6.13/DT-W724V-20140311/output/host/usr/mips-unknown-linux-uclibc/sysroot/lib/libipintfcms.a(ipintfcmsapi.o)
 .pdr           0x000000000000a720      0x660 /home/liyupeng/zengyao/6.13/DT-W724V-20140311/output/host/usr/mips-unknown-linux-uclibc/sysroot/lib/libipintfcms.a(ipintfcmsget.o)
 .pdr           0x000000000000ad80       0x80 /home/liyupeng/zengyao/6.13/DT-W724V-20140311/output/host/usr/mips-unknown-linux-uclibc/sysroot/lib/libipintfcms.a(ipintfcmsset.o)
 .pdr           0x000000000000ae00      0x120 /home/liyupeng/zengyao/6.13/DT-W724V-20140311/output/host/usr/mips-unknown-linux-uclibc/sysroot/lib/libipintfcms.a(ipintfcmsint.o)
 .pdr           0x000000000000af20       0x40 /home/liyupeng/zengyao/6.13/DT-W724V-20140311/output/host/usr/mips-unknown-linux-uclibc/sysroot/lib/libiptunnelcms.a(iptunnelcmsinit.o)
 .pdr           0x000000000000af60      0x120 /home/liyupeng/zengyao/6.13/DT-W724V-20140311/output/host/usr/mips-unknown-linux-uclibc/sysroot/lib/libiptunnelcms.a(iptunnelcmsapi.o)
 .pdr           0x000000000000b080      0x200 /home/liyupeng/zengyao/6.13/DT-W724V-20140311/output/host/usr/mips-unknown-linux-uclibc/sysroot/lib/libiptunnelcms.a(iptunnelcms.o)
 .pdr           0x000000000000b280      0x100 /home/liyupeng/zengyao/6.13/DT-W724V-20140311/output/host/usr/mips-unknown-linux-uclibc/sysroot/lib/liblannamecms.a(lannamecms.o)
 .pdr           0x000000000000b380       0x20 /home/liyupeng/zengyao/6.13/DT-W724V-20140311/output/host/usr/mips-unknown-linux-uclibc/sysroot/lib/liblannamecms.a(lannamecmsmsgproc.o)
 .pdr           0x000000000000b3a0      0x2a0 /home/liyupeng/zengyao/6.13/DT-W724V-20140311/output/host/usr/mips-unknown-linux-uclibc/sysroot/lib/libltecms.a(lteprofile.o)
 .pdr           0x000000000000b640      0x180 /home/liyupeng/zengyao/6.13/DT-W724V-20140311/output/host/usr/mips-unknown-linux-uclibc/sysroot/lib/libltecms.a(ltecmssimcard.o)
 .pdr           0x000000000000b7c0      0x2a0 /home/liyupeng/zengyao/6.13/DT-W724V-20140311/output/host/usr/mips-unknown-linux-uclibc/sysroot/lib/libltecms.a(ltecmswminfo.o)
 .pdr           0x000000000000ba60      0x120 /home/liyupeng/zengyao/6.13/DT-W724V-20140311/output/host/usr/mips-unknown-linux-uclibc/sysroot/lib/libltecms.a(ltesmartcardreader.o)
 .pdr           0x000000000000bb80       0x80 /home/liyupeng/zengyao/6.13/DT-W724V-20140311/output/host/usr/mips-unknown-linux-uclibc/sysroot/lib/libltecms.a(ltecmsmsgproc.o)
 .pdr           0x000000000000bc00      0x220 /home/liyupeng/zengyao/6.13/DT-W724V-20140311/output/host/usr/mips-unknown-linux-uclibc/sysroot/lib/libltecms.a(ltecmsapi.o)
 .pdr           0x000000000000be20       0xe0 /home/liyupeng/zengyao/6.13/DT-W724V-20140311/output/host/usr/mips-unknown-linux-uclibc/sysroot/lib/libltecms.a(ltecmsmobile.o)
 .pdr           0x000000000000bf00      0x120 /home/liyupeng/zengyao/6.13/DT-W724V-20140311/output/host/usr/mips-unknown-linux-uclibc/sysroot/lib/libmldcms.a(mldcms.o)
 .pdr           0x000000000000c020       0x60 /home/liyupeng/zengyao/6.13/DT-W724V-20140311/output/host/usr/mips-unknown-linux-uclibc/sysroot/lib/libmldcms.a(mldcmsmsgproc.o)
 .pdr           0x000000000000c080      0x360 /home/liyupeng/zengyao/6.13/DT-W724V-20140311/output/host/usr/mips-unknown-linux-uclibc/sysroot/lib/libnatcms.a(natcmsmsgproc.o)
 .pdr           0x000000000000c3e0       0x40 /home/liyupeng/zengyao/6.13/DT-W724V-20140311/output/host/usr/mips-unknown-linux-uclibc/sysroot/lib/libnatcms.a(natcmsinit.o)
 .pdr           0x000000000000c420       0xe0 /home/liyupeng/zengyao/6.13/DT-W724V-20140311/output/host/usr/mips-unknown-linux-uclibc/sysroot/lib/libnatcms.a(natcms.o)
 .pdr           0x000000000000c500       0xe0 /home/liyupeng/zengyao/6.13/DT-W724V-20140311/output/host/usr/mips-unknown-linux-uclibc/sysroot/lib/libnatcms.a(natutil.o)
 .pdr           0x000000000000c5e0        0x0 /home/liyupeng/zengyao/6.13/DT-W724V-20140311/output/host/usr/mips-unknown-linux-uclibc/sysroot/lib/libnatcms.a(natdmz.o)
 .pdr           0x000000000000c5e0      0x3c0 /home/liyupeng/zengyao/6.13/DT-W724V-20140311/output/host/usr/mips-unknown-linux-uclibc/sysroot/lib/libnatcms.a(natportmap.o)
 .pdr           0x000000000000c9a0       0xe0 /home/liyupeng/zengyao/6.13/DT-W724V-20140311/output/host/usr/mips-unknown-linux-uclibc/sysroot/lib/libnatcms.a(prttrgapi.o)
 .pdr           0x000000000000ca80      0x600 /home/liyupeng/zengyao/6.13/DT-W724V-20140311/output/host/usr/mips-unknown-linux-uclibc/sysroot/lib/libnatcms.a(prttrgutil.o)
 .pdr           0x000000000000d080      0x140 /home/liyupeng/zengyao/6.13/DT-W724V-20140311/output/host/usr/mips-unknown-linux-uclibc/sysroot/lib/libnatcms.a(natcmsctclean.o)
 .pdr           0x000000000000d1c0      0x180 /home/liyupeng/zengyao/6.13/DT-W724V-20140311/output/host/usr/mips-unknown-linux-uclibc/sysroot/lib/libndiscms.a(ndiscmsmsgproc.o)
 .pdr           0x000000000000d340      0x1a0 /home/liyupeng/zengyao/6.13/DT-W724V-20140311/output/host/usr/mips-unknown-linux-uclibc/sysroot/lib/libneighdisccms.a(neighdisccms.o)
 .pdr           0x000000000000d4e0      0x180 /home/liyupeng/zengyao/6.13/DT-W724V-20140311/output/host/usr/mips-unknown-linux-uclibc/sysroot/lib/libpppccms.a(pppcapi.o)
 .pdr           0x000000000000d660      0x1a0 /home/liyupeng/zengyao/6.13/DT-W724V-20140311/output/host/usr/mips-unknown-linux-uclibc/sysroot/lib/libpppintfcms.a(pppintfcmsinit.o)
 .pdr           0x000000000000d800       0xc0 /home/liyupeng/zengyao/6.13/DT-W724V-20140311/output/host/usr/mips-unknown-linux-uclibc/sysroot/lib/libpppintfcms.a(pppintfcms.o)
 .pdr           0x000000000000d8c0       0xc0 /home/liyupeng/zengyao/6.13/DT-W724V-20140311/output/host/usr/mips-unknown-linux-uclibc/sysroot/lib/libpppintfcms.a(pppintfcmsmsg.o)
 .pdr           0x000000000000d980       0xe0 /home/liyupeng/zengyao/6.13/DT-W724V-20140311/output/host/usr/mips-unknown-linux-uclibc/sysroot/lib/libpppintfcms.a(pppintfcmsadapt.o)
 .pdr           0x000000000000da60       0xc0 /home/liyupeng/zengyao/6.13/DT-W724V-20140311/output/host/usr/mips-unknown-linux-uclibc/sysroot/lib/libprivacybtncms.a(privacybtncmsmsgproc.o)
 .pdr           0x000000000000db20      0x1e0 /home/liyupeng/zengyao/6.13/DT-W724V-20140311/output/host/usr/mips-unknown-linux-uclibc/sysroot/lib/libprivacybtncms.a(privacybtncms.o)
 .pdr           0x000000000000dd00       0x80 /home/liyupeng/zengyao/6.13/DT-W724V-20140311/output/host/usr/mips-unknown-linux-uclibc/sysroot/lib/libdtqoscms.a(qosapi.o)
 .pdr           0x000000000000dd80       0x40 /home/liyupeng/zengyao/6.13/DT-W724V-20140311/output/host/usr/mips-unknown-linux-uclibc/sysroot/lib/libdtqoscms.a(qosconfig.o)
 .pdr           0x000000000000ddc0      0x4e0 /home/liyupeng/zengyao/6.13/DT-W724V-20140311/output/host/usr/mips-unknown-linux-uclibc/sysroot/lib/libradvdcms.a(radvdcms.o)
 .pdr           0x000000000000e2a0       0x80 /home/liyupeng/zengyao/6.13/DT-W724V-20140311/output/host/usr/mips-unknown-linux-uclibc/sysroot/lib/libradvdcms.a(radvdcmsinit.o)
 .pdr           0x000000000000e320       0x60 /home/liyupeng/zengyao/6.13/DT-W724V-20140311/output/host/usr/mips-unknown-linux-uclibc/sysroot/lib/libradvdcms.a(radvdcmsmsgproc.o)
 .pdr           0x000000000000e380       0x40 /home/liyupeng/zengyao/6.13/DT-W724V-20140311/output/host/usr/mips-unknown-linux-uclibc/sysroot/lib/libradvdcms.a(radvdcmsapi.o)
 .pdr           0x000000000000e3c0       0xe0 /home/liyupeng/zengyao/6.13/DT-W724V-20140311/output/host/usr/mips-unknown-linux-uclibc/sysroot/lib/libradvdcms.a(radvdcmsmsgproctr181.o)
 .pdr           0x000000000000e4a0      0x4a0 /home/liyupeng/zengyao/6.13/DT-W724V-20140311/output/host/usr/mips-unknown-linux-uclibc/sysroot/lib/libroute6cms.a(route6cms.o)
 .pdr           0x000000000000e940       0x20 /home/liyupeng/zengyao/6.13/DT-W724V-20140311/output/host/usr/mips-unknown-linux-uclibc/sysroot/lib/libroute6cms.a(route6cmsinit.o)
 .pdr           0x000000000000e960       0xc0 /home/liyupeng/zengyao/6.13/DT-W724V-20140311/output/host/usr/mips-unknown-linux-uclibc/sysroot/lib/libroute6cms.a(route6cmsmsgproc.o)
 .pdr           0x000000000000ea20      0x1c0 /home/liyupeng/zengyao/6.13/DT-W724V-20140311/output/host/usr/mips-unknown-linux-uclibc/sysroot/lib/libroute6cms.a(route6cmsapi.o)
 .pdr           0x000000000000ebe0      0x180 /home/liyupeng/zengyao/6.13/DT-W724V-20140311/output/host/usr/mips-unknown-linux-uclibc/sysroot/lib/libroutecms.a(routecmsmsgproc.o)
 .pdr           0x000000000000ed60       0x40 /home/liyupeng/zengyao/6.13/DT-W724V-20140311/output/host/usr/mips-unknown-linux-uclibc/sysroot/lib/libroutecms.a(routecmsinit.o)
 .pdr           0x000000000000eda0      0x200 /home/liyupeng/zengyao/6.13/DT-W724V-20140311/output/host/usr/mips-unknown-linux-uclibc/sysroot/lib/libroutecms.a(routecms.o)
 .pdr           0x000000000000efa0      0x240 /home/liyupeng/zengyao/6.13/DT-W724V-20140311/output/host/usr/mips-unknown-linux-uclibc/sysroot/lib/libroutecms.a(routedft.o)
 .pdr           0x000000000000f1e0      0x260 /home/liyupeng/zengyao/6.13/DT-W724V-20140311/output/host/usr/mips-unknown-linux-uclibc/sysroot/lib/libroutecms.a(routestatic.o)
 .pdr           0x000000000000f440      0x160 /home/liyupeng/zengyao/6.13/DT-W724V-20140311/output/host/usr/mips-unknown-linux-uclibc/sysroot/lib/libroutecms.a(routelist.o)
 .pdr           0x000000000000f5a0      0x120 /home/liyupeng/zengyao/6.13/DT-W724V-20140311/output/host/usr/mips-unknown-linux-uclibc/sysroot/lib/libsntpcms.a(sntpcms.o)
 .pdr           0x000000000000f6c0       0x80 /home/liyupeng/zengyao/6.13/DT-W724V-20140311/output/host/usr/mips-unknown-linux-uclibc/sysroot/lib/libsntpcms.a(sntpcmsposixtime.o)
 .pdr           0x000000000000f740      0x140 /home/liyupeng/zengyao/6.13/DT-W724V-20140311/output/host/usr/mips-unknown-linux-uclibc/sysroot/lib/libsntpcms.a(sntpcmsmsgproc.o)
 .pdr           0x000000000000f880       0x80 /home/liyupeng/zengyao/6.13/DT-W724V-20140311/output/host/usr/mips-unknown-linux-uclibc/sysroot/lib/libvlancms.a(vlancms.o)
 .pdr           0x000000000000f900        0x0 /home/liyupeng/zengyao/6.13/DT-W724V-20140311/output/host/usr/mips-unknown-linux-uclibc/sysroot/lib/libvlancms.a(vlancmsint.o)
 .pdr           0x000000000000f900        0x0 /home/liyupeng/zengyao/6.13/DT-W724V-20140311/output/host/usr/mips-unknown-linux-uclibc/sysroot/lib/libvlancms.a(vlancmsmsgproc.o)
 .pdr           0x000000000000f900      0x960 /home/liyupeng/zengyao/6.13/DT-W724V-20140311/output/host/usr/mips-unknown-linux-uclibc/sysroot/lib/libwancorecms.a(wancorecms.o)
 .pdr           0x0000000000010260       0xe0 /home/liyupeng/zengyao/6.13/DT-W724V-20140311/output/host/usr/mips-unknown-linux-uclibc/sysroot/lib/libvlantermcms.a(vlantermcms.o)
 .pdr           0x0000000000010340      0x5e0 /home/liyupeng/zengyao/6.13/DT-W724V-20140311/output/host/usr/mips-unknown-linux-uclibc/sysroot/lib/libwlancms.a(wlancmsmsgproc.o)
 .pdr           0x0000000000010920      0x3c0 /home/liyupeng/zengyao/6.13/DT-W724V-20140311/output/host/usr/mips-unknown-linux-uclibc/sysroot/lib/libwlancms.a(wlancmsinit.o)
 .pdr           0x0000000000010ce0       0x60 /home/liyupeng/zengyao/6.13/DT-W724V-20140311/output/host/usr/mips-unknown-linux-uclibc/sysroot/lib/libwlancms.a(wlancmslal.o)
 .pdr           0x0000000000010d40      0x900 /home/liyupeng/zengyao/6.13/DT-W724V-20140311/output/host/usr/mips-unknown-linux-uclibc/sysroot/lib/libwlancms.a(wlan_tr181.o)
 .pdr           0x0000000000011640      0x920 /home/liyupeng/zengyao/6.13/DT-W724V-20140311/output/host/usr/mips-unknown-linux-uclibc/sysroot/lib/libwlanbcmcms.a(wlanbcmcms.o)
 .pdr           0x0000000000011f60       0xc0 /home/liyupeng/zengyao/6.13/DT-W724V-20140311/output/host/usr/mips-unknown-linux-uclibc/sysroot/lib/libwlanbcmcms.a(wlanbcm963268.o)
 .pdr           0x0000000000012020       0xe0 /home/liyupeng/zengyao/6.13/DT-W724V-20140311/output/host/usr/mips-unknown-linux-uclibc/sysroot/lib/libwlanbcmcms.a(wlanmonitor.o)
 .pdr           0x0000000000012100      0x2a0 /home/liyupeng/zengyao/6.13/DT-W724V-20140311/output/host/usr/mips-unknown-linux-uclibc/sysroot/lib/libatmlinkcms.a(atmlinkcmsapi.o)
 .pdr           0x00000000000123a0       0xc0 /home/liyupeng/zengyao/6.13/DT-W724V-20140311/output/host/usr/mips-unknown-linux-uclibc/sysroot/lib/libatmlinkcms.a(atmlinkdiag.o)
 .pdr           0x0000000000012460      0x1e0 /home/liyupeng/zengyao/6.13/DT-W724V-20140311/output/host/usr/mips-unknown-linux-uclibc/sysroot/lib/libdslchannelcms.a(dslchannelcmsapi.o)
 .pdr           0x0000000000012640      0x100 /home/liyupeng/zengyao/6.13/DT-W724V-20140311/output/host/usr/mips-unknown-linux-uclibc/sysroot/lib/libdslchannelcms.a(dslchanneldiag.o)
 .pdr           0x0000000000012740      0x280 /home/liyupeng/zengyao/6.13/DT-W724V-20140311/output/host/usr/mips-unknown-linux-uclibc/sysroot/lib/libdsllinecms.a(dsllinecmsapi.o)
 .pdr           0x00000000000129c0      0x100 /home/liyupeng/zengyao/6.13/DT-W724V-20140311/output/host/usr/mips-unknown-linux-uclibc/sysroot/lib/libptmlinkcms.a(ptmlinkcmsapi.o)
 .pdr           0x0000000000012ac0      0xe80 /home/liyupeng/zengyao/6.13/DT-W724V-20140311/output/host/usr/mips-unknown-linux-uclibc/sysroot/lib/libdtvoicecms.a(voiceapi.o)
 .pdr           0x0000000000013940      0xec0 /home/liyupeng/zengyao/6.13/DT-W724V-20140311/output/host/usr/mips-unknown-linux-uclibc/sysroot/lib/libdtvoicecms.a(voicecms.o)
 .pdr           0x0000000000014800      0x2e0 /home/liyupeng/zengyao/6.13/DT-W724V-20140311/output/host/usr/mips-unknown-linux-uclibc/sysroot/lib/libdtvoicecms.a(voiceutil.o)
 .pdr           0x0000000000014ae0      0x240 /home/liyupeng/zengyao/6.13/DT-W724V-20140311/output/host/usr/mips-unknown-linux-uclibc/sysroot/lib/libdtvoicecms.a(voicecfg.o)
 .pdr           0x0000000000014d20      0x1a0 /home/liyupeng/zengyao/6.13/DT-W724V-20140311/output/host/usr/mips-unknown-linux-uclibc/sysroot/lib/libdtvoicecms.a(IniParser.o)
 .pdr           0x0000000000014ec0       0x80 /home/liyupeng/zengyao/6.13/DT-W724V-20140311/output/host/usr/mips-unknown-linux-uclibc/sysroot/lib/libdtvoicecms.a(voicediag.o)
 .pdr           0x0000000000014f40      0x140 /home/liyupeng/zengyao/6.13/DT-W724V-20140311/output/host/usr/mips-unknown-linux-uclibc/sysroot/lib/libdtvoicecms.a(voicecmsmsgproc.o)
 .pdr           0x0000000000015080       0xa0 /home/liyupeng/zengyao/6.13/DT-W724V-20140311/output/host/usr/mips-unknown-linux-uclibc/sysroot/lib/libnetpbcms.a(netphonebookapi.o)
 .pdr           0x0000000000015120      0x2e0 /home/liyupeng/zengyao/6.13/DT-W724V-20140311/output/host/usr/mips-unknown-linux-uclibc/sysroot/lib/librsscms.a(rssapi.o)
 .pdr           0x0000000000015400       0x20 /home/liyupeng/zengyao/6.13/DT-W724V-20140311/output/host/usr/mips-unknown-linux-uclibc/sysroot/lib/librsscms.a(voicersscmsmsgproc.o)
 .pdr           0x0000000000015420      0x140 /home/liyupeng/zengyao/6.13/DT-W724V-20140311/output/host/usr/mips-unknown-linux-uclibc/sysroot/lib/libemailcms.a(emailapi.o)
 .pdr           0x0000000000015560      0x1c0 /home/liyupeng/zengyao/6.13/DT-W724V-20140311/output/host/usr/mips-unknown-linux-uclibc/sysroot/lib/libemailcms.a(emailcms.o)
 .pdr           0x0000000000015720       0x20 /home/liyupeng/zengyao/6.13/DT-W724V-20140311/output/host/usr/mips-unknown-linux-uclibc/sysroot/lib/libemailcms.a(voiceemailcmsmsgproc.o)
 .pdr           0x0000000000015740       0x20 /opt/toolchains/crosstools-mips-gcc-4.6-linux-3.4-uclibc-0.9.32-binutils-2.21/usr/lib/gcc/mips-unknown-linux-uclibc/4.6.2/libgcc.a(_fixunsdfsi.o)
 .pdr           0x0000000000015760       0x20 /opt/toolchains/crosstools-mips-gcc-4.6-linux-3.4-uclibc-0.9.32-binutils-2.21/usr/lib/gcc/mips-unknown-linux-uclibc/4.6.2/libgcc.a(_udivdi3.o)
 .pdr           0x0000000000015780       0x20 /opt/toolchains/crosstools-mips-gcc-4.6-linux-3.4-uclibc-0.9.32-binutils-2.21/usr/lib/gcc/mips-unknown-linux-uclibc/4.6.2/libgcc.a(_umoddi3.o)
 .pdr           0x00000000000157a0       0x20 /opt/toolchains/crosstools-mips-gcc-4.6-linux-3.4-uclibc-0.9.32-binutils-2.21/usr/lib/gcc/mips-unknown-linux-uclibc/4.6.2/libgcc.a(_sf_to_df.o)
 .pdr           0x00000000000157c0       0x20 /opt/toolchains/crosstools-mips-gcc-4.6-linux-3.4-uclibc-0.9.32-binutils-2.21/usr/lib/gcc/mips-unknown-linux-uclibc/4.6.2/libgcc.a(_usi_to_sf.o)
 .pdr           0x00000000000157e0       0x60 /opt/toolchains/crosstools-mips-gcc-4.6-linux-3.4-uclibc-0.9.32-binutils-2.21/usr/lib/gcc/mips-unknown-linux-uclibc/4.6.2/libgcc.a(_addsub_df.o)
 .pdr           0x0000000000015840       0x20 /opt/toolchains/crosstools-mips-gcc-4.6-linux-3.4-uclibc-0.9.32-binutils-2.21/usr/lib/gcc/mips-unknown-linux-uclibc/4.6.2/libgcc.a(_mul_df.o)
 .pdr           0x0000000000015860       0x20 /opt/toolchains/crosstools-mips-gcc-4.6-linux-3.4-uclibc-0.9.32-binutils-2.21/usr/lib/gcc/mips-unknown-linux-uclibc/4.6.2/libgcc.a(_ge_df.o)
 .pdr           0x0000000000015880       0x20 /opt/toolchains/crosstools-mips-gcc-4.6-linux-3.4-uclibc-0.9.32-binutils-2.21/usr/lib/gcc/mips-unknown-linux-uclibc/4.6.2/libgcc.a(_df_to_si.o)
 .pdr           0x00000000000158a0       0x20 /opt/toolchains/crosstools-mips-gcc-4.6-linux-3.4-uclibc-0.9.32-binutils-2.21/usr/lib/gcc/mips-unknown-linux-uclibc/4.6.2/libgcc.a(_make_df.o)
 .pdr           0x00000000000158c0       0x20 /opt/toolchains/crosstools-mips-gcc-4.6-linux-3.4-uclibc-0.9.32-binutils-2.21/usr/lib/gcc/mips-unknown-linux-uclibc/4.6.2/libgcc.a(_df_to_sf.o)
 .pdr           0x00000000000158e0        0x0 /opt/toolchains/crosstools-mips-gcc-4.6-linux-3.4-uclibc-0.9.32-binutils-2.21/usr/lib/gcc/mips-unknown-linux-uclibc/4.6.2/libgcc.a(_thenan_df.o)
 .pdr           0x00000000000158e0       0x20 /opt/toolchains/crosstools-mips-gcc-4.6-linux-3.4-uclibc-0.9.32-binutils-2.21/usr/lib/gcc/mips-unknown-linux-uclibc/4.6.2/libgcc.a(_lshrdi3.o)
 .pdr           0x0000000000015900       0x20 /opt/toolchains/crosstools-mips-gcc-4.6-linux-3.4-uclibc-0.9.32-binutils-2.21/usr/lib/gcc/mips-unknown-linux-uclibc/4.6.2/libgcc.a(_ashldi3.o)
 .pdr           0x0000000000015920       0x20 /opt/toolchains/crosstools-mips-gcc-4.6-linux-3.4-uclibc-0.9.32-binutils-2.21/usr/lib/gcc/mips-unknown-linux-uclibc/4.6.2/libgcc.a(_pack_sf.o)
 .pdr           0x0000000000015940       0x20 /opt/toolchains/crosstools-mips-gcc-4.6-linux-3.4-uclibc-0.9.32-binutils-2.21/usr/lib/gcc/mips-unknown-linux-uclibc/4.6.2/libgcc.a(_unpack_sf.o)
 .pdr           0x0000000000015960       0x20 /opt/toolchains/crosstools-mips-gcc-4.6-linux-3.4-uclibc-0.9.32-binutils-2.21/usr/lib/gcc/mips-unknown-linux-uclibc/4.6.2/libgcc.a(_make_sf.o)
 .pdr           0x0000000000015980       0x20 /opt/toolchains/crosstools-mips-gcc-4.6-linux-3.4-uclibc-0.9.32-binutils-2.21/usr/lib/gcc/mips-unknown-linux-uclibc/4.6.2/libgcc.a(_pack_df.o)
 .pdr           0x00000000000159a0       0x20 /opt/toolchains/crosstools-mips-gcc-4.6-linux-3.4-uclibc-0.9.32-binutils-2.21/usr/lib/gcc/mips-unknown-linux-uclibc/4.6.2/libgcc.a(_unpack_df.o)
 .pdr           0x00000000000159c0       0x20 /opt/toolchains/crosstools-mips-gcc-4.6-linux-3.4-uclibc-0.9.32-binutils-2.21/usr/lib/gcc/mips-unknown-linux-uclibc/4.6.2/libgcc.a(_fpcmp_parts_df.o)
 .pdr           0x00000000000159e0        0x0 /opt/toolchains/crosstools-mips-gcc-4.6-linux-3.4-uclibc-0.9.32-binutils-2.21/usr/lib/gcc/mips-unknown-linux-uclibc/4.6.2/crtend.o
 .pdr           0x00000000000159e0       0x40 /home/liyupeng/zengyao/6.13/DT-W724V-20140311/output/host/usr/mips-unknown-linux-uclibc/sysroot/usr/lib/crtn.o

.comment        0x0000000000000000       0x30
 *(.comment)
 .comment       0x0000000000000000       0x11 /home/liyupeng/zengyao/6.13/DT-W724V-20140311/output/host/usr/mips-unknown-linux-uclibc/sysroot/usr/lib/crti.o
                                         0x12 (size before relaxing)
 .comment       0x0000000000000011       0x1f /opt/toolchains/crosstools-mips-gcc-4.6-linux-3.4-uclibc-0.9.32-binutils-2.21/usr/lib/gcc/mips-unknown-linux-uclibc/4.6.2/crtbegin.o
                                         0x20 (size before relaxing)
 .comment       0x0000000000000000       0x20 /home/liyupeng/zengyao/6.13/DT-W724V-20140311/output/package/atp/configuration/cmsmain/management.o
 .comment       0x0000000000000000       0x20 /home/liyupeng/zengyao/6.13/DT-W724V-20140311/output/package/atp/configuration/cmsmain/cmsmonitor.o
 .comment       0x0000000000000000       0x20 /home/liyupeng/zengyao/6.13/DT-W724V-20140311/output/package/atp/configuration/cmsmain/cmsinit.o
 .comment       0x0000000000000000       0x20 /home/liyupeng/zengyao/6.13/DT-W724V-20140311/output/host/usr/mips-unknown-linux-uclibc/sysroot/lib/libcmscore.a(cmsmsgproc.o)
 .comment       0x0000000000000000       0x20 /home/liyupeng/zengyao/6.13/DT-W724V-20140311/output/host/usr/mips-unknown-linux-uclibc/sysroot/lib/libcmscore.a(cmsutil.o)
 .comment       0x0000000000000000       0x20 /home/liyupeng/zengyao/6.13/DT-W724V-20140311/output/host/usr/mips-unknown-linux-uclibc/sysroot/lib/libcmscore.a(cmsinitapi.o)
 .comment       0x0000000000000000       0x20 /home/liyupeng/zengyao/6.13/DT-W724V-20140311/output/host/usr/mips-unknown-linux-uclibc/sysroot/lib/libcmscore.a(cmssigqueue.o)
 .comment       0x0000000000000000       0x20 /home/liyupeng/zengyao/6.13/DT-W724V-20140311/output/host/usr/mips-unknown-linux-uclibc/sysroot/lib/libinterfacecore.a(interfaceapi.o)
 .comment       0x0000000000000000       0x20 /home/liyupeng/zengyao/6.13/DT-W724V-20140311/output/host/usr/mips-unknown-linux-uclibc/sysroot/lib/libinterfacecore.a(intfstats.o)
 .comment       0x0000000000000000       0x20 /home/liyupeng/zengyao/6.13/DT-W724V-20140311/output/host/usr/mips-unknown-linux-uclibc/sysroot/lib/libinterfacecore.a(intfdescriptor.o)
 .comment       0x0000000000000000       0x20 /home/liyupeng/zengyao/6.13/DT-W724V-20140311/output/host/usr/mips-unknown-linux-uclibc/sysroot/lib/libinterfacecore.a(intfcfgmsgproc.o)
 .comment       0x0000000000000000       0x20 /home/liyupeng/zengyao/6.13/DT-W724V-20140311/output/host/usr/mips-unknown-linux-uclibc/sysroot/lib/libinterfacecore.a(intfstack.o)
 .comment       0x0000000000000000       0x20 /home/liyupeng/zengyao/6.13/DT-W724V-20140311/output/host/usr/mips-unknown-linux-uclibc/sysroot/lib/libdmscms.a(dmscmsmsgproc.o)
 .comment       0x0000000000000000       0x20 /home/liyupeng/zengyao/6.13/DT-W724V-20140311/output/host/usr/mips-unknown-linux-uclibc/sysroot/lib/libledservicecms.a(ledserviceini.o)
 .comment       0x0000000000000000       0x20 /home/liyupeng/zengyao/6.13/DT-W724V-20140311/output/host/usr/mips-unknown-linux-uclibc/sysroot/lib/libnascms.a(nascms.o)
 .comment       0x0000000000000000       0x20 /home/liyupeng/zengyao/6.13/DT-W724V-20140311/output/host/usr/mips-unknown-linux-uclibc/sysroot/lib/liboamcms.a(oamcms.o)
 .comment       0x0000000000000000       0x20 /home/liyupeng/zengyao/6.13/DT-W724V-20140311/output/host/usr/mips-unknown-linux-uclibc/sysroot/lib/libtr143cms.a(tr143cmsmsgproc.o)
 .comment       0x0000000000000000       0x20 /home/liyupeng/zengyao/6.13/DT-W724V-20140311/output/host/usr/mips-unknown-linux-uclibc/sysroot/lib/libusbmngrcms.a(usbmngrcmsproc.o)
 .comment       0x0000000000000000       0x20 /home/liyupeng/zengyao/6.13/DT-W724V-20140311/output/host/usr/mips-unknown-linux-uclibc/sysroot/lib/libusbmountcms.a(usbmntcmsmsgproc.o)
 .comment       0x0000000000000000       0x20 /home/liyupeng/zengyao/6.13/DT-W724V-20140311/output/host/usr/mips-unknown-linux-uclibc/sysroot/lib/libusbmountcms.a(usbdiskmonitor.o)
 .comment       0x0000000000000000       0x20 /home/liyupeng/zengyao/6.13/DT-W724V-20140311/output/host/usr/mips-unknown-linux-uclibc/sysroot/lib/libusbmountcms.a(usbmntcmsinit.o)
 .comment       0x0000000000000000       0x20 /home/liyupeng/zengyao/6.13/DT-W724V-20140311/output/host/usr/mips-unknown-linux-uclibc/sysroot/lib/libcupscms.a(cupscms.o)
 .comment       0x0000000000000000       0x20 /home/liyupeng/zengyao/6.13/DT-W724V-20140311/output/host/usr/mips-unknown-linux-uclibc/sysroot/lib/libusbstoragecms.a(usbstoragecmsmsgproc.o)
 .comment       0x0000000000000000       0x20 /home/liyupeng/zengyao/6.13/DT-W724V-20140311/output/host/usr/mips-unknown-linux-uclibc/sysroot/lib/libusbstoragecms.a(usbstoragecms.o)
 .comment       0x0000000000000000       0x20 /home/liyupeng/zengyao/6.13/DT-W724V-20140311/output/host/usr/mips-unknown-linux-uclibc/sysroot/lib/libusbstoragecms.a(usbstoragecmsinit.o)
 .comment       0x0000000000000000       0x20 /home/liyupeng/zengyao/6.13/DT-W724V-20140311/output/host/usr/mips-unknown-linux-uclibc/sysroot/lib/libusbstoragecms.a(usbstorageloginctl.o)
 .comment       0x0000000000000000       0x20 /home/liyupeng/zengyao/6.13/DT-W724V-20140311/output/host/usr/mips-unknown-linux-uclibc/sysroot/lib/libftpservercms.a(ftpservercmsmsgproc.o)
 .comment       0x0000000000000000       0x20 /home/liyupeng/zengyao/6.13/DT-W724V-20140311/output/host/usr/mips-unknown-linux-uclibc/sysroot/lib/libftpservercms.a(ftpservercms.o)
 .comment       0x0000000000000000       0x20 /home/liyupeng/zengyao/6.13/DT-W724V-20140311/output/host/usr/mips-unknown-linux-uclibc/sysroot/lib/libsambacms.a(sambacms.o)
 .comment       0x0000000000000000       0x20 /home/liyupeng/zengyao/6.13/DT-W724V-20140311/output/host/usr/mips-unknown-linux-uclibc/sysroot/lib/libsambacms.a(sambacmsmsgproc.o)
 .comment       0x0000000000000000       0x20 /home/liyupeng/zengyao/6.13/DT-W724V-20140311/output/host/usr/mips-unknown-linux-uclibc/sysroot/lib/libcwmpcms.a(cwmpcmsmsgproc.o)
 .comment       0x0000000000000000       0x20 /home/liyupeng/zengyao/6.13/DT-W724V-20140311/output/host/usr/mips-unknown-linux-uclibc/sysroot/lib/libcwmpcms.a(cwmpcms.o)
 .comment       0x0000000000000000       0x20 /home/liyupeng/zengyao/6.13/DT-W724V-20140311/output/host/usr/mips-unknown-linux-uclibc/sysroot/lib/libcwmpcms.a(cwmpschdwlmsgproc.o)
 .comment       0x0000000000000000       0x20 /home/liyupeng/zengyao/6.13/DT-W724V-20140311/output/host/usr/mips-unknown-linux-uclibc/sysroot/lib/libippingcms.a(ippingcmsmsgproc.o)
 .comment       0x0000000000000000       0x20 /home/liyupeng/zengyao/6.13/DT-W724V-20140311/output/host/usr/mips-unknown-linux-uclibc/sysroot/lib/liblogcms.a(logcms.o)
 .comment       0x0000000000000000       0x20 /home/liyupeng/zengyao/6.13/DT-W724V-20140311/output/host/usr/mips-unknown-linux-uclibc/sysroot/lib/liblogcms.a(logcmsinit.o)
 .comment       0x0000000000000000       0x20 /home/liyupeng/zengyao/6.13/DT-W724V-20140311/output/host/usr/mips-unknown-linux-uclibc/sysroot/lib/liblogcms.a(logcmsmsgproc.o)
 .comment       0x0000000000000000       0x20 /home/liyupeng/zengyao/6.13/DT-W724V-20140311/output/host/usr/mips-unknown-linux-uclibc/sysroot/lib/libmiccms.a(miccmsmsgproc.o)
 .comment       0x0000000000000000       0x20 /home/liyupeng/zengyao/6.13/DT-W724V-20140311/output/host/usr/mips-unknown-linux-uclibc/sysroot/lib/libmiccms.a(miccms.o)
 .comment       0x0000000000000000       0x20 /home/liyupeng/zengyao/6.13/DT-W724V-20140311/output/host/usr/mips-unknown-linux-uclibc/sysroot/lib/libportmntcms.a(portmntcms.o)
 .comment       0x0000000000000000       0x20 /home/liyupeng/zengyao/6.13/DT-W724V-20140311/output/host/usr/mips-unknown-linux-uclibc/sysroot/lib/libsysinfocms.a(sysinfoinit.o)
 .comment       0x0000000000000000       0x20 /home/liyupeng/zengyao/6.13/DT-W724V-20140311/output/host/usr/mips-unknown-linux-uclibc/sysroot/lib/libsysinfocms.a(sysinfocmsmsgproc.o)
 .comment       0x0000000000000000       0x20 /home/liyupeng/zengyao/6.13/DT-W724V-20140311/output/host/usr/mips-unknown-linux-uclibc/sysroot/lib/libsysinfocms.a(sysinfocms.o)
 .comment       0x0000000000000000       0x20 /home/liyupeng/zengyao/6.13/DT-W724V-20140311/output/host/usr/mips-unknown-linux-uclibc/sysroot/lib/libsysinfocms.a(sysperiodicstatistics.o)
 .comment       0x0000000000000000       0x20 /home/liyupeng/zengyao/6.13/DT-W724V-20140311/output/host/usr/mips-unknown-linux-uclibc/sysroot/lib/libtelnetdcms.a(telnetdcmsinit.o)
 .comment       0x0000000000000000       0x20 /home/liyupeng/zengyao/6.13/DT-W724V-20140311/output/host/usr/mips-unknown-linux-uclibc/sysroot/lib/libtelnetdcms.a(telnetdcmsmsgproc.o)
 .comment       0x0000000000000000       0x20 /home/liyupeng/zengyao/6.13/DT-W724V-20140311/output/host/usr/mips-unknown-linux-uclibc/sysroot/lib/libtr111cms.a(tr111cmsmsgproc.o)
 .comment       0x0000000000000000       0x20 /home/liyupeng/zengyao/6.13/DT-W724V-20140311/output/host/usr/mips-unknown-linux-uclibc/sysroot/lib/libtr111cms.a(tr111cms.o)
 .comment       0x0000000000000000       0x20 /home/liyupeng/zengyao/6.13/DT-W724V-20140311/output/host/usr/mips-unknown-linux-uclibc/sysroot/lib/libtr232cms.a(ipdrcms.o)
 .comment       0x0000000000000000       0x20 /home/liyupeng/zengyao/6.13/DT-W724V-20140311/output/host/usr/mips-unknown-linux-uclibc/sysroot/lib/libtr232cms.a(ipdrcmsmsgproc.o)
 .comment       0x0000000000000000       0x20 /home/liyupeng/zengyao/6.13/DT-W724V-20140311/output/host/usr/mips-unknown-linux-uclibc/sysroot/lib/libtr232cms.a(ipdrcmsinit.o)
 .comment       0x0000000000000000       0x20 /home/liyupeng/zengyao/6.13/DT-W724V-20140311/output/host/usr/mips-unknown-linux-uclibc/sysroot/lib/libtraceroutecms.a(traceroutecmsmsgproc.o)
 .comment       0x0000000000000000       0x20 /home/liyupeng/zengyao/6.13/DT-W724V-20140311/output/host/usr/mips-unknown-linux-uclibc/sysroot/lib/libupnpcms.a(upnpcms.o)
 .comment       0x0000000000000000       0x20 /home/liyupeng/zengyao/6.13/DT-W724V-20140311/output/host/usr/mips-unknown-linux-uclibc/sysroot/lib/libuserintfcms.a(userintfinit.o)
 .comment       0x0000000000000000       0x20 /home/liyupeng/zengyao/6.13/DT-W724V-20140311/output/host/usr/mips-unknown-linux-uclibc/sysroot/lib/libuserintfcms.a(userintfcmsmsgproc.o)
 .comment       0x0000000000000000       0x20 /home/liyupeng/zengyao/6.13/DT-W724V-20140311/output/host/usr/mips-unknown-linux-uclibc/sysroot/lib/libuserintfcms.a(userintfcms.o)
 .comment       0x0000000000000000       0x20 /home/liyupeng/zengyao/6.13/DT-W724V-20140311/output/host/usr/mips-unknown-linux-uclibc/sysroot/lib/libwebcms.a(webcmsmsgproc.o)
 .comment       0x0000000000000000       0x20 /home/liyupeng/zengyao/6.13/DT-W724V-20140311/output/host/usr/mips-unknown-linux-uclibc/sysroot/lib/libbridgeportcms.a(bridgeportcmsapi.o)
 .comment       0x0000000000000000       0x20 /home/liyupeng/zengyao/6.13/DT-W724V-20140311/output/host/usr/mips-unknown-linux-uclibc/sysroot/lib/libbridgeportcms.a(bridgeportcms.o)
 .comment       0x0000000000000000       0x20 /home/liyupeng/zengyao/6.13/DT-W724V-20140311/output/host/usr/mips-unknown-linux-uclibc/sysroot/lib/libbridgeportcms.a(bridgingcmsinit.o)
 .comment       0x0000000000000000       0x20 /home/liyupeng/zengyao/6.13/DT-W724V-20140311/output/host/usr/mips-unknown-linux-uclibc/sysroot/lib/libbridgeportcms.a(bridgingfiltercmsapi.o)
 .comment       0x0000000000000000       0x20 /home/liyupeng/zengyao/6.13/DT-W724V-20140311/output/host/usr/mips-unknown-linux-uclibc/sysroot/lib/libbridgeportcms.a(bridgingfiltercmsinit.o)
 .comment       0x0000000000000000       0x20 /home/liyupeng/zengyao/6.13/DT-W724V-20140311/output/host/usr/mips-unknown-linux-uclibc/sysroot/lib/libbridgeportcms.a(bridgingfiltercmsmsgproc.o)
 .comment       0x0000000000000000       0x20 /home/liyupeng/zengyao/6.13/DT-W724V-20140311/output/host/usr/mips-unknown-linux-uclibc/sysroot/lib/libbridgeportcms.a(bridgingfilteroptions.o)
 .comment       0x0000000000000000       0x20 /home/liyupeng/zengyao/6.13/DT-W724V-20140311/output/host/usr/mips-unknown-linux-uclibc/sysroot/lib/libipv6commoncms.a(ipv6commoncms.o)
 .comment       0x0000000000000000       0x20 /home/liyupeng/zengyao/6.13/DT-W724V-20140311/output/host/usr/mips-unknown-linux-uclibc/sysroot/lib/libipv6commoncms.a(ipv6commoncmsproc.o)
 .comment       0x0000000000000000       0x20 /home/liyupeng/zengyao/6.13/DT-W724V-20140311/output/host/usr/mips-unknown-linux-uclibc/sysroot/lib/libddnscms.a(ddnscms.o)
 .comment       0x0000000000000000       0x20 /home/liyupeng/zengyao/6.13/DT-W724V-20140311/output/host/usr/mips-unknown-linux-uclibc/sysroot/lib/libddnscms.a(ddnscmsinit.o)
 .comment       0x0000000000000000       0x20 /home/liyupeng/zengyao/6.13/DT-W724V-20140311/output/host/usr/mips-unknown-linux-uclibc/sysroot/lib/libddnscms.a(ddnscmsmsgproc.o)
 .comment       0x0000000000000000       0x20 /home/liyupeng/zengyao/6.13/DT-W724V-20140311/output/host/usr/mips-unknown-linux-uclibc/sysroot/lib/libddnscms.a(ddnscmsapi.o)
 .comment       0x0000000000000000       0x20 /home/liyupeng/zengyao/6.13/DT-W724V-20140311/output/host/usr/mips-unknown-linux-uclibc/sysroot/lib/libdhcp6ccms.a(dhcp6ccms.o)
 .comment       0x0000000000000000       0x20 /home/liyupeng/zengyao/6.13/DT-W724V-20140311/output/host/usr/mips-unknown-linux-uclibc/sysroot/lib/libdhcp6ccms.a(dhcp6ccmsmsgproc.o)
 .comment       0x0000000000000000       0x20 /home/liyupeng/zengyao/6.13/DT-W724V-20140311/output/host/usr/mips-unknown-linux-uclibc/sysroot/lib/libdhcp6scms.a(dhcp6scms.o)
 .comment       0x0000000000000000       0x20 /home/liyupeng/zengyao/6.13/DT-W724V-20140311/output/host/usr/mips-unknown-linux-uclibc/sysroot/lib/libdhcp6scms.a(dhcp6scmsinit.o)
 .comment       0x0000000000000000       0x20 /home/liyupeng/zengyao/6.13/DT-W724V-20140311/output/host/usr/mips-unknown-linux-uclibc/sysroot/lib/libdhcp6scms.a(dhcp6scmsapi.o)
 .comment       0x0000000000000000       0x20 /home/liyupeng/zengyao/6.13/DT-W724V-20140311/output/host/usr/mips-unknown-linux-uclibc/sysroot/lib/libdhcp6scms.a(dhcp6scmsproctr181.o)
 .comment       0x0000000000000000       0x20 /home/liyupeng/zengyao/6.13/DT-W724V-20140311/output/host/usr/mips-unknown-linux-uclibc/sysroot/lib/libdhcpccms.a(dhcpccmsmsgproc.o)
 .comment       0x0000000000000000       0x20 /home/liyupeng/zengyao/6.13/DT-W724V-20140311/output/host/usr/mips-unknown-linux-uclibc/sysroot/lib/libdhcpccms.a(dhcpccmsinit.o)
 .comment       0x0000000000000000       0x20 /home/liyupeng/zengyao/6.13/DT-W724V-20140311/output/host/usr/mips-unknown-linux-uclibc/sysroot/lib/libdhcpccms.a(dhcpccms.o)
 .comment       0x0000000000000000       0x20 /home/liyupeng/zengyao/6.13/DT-W724V-20140311/output/host/usr/mips-unknown-linux-uclibc/sysroot/lib/libdhcpscms.a(lanapi.o)
 .comment       0x0000000000000000       0x20 /home/liyupeng/zengyao/6.13/DT-W724V-20140311/output/host/usr/mips-unknown-linux-uclibc/sysroot/lib/libdhcpscms.a(lanutil.o)
 .comment       0x0000000000000000       0x20 /home/liyupeng/zengyao/6.13/DT-W724V-20140311/output/host/usr/mips-unknown-linux-uclibc/sysroot/lib/libdhcpscms.a(dhcpscmsinit.o)
 .comment       0x0000000000000000       0x20 /home/liyupeng/zengyao/6.13/DT-W724V-20140311/output/host/usr/mips-unknown-linux-uclibc/sysroot/lib/libdhcpscms.a(dhcpscmsnotifymngr.o)
 .comment       0x0000000000000000       0x20 /home/liyupeng/zengyao/6.13/DT-W724V-20140311/output/host/usr/mips-unknown-linux-uclibc/sysroot/lib/libdhcpscms.a(dhcpscmsmsgproc.o)
 .comment       0x0000000000000000       0x20 /home/liyupeng/zengyao/6.13/DT-W724V-20140311/output/host/usr/mips-unknown-linux-uclibc/sysroot/lib/libdhcpscms.a(dhcpscms_tr181.o)
 .comment       0x0000000000000000       0x20 /home/liyupeng/zengyao/6.13/DT-W724V-20140311/output/host/usr/mips-unknown-linux-uclibc/sysroot/lib/libdnscms.a(dnscmsinit.o)
 .comment       0x0000000000000000       0x20 /home/liyupeng/zengyao/6.13/DT-W724V-20140311/output/host/usr/mips-unknown-linux-uclibc/sysroot/lib/libdnscms.a(dnscms.o)
 .comment       0x0000000000000000       0x20 /home/liyupeng/zengyao/6.13/DT-W724V-20140311/output/host/usr/mips-unknown-linux-uclibc/sysroot/lib/libdnscms.a(dnscmsdb.o)
 .comment       0x0000000000000000       0x20 /home/liyupeng/zengyao/6.13/DT-W724V-20140311/output/host/usr/mips-unknown-linux-uclibc/sysroot/lib/libdnsdiagcms.a(dnsdiagcmsmsgproc.o)
 .comment       0x0000000000000000       0x20 /home/liyupeng/zengyao/6.13/DT-W724V-20140311/output/host/usr/mips-unknown-linux-uclibc/sysroot/lib/libethintfcms.a(ethintfcmsapi.o)
 .comment       0x0000000000000000       0x20 /home/liyupeng/zengyao/6.13/DT-W724V-20140311/output/host/usr/mips-unknown-linux-uclibc/sysroot/lib/libethintfcms.a(ethintfcmsutil.o)
 .comment       0x0000000000000000       0x20 /home/liyupeng/zengyao/6.13/DT-W724V-20140311/output/host/usr/mips-unknown-linux-uclibc/sysroot/lib/libethintfcms.a(ethintfcmsmsgproc.o)
 .comment       0x0000000000000000       0x20 /home/liyupeng/zengyao/6.13/DT-W724V-20140311/output/host/usr/mips-unknown-linux-uclibc/sysroot/lib/libethlinkcms.a(ethlinkcmsapi.o)
 .comment       0x0000000000000000       0x20 /home/liyupeng/zengyao/6.13/DT-W724V-20140311/output/host/usr/mips-unknown-linux-uclibc/sysroot/lib/libfirewallcmsdt.a(firewallcmsdt.o)
 .comment       0x0000000000000000       0x20 /home/liyupeng/zengyao/6.13/DT-W724V-20140311/output/host/usr/mips-unknown-linux-uclibc/sysroot/lib/libfirewallcmsdt.a(fwfilterapi.o)
 .comment       0x0000000000000000       0x20 /home/liyupeng/zengyao/6.13/DT-W724V-20140311/output/host/usr/mips-unknown-linux-uclibc/sysroot/lib/libfirewallcmsdt.a(fwfilterutil.o)
 .comment       0x0000000000000000       0x20 /home/liyupeng/zengyao/6.13/DT-W724V-20140311/output/host/usr/mips-unknown-linux-uclibc/sysroot/lib/libfirewallcmsdt.a(abuseapi.o)
 .comment       0x0000000000000000       0x20 /home/liyupeng/zengyao/6.13/DT-W724V-20140311/output/host/usr/mips-unknown-linux-uclibc/sysroot/lib/libfirewallcmsdt.a(abuseutil.o)
 .comment       0x0000000000000000       0x20 /home/liyupeng/zengyao/6.13/DT-W724V-20140311/output/host/usr/mips-unknown-linux-uclibc/sysroot/lib/libfirewallcmsdt.a(timeruleflushfcctl.o)
 .comment       0x0000000000000000       0x20 /home/liyupeng/zengyao/6.13/DT-W724V-20140311/output/host/usr/mips-unknown-linux-uclibc/sysroot/lib/libfoncms.a(foncms.o)
 .comment       0x0000000000000000       0x20 /home/liyupeng/zengyao/6.13/DT-W724V-20140311/output/host/usr/mips-unknown-linux-uclibc/sysroot/lib/libfoncms.a(foncmsinit.o)
 .comment       0x0000000000000000       0x20 /home/liyupeng/zengyao/6.13/DT-W724V-20140311/output/host/usr/mips-unknown-linux-uclibc/sysroot/lib/libfoncms.a(foncmsmsgproc.o)
 .comment       0x0000000000000000       0x20 /home/liyupeng/zengyao/6.13/DT-W724V-20140311/output/host/usr/mips-unknown-linux-uclibc/sysroot/lib/libhybridcms.a(hybridcms.o)
 .comment       0x0000000000000000       0x20 /home/liyupeng/zengyao/6.13/DT-W724V-20140311/output/host/usr/mips-unknown-linux-uclibc/sysroot/lib/libhybridcms.a(hybridcmsfilter.o)
 .comment       0x0000000000000000       0x20 /home/liyupeng/zengyao/6.13/DT-W724V-20140311/output/host/usr/mips-unknown-linux-uclibc/sysroot/lib/libigmpcms.a(igmpcmsmsgproc.o)
 .comment       0x0000000000000000       0x20 /home/liyupeng/zengyao/6.13/DT-W724V-20140311/output/host/usr/mips-unknown-linux-uclibc/sysroot/lib/libigmpcms.a(igmpcms.o)
 .comment       0x0000000000000000       0x20 /home/liyupeng/zengyao/6.13/DT-W724V-20140311/output/host/usr/mips-unknown-linux-uclibc/sysroot/lib/libipcheckcms.a(ipcheckcms.o)
 .comment       0x0000000000000000       0x20 /home/liyupeng/zengyao/6.13/DT-W724V-20140311/output/host/usr/mips-unknown-linux-uclibc/sysroot/lib/libipcheckcms.a(ipcheckcmsinit.o)
 .comment       0x0000000000000000       0x20 /home/liyupeng/zengyao/6.13/DT-W724V-20140311/output/host/usr/mips-unknown-linux-uclibc/sysroot/lib/libipcheckcms.a(ipcheckcmsmsgproc.o)
 .comment       0x0000000000000000       0x20 /home/liyupeng/zengyao/6.13/DT-W724V-20140311/output/host/usr/mips-unknown-linux-uclibc/sysroot/lib/libipintfcms.a(ipintfcmsapi.o)
 .comment       0x0000000000000000       0x20 /home/liyupeng/zengyao/6.13/DT-W724V-20140311/output/host/usr/mips-unknown-linux-uclibc/sysroot/lib/libipintfcms.a(ipintfcmsget.o)
 .comment       0x0000000000000000       0x20 /home/liyupeng/zengyao/6.13/DT-W724V-20140311/output/host/usr/mips-unknown-linux-uclibc/sysroot/lib/libipintfcms.a(ipintfcmsset.o)
 .comment       0x0000000000000000       0x20 /home/liyupeng/zengyao/6.13/DT-W724V-20140311/output/host/usr/mips-unknown-linux-uclibc/sysroot/lib/libipintfcms.a(ipintfcmsint.o)
 .comment       0x0000000000000000       0x20 /home/liyupeng/zengyao/6.13/DT-W724V-20140311/output/host/usr/mips-unknown-linux-uclibc/sysroot/lib/libiptunnelcms.a(iptunnelcmsinit.o)
 .comment       0x0000000000000000       0x20 /home/liyupeng/zengyao/6.13/DT-W724V-20140311/output/host/usr/mips-unknown-linux-uclibc/sysroot/lib/libiptunnelcms.a(iptunnelcmsapi.o)
 .comment       0x0000000000000000       0x20 /home/liyupeng/zengyao/6.13/DT-W724V-20140311/output/host/usr/mips-unknown-linux-uclibc/sysroot/lib/libiptunnelcms.a(iptunnelcms.o)
 .comment       0x0000000000000000       0x20 /home/liyupeng/zengyao/6.13/DT-W724V-20140311/output/host/usr/mips-unknown-linux-uclibc/sysroot/lib/liblannamecms.a(lannamecms.o)
 .comment       0x0000000000000000       0x20 /home/liyupeng/zengyao/6.13/DT-W724V-20140311/output/host/usr/mips-unknown-linux-uclibc/sysroot/lib/liblannamecms.a(lannamecmsmsgproc.o)
 .comment       0x0000000000000000       0x20 /home/liyupeng/zengyao/6.13/DT-W724V-20140311/output/host/usr/mips-unknown-linux-uclibc/sysroot/lib/libltecms.a(lteprofile.o)
 .comment       0x0000000000000000       0x20 /home/liyupeng/zengyao/6.13/DT-W724V-20140311/output/host/usr/mips-unknown-linux-uclibc/sysroot/lib/libltecms.a(ltecmssimcard.o)
 .comment       0x0000000000000000       0x20 /home/liyupeng/zengyao/6.13/DT-W724V-20140311/output/host/usr/mips-unknown-linux-uclibc/sysroot/lib/libltecms.a(ltecmswminfo.o)
 .comment       0x0000000000000000       0x20 /home/liyupeng/zengyao/6.13/DT-W724V-20140311/output/host/usr/mips-unknown-linux-uclibc/sysroot/lib/libltecms.a(ltesmartcardreader.o)
 .comment       0x0000000000000000       0x20 /home/liyupeng/zengyao/6.13/DT-W724V-20140311/output/host/usr/mips-unknown-linux-uclibc/sysroot/lib/libltecms.a(ltecmsmsgproc.o)
 .comment       0x0000000000000000       0x20 /home/liyupeng/zengyao/6.13/DT-W724V-20140311/output/host/usr/mips-unknown-linux-uclibc/sysroot/lib/libltecms.a(ltecmsapi.o)
 .comment       0x0000000000000000       0x20 /home/liyupeng/zengyao/6.13/DT-W724V-20140311/output/host/usr/mips-unknown-linux-uclibc/sysroot/lib/libltecms.a(ltecmsmobile.o)
 .comment       0x0000000000000000       0x20 /home/liyupeng/zengyao/6.13/DT-W724V-20140311/output/host/usr/mips-unknown-linux-uclibc/sysroot/lib/libmldcms.a(mldcms.o)
 .comment       0x0000000000000000       0x20 /home/liyupeng/zengyao/6.13/DT-W724V-20140311/output/host/usr/mips-unknown-linux-uclibc/sysroot/lib/libmldcms.a(mldcmsmsgproc.o)
 .comment       0x0000000000000000       0x20 /home/liyupeng/zengyao/6.13/DT-W724V-20140311/output/host/usr/mips-unknown-linux-uclibc/sysroot/lib/libnatcms.a(natcmsmsgproc.o)
 .comment       0x0000000000000000       0x20 /home/liyupeng/zengyao/6.13/DT-W724V-20140311/output/host/usr/mips-unknown-linux-uclibc/sysroot/lib/libnatcms.a(natcmsinit.o)
 .comment       0x0000000000000000       0x20 /home/liyupeng/zengyao/6.13/DT-W724V-20140311/output/host/usr/mips-unknown-linux-uclibc/sysroot/lib/libnatcms.a(natcms.o)
 .comment       0x0000000000000000       0x20 /home/liyupeng/zengyao/6.13/DT-W724V-20140311/output/host/usr/mips-unknown-linux-uclibc/sysroot/lib/libnatcms.a(natutil.o)
 .comment       0x0000000000000000       0x20 /home/liyupeng/zengyao/6.13/DT-W724V-20140311/output/host/usr/mips-unknown-linux-uclibc/sysroot/lib/libnatcms.a(natdmz.o)
 .comment       0x0000000000000000       0x20 /home/liyupeng/zengyao/6.13/DT-W724V-20140311/output/host/usr/mips-unknown-linux-uclibc/sysroot/lib/libnatcms.a(natportmap.o)
 .comment       0x0000000000000000       0x20 /home/liyupeng/zengyao/6.13/DT-W724V-20140311/output/host/usr/mips-unknown-linux-uclibc/sysroot/lib/libnatcms.a(prttrgapi.o)
 .comment       0x0000000000000000       0x20 /home/liyupeng/zengyao/6.13/DT-W724V-20140311/output/host/usr/mips-unknown-linux-uclibc/sysroot/lib/libnatcms.a(prttrgutil.o)
 .comment       0x0000000000000000       0x20 /home/liyupeng/zengyao/6.13/DT-W724V-20140311/output/host/usr/mips-unknown-linux-uclibc/sysroot/lib/libnatcms.a(natcmsctclean.o)
 .comment       0x0000000000000000       0x20 /home/liyupeng/zengyao/6.13/DT-W724V-20140311/output/host/usr/mips-unknown-linux-uclibc/sysroot/lib/libndiscms.a(ndiscmsmsgproc.o)
 .comment       0x0000000000000000       0x20 /home/liyupeng/zengyao/6.13/DT-W724V-20140311/output/host/usr/mips-unknown-linux-uclibc/sysroot/lib/libneighdisccms.a(neighdisccms.o)
 .comment       0x0000000000000000       0x20 /home/liyupeng/zengyao/6.13/DT-W724V-20140311/output/host/usr/mips-unknown-linux-uclibc/sysroot/lib/libpppccms.a(pppcapi.o)
 .comment       0x0000000000000000       0x20 /home/liyupeng/zengyao/6.13/DT-W724V-20140311/output/host/usr/mips-unknown-linux-uclibc/sysroot/lib/libpppintfcms.a(pppintfcmsinit.o)
 .comment       0x0000000000000000       0x20 /home/liyupeng/zengyao/6.13/DT-W724V-20140311/output/host/usr/mips-unknown-linux-uclibc/sysroot/lib/libpppintfcms.a(pppintfcms.o)
 .comment       0x0000000000000000       0x20 /home/liyupeng/zengyao/6.13/DT-W724V-20140311/output/host/usr/mips-unknown-linux-uclibc/sysroot/lib/libpppintfcms.a(pppintfcmsmsg.o)
 .comment       0x0000000000000000       0x20 /home/liyupeng/zengyao/6.13/DT-W724V-20140311/output/host/usr/mips-unknown-linux-uclibc/sysroot/lib/libpppintfcms.a(pppintfcmsadapt.o)
 .comment       0x0000000000000000       0x20 /home/liyupeng/zengyao/6.13/DT-W724V-20140311/output/host/usr/mips-unknown-linux-uclibc/sysroot/lib/libprivacybtncms.a(privacybtncmsmsgproc.o)
 .comment       0x0000000000000000       0x20 /home/liyupeng/zengyao/6.13/DT-W724V-20140311/output/host/usr/mips-unknown-linux-uclibc/sysroot/lib/libprivacybtncms.a(privacybtncms.o)
 .comment       0x0000000000000000       0x20 /home/liyupeng/zengyao/6.13/DT-W724V-20140311/output/host/usr/mips-unknown-linux-uclibc/sysroot/lib/libdtqoscms.a(qosapi.o)
 .comment       0x0000000000000000       0x20 /home/liyupeng/zengyao/6.13/DT-W724V-20140311/output/host/usr/mips-unknown-linux-uclibc/sysroot/lib/libdtqoscms.a(qosconfig.o)
 .comment       0x0000000000000000       0x20 /home/liyupeng/zengyao/6.13/DT-W724V-20140311/output/host/usr/mips-unknown-linux-uclibc/sysroot/lib/libradvdcms.a(radvdcms.o)
 .comment       0x0000000000000000       0x20 /home/liyupeng/zengyao/6.13/DT-W724V-20140311/output/host/usr/mips-unknown-linux-uclibc/sysroot/lib/libradvdcms.a(radvdcmsinit.o)
 .comment       0x0000000000000000       0x20 /home/liyupeng/zengyao/6.13/DT-W724V-20140311/output/host/usr/mips-unknown-linux-uclibc/sysroot/lib/libradvdcms.a(radvdcmsmsgproc.o)
 .comment       0x0000000000000000       0x20 /home/liyupeng/zengyao/6.13/DT-W724V-20140311/output/host/usr/mips-unknown-linux-uclibc/sysroot/lib/libradvdcms.a(radvdcmsapi.o)
 .comment       0x0000000000000000       0x20 /home/liyupeng/zengyao/6.13/DT-W724V-20140311/output/host/usr/mips-unknown-linux-uclibc/sysroot/lib/libradvdcms.a(radvdcmsmsgproctr181.o)
 .comment       0x0000000000000000       0x20 /home/liyupeng/zengyao/6.13/DT-W724V-20140311/output/host/usr/mips-unknown-linux-uclibc/sysroot/lib/libroute6cms.a(route6cms.o)
 .comment       0x0000000000000000       0x20 /home/liyupeng/zengyao/6.13/DT-W724V-20140311/output/host/usr/mips-unknown-linux-uclibc/sysroot/lib/libroute6cms.a(route6cmsinit.o)
 .comment       0x0000000000000000       0x20 /home/liyupeng/zengyao/6.13/DT-W724V-20140311/output/host/usr/mips-unknown-linux-uclibc/sysroot/lib/libroute6cms.a(route6cmsmsgproc.o)
 .comment       0x0000000000000000       0x20 /home/liyupeng/zengyao/6.13/DT-W724V-20140311/output/host/usr/mips-unknown-linux-uclibc/sysroot/lib/libroute6cms.a(route6cmsapi.o)
 .comment       0x0000000000000000       0x20 /home/liyupeng/zengyao/6.13/DT-W724V-20140311/output/host/usr/mips-unknown-linux-uclibc/sysroot/lib/libroutecms.a(routecmsmsgproc.o)
 .comment       0x0000000000000000       0x20 /home/liyupeng/zengyao/6.13/DT-W724V-20140311/output/host/usr/mips-unknown-linux-uclibc/sysroot/lib/libroutecms.a(routecmsinit.o)
 .comment       0x0000000000000000       0x20 /home/liyupeng/zengyao/6.13/DT-W724V-20140311/output/host/usr/mips-unknown-linux-uclibc/sysroot/lib/libroutecms.a(routecms.o)
 .comment       0x0000000000000000       0x20 /home/liyupeng/zengyao/6.13/DT-W724V-20140311/output/host/usr/mips-unknown-linux-uclibc/sysroot/lib/libroutecms.a(routedft.o)
 .comment       0x0000000000000000       0x20 /home/liyupeng/zengyao/6.13/DT-W724V-20140311/output/host/usr/mips-unknown-linux-uclibc/sysroot/lib/libroutecms.a(routestatic.o)
 .comment       0x0000000000000000       0x20 /home/liyupeng/zengyao/6.13/DT-W724V-20140311/output/host/usr/mips-unknown-linux-uclibc/sysroot/lib/libroutecms.a(routelist.o)
 .comment       0x0000000000000000       0x20 /home/liyupeng/zengyao/6.13/DT-W724V-20140311/output/host/usr/mips-unknown-linux-uclibc/sysroot/lib/libsntpcms.a(sntpcms.o)
 .comment       0x0000000000000000       0x20 /home/liyupeng/zengyao/6.13/DT-W724V-20140311/output/host/usr/mips-unknown-linux-uclibc/sysroot/lib/libsntpcms.a(sntpcmsposixtime.o)
 .comment       0x0000000000000000       0x20 /home/liyupeng/zengyao/6.13/DT-W724V-20140311/output/host/usr/mips-unknown-linux-uclibc/sysroot/lib/libsntpcms.a(sntpcmsmsgproc.o)
 .comment       0x0000000000000000       0x20 /home/liyupeng/zengyao/6.13/DT-W724V-20140311/output/host/usr/mips-unknown-linux-uclibc/sysroot/lib/libvlancms.a(vlancms.o)
 .comment       0x0000000000000000       0x20 /home/liyupeng/zengyao/6.13/DT-W724V-20140311/output/host/usr/mips-unknown-linux-uclibc/sysroot/lib/libvlancms.a(vlancmsint.o)
 .comment       0x0000000000000000       0x20 /home/liyupeng/zengyao/6.13/DT-W724V-20140311/output/host/usr/mips-unknown-linux-uclibc/sysroot/lib/libvlancms.a(vlancmsmsgproc.o)
 .comment       0x0000000000000000       0x20 /home/liyupeng/zengyao/6.13/DT-W724V-20140311/output/host/usr/mips-unknown-linux-uclibc/sysroot/lib/libwancorecms.a(wancorecms.o)
 .comment       0x0000000000000000       0x20 /home/liyupeng/zengyao/6.13/DT-W724V-20140311/output/host/usr/mips-unknown-linux-uclibc/sysroot/lib/libvlantermcms.a(vlantermcms.o)
 .comment       0x0000000000000000       0x20 /home/liyupeng/zengyao/6.13/DT-W724V-20140311/output/host/usr/mips-unknown-linux-uclibc/sysroot/lib/libwlancms.a(wlancmsmsgproc.o)
 .comment       0x0000000000000000       0x20 /home/liyupeng/zengyao/6.13/DT-W724V-20140311/output/host/usr/mips-unknown-linux-uclibc/sysroot/lib/libwlancms.a(wlancmsinit.o)
 .comment       0x0000000000000000       0x20 /home/liyupeng/zengyao/6.13/DT-W724V-20140311/output/host/usr/mips-unknown-linux-uclibc/sysroot/lib/libwlancms.a(wlancmslal.o)
 .comment       0x0000000000000000       0x20 /home/liyupeng/zengyao/6.13/DT-W724V-20140311/output/host/usr/mips-unknown-linux-uclibc/sysroot/lib/libwlancms.a(wlan_tr181.o)
 .comment       0x0000000000000000       0x20 /home/liyupeng/zengyao/6.13/DT-W724V-20140311/output/host/usr/mips-unknown-linux-uclibc/sysroot/lib/libwlanbcmcms.a(wlanbcmcms.o)
 .comment       0x0000000000000000       0x20 /home/liyupeng/zengyao/6.13/DT-W724V-20140311/output/host/usr/mips-unknown-linux-uclibc/sysroot/lib/libwlanbcmcms.a(wlanbcm963268.o)
 .comment       0x0000000000000000       0x20 /home/liyupeng/zengyao/6.13/DT-W724V-20140311/output/host/usr/mips-unknown-linux-uclibc/sysroot/lib/libwlanbcmcms.a(wlanmonitor.o)
 .comment       0x0000000000000000       0x20 /home/liyupeng/zengyao/6.13/DT-W724V-20140311/output/host/usr/mips-unknown-linux-uclibc/sysroot/lib/libatmlinkcms.a(atmlinkcmsapi.o)
 .comment       0x0000000000000000       0x20 /home/liyupeng/zengyao/6.13/DT-W724V-20140311/output/host/usr/mips-unknown-linux-uclibc/sysroot/lib/libatmlinkcms.a(atmlinkdiag.o)
 .comment       0x0000000000000000       0x20 /home/liyupeng/zengyao/6.13/DT-W724V-20140311/output/host/usr/mips-unknown-linux-uclibc/sysroot/lib/libdslchannelcms.a(dslchannelcmsapi.o)
 .comment       0x0000000000000000       0x20 /home/liyupeng/zengyao/6.13/DT-W724V-20140311/output/host/usr/mips-unknown-linux-uclibc/sysroot/lib/libdslchannelcms.a(dslchanneldiag.o)
 .comment       0x0000000000000000       0x20 /home/liyupeng/zengyao/6.13/DT-W724V-20140311/output/host/usr/mips-unknown-linux-uclibc/sysroot/lib/libdsllinecms.a(dsllinecmsapi.o)
 .comment       0x0000000000000000       0x20 /home/liyupeng/zengyao/6.13/DT-W724V-20140311/output/host/usr/mips-unknown-linux-uclibc/sysroot/lib/libptmlinkcms.a(ptmlinkcmsapi.o)
 .comment       0x0000000000000000       0x20 /home/liyupeng/zengyao/6.13/DT-W724V-20140311/output/host/usr/mips-unknown-linux-uclibc/sysroot/lib/libdtvoicecms.a(voiceapi.o)
 .comment       0x0000000000000000       0x20 /home/liyupeng/zengyao/6.13/DT-W724V-20140311/output/host/usr/mips-unknown-linux-uclibc/sysroot/lib/libdtvoicecms.a(voicecms.o)
 .comment       0x0000000000000000       0x20 /home/liyupeng/zengyao/6.13/DT-W724V-20140311/output/host/usr/mips-unknown-linux-uclibc/sysroot/lib/libdtvoicecms.a(voiceutil.o)
 .comment       0x0000000000000000       0x20 /home/liyupeng/zengyao/6.13/DT-W724V-20140311/output/host/usr/mips-unknown-linux-uclibc/sysroot/lib/libdtvoicecms.a(voicecfg.o)
 .comment       0x0000000000000000       0x20 /home/liyupeng/zengyao/6.13/DT-W724V-20140311/output/host/usr/mips-unknown-linux-uclibc/sysroot/lib/libdtvoicecms.a(IniParser.o)
 .comment       0x0000000000000000       0x20 /home/liyupeng/zengyao/6.13/DT-W724V-20140311/output/host/usr/mips-unknown-linux-uclibc/sysroot/lib/libdtvoicecms.a(voicediag.o)
 .comment       0x0000000000000000       0x20 /home/liyupeng/zengyao/6.13/DT-W724V-20140311/output/host/usr/mips-unknown-linux-uclibc/sysroot/lib/libdtvoicecms.a(voicecmsmsgproc.o)
 .comment       0x0000000000000000       0x20 /home/liyupeng/zengyao/6.13/DT-W724V-20140311/output/host/usr/mips-unknown-linux-uclibc/sysroot/lib/libnetpbcms.a(netphonebookapi.o)
 .comment       0x0000000000000000       0x20 /home/liyupeng/zengyao/6.13/DT-W724V-20140311/output/host/usr/mips-unknown-linux-uclibc/sysroot/lib/librsscms.a(rssapi.o)
 .comment       0x0000000000000000       0x20 /home/liyupeng/zengyao/6.13/DT-W724V-20140311/output/host/usr/mips-unknown-linux-uclibc/sysroot/lib/librsscms.a(voicersscmsmsgproc.o)
 .comment       0x0000000000000000       0x20 /home/liyupeng/zengyao/6.13/DT-W724V-20140311/output/host/usr/mips-unknown-linux-uclibc/sysroot/lib/libemailcms.a(emailapi.o)
 .comment       0x0000000000000000       0x20 /home/liyupeng/zengyao/6.13/DT-W724V-20140311/output/host/usr/mips-unknown-linux-uclibc/sysroot/lib/libemailcms.a(emailcms.o)
 .comment       0x0000000000000000       0x20 /home/liyupeng/zengyao/6.13/DT-W724V-20140311/output/host/usr/mips-unknown-linux-uclibc/sysroot/lib/libemailcms.a(voiceemailcmsmsgproc.o)
 .comment       0x0000000000000000       0x20 /opt/toolchains/crosstools-mips-gcc-4.6-linux-3.4-uclibc-0.9.32-binutils-2.21/usr/lib/gcc/mips-unknown-linux-uclibc/4.6.2/libgcc.a(_fixunsdfsi.o)
 .comment       0x0000000000000000       0x20 /opt/toolchains/crosstools-mips-gcc-4.6-linux-3.4-uclibc-0.9.32-binutils-2.21/usr/lib/gcc/mips-unknown-linux-uclibc/4.6.2/libgcc.a(_udivdi3.o)
 .comment       0x0000000000000000       0x20 /opt/toolchains/crosstools-mips-gcc-4.6-linux-3.4-uclibc-0.9.32-binutils-2.21/usr/lib/gcc/mips-unknown-linux-uclibc/4.6.2/libgcc.a(_umoddi3.o)
 .comment       0x0000000000000000       0x20 /opt/toolchains/crosstools-mips-gcc-4.6-linux-3.4-uclibc-0.9.32-binutils-2.21/usr/lib/gcc/mips-unknown-linux-uclibc/4.6.2/libgcc.a(_sf_to_df.o)
 .comment       0x0000000000000000       0x20 /opt/toolchains/crosstools-mips-gcc-4.6-linux-3.4-uclibc-0.9.32-binutils-2.21/usr/lib/gcc/mips-unknown-linux-uclibc/4.6.2/libgcc.a(_usi_to_sf.o)
 .comment       0x0000000000000000       0x20 /opt/toolchains/crosstools-mips-gcc-4.6-linux-3.4-uclibc-0.9.32-binutils-2.21/usr/lib/gcc/mips-unknown-linux-uclibc/4.6.2/libgcc.a(_addsub_df.o)
 .comment       0x0000000000000000       0x20 /opt/toolchains/crosstools-mips-gcc-4.6-linux-3.4-uclibc-0.9.32-binutils-2.21/usr/lib/gcc/mips-unknown-linux-uclibc/4.6.2/libgcc.a(_mul_df.o)
 .comment       0x0000000000000000       0x20 /opt/toolchains/crosstools-mips-gcc-4.6-linux-3.4-uclibc-0.9.32-binutils-2.21/usr/lib/gcc/mips-unknown-linux-uclibc/4.6.2/libgcc.a(_ge_df.o)
 .comment       0x0000000000000000       0x20 /opt/toolchains/crosstools-mips-gcc-4.6-linux-3.4-uclibc-0.9.32-binutils-2.21/usr/lib/gcc/mips-unknown-linux-uclibc/4.6.2/libgcc.a(_df_to_si.o)
 .comment       0x0000000000000000       0x20 /opt/toolchains/crosstools-mips-gcc-4.6-linux-3.4-uclibc-0.9.32-binutils-2.21/usr/lib/gcc/mips-unknown-linux-uclibc/4.6.2/libgcc.a(_make_df.o)
 .comment       0x0000000000000000       0x20 /opt/toolchains/crosstools-mips-gcc-4.6-linux-3.4-uclibc-0.9.32-binutils-2.21/usr/lib/gcc/mips-unknown-linux-uclibc/4.6.2/libgcc.a(_df_to_sf.o)
 .comment       0x0000000000000000       0x20 /opt/toolchains/crosstools-mips-gcc-4.6-linux-3.4-uclibc-0.9.32-binutils-2.21/usr/lib/gcc/mips-unknown-linux-uclibc/4.6.2/libgcc.a(_thenan_df.o)
 .comment       0x0000000000000000       0x20 /opt/toolchains/crosstools-mips-gcc-4.6-linux-3.4-uclibc-0.9.32-binutils-2.21/usr/lib/gcc/mips-unknown-linux-uclibc/4.6.2/libgcc.a(_lshrdi3.o)
 .comment       0x0000000000000000       0x20 /opt/toolchains/crosstools-mips-gcc-4.6-linux-3.4-uclibc-0.9.32-binutils-2.21/usr/lib/gcc/mips-unknown-linux-uclibc/4.6.2/libgcc.a(_ashldi3.o)
 .comment       0x0000000000000000       0x20 /opt/toolchains/crosstools-mips-gcc-4.6-linux-3.4-uclibc-0.9.32-binutils-2.21/usr/lib/gcc/mips-unknown-linux-uclibc/4.6.2/libgcc.a(_pack_sf.o)
 .comment       0x0000000000000000       0x20 /opt/toolchains/crosstools-mips-gcc-4.6-linux-3.4-uclibc-0.9.32-binutils-2.21/usr/lib/gcc/mips-unknown-linux-uclibc/4.6.2/libgcc.a(_unpack_sf.o)
 .comment       0x0000000000000000       0x20 /opt/toolchains/crosstools-mips-gcc-4.6-linux-3.4-uclibc-0.9.32-binutils-2.21/usr/lib/gcc/mips-unknown-linux-uclibc/4.6.2/libgcc.a(_make_sf.o)
 .comment       0x0000000000000000       0x20 /opt/toolchains/crosstools-mips-gcc-4.6-linux-3.4-uclibc-0.9.32-binutils-2.21/usr/lib/gcc/mips-unknown-linux-uclibc/4.6.2/libgcc.a(_pack_df.o)
 .comment       0x0000000000000000       0x20 /opt/toolchains/crosstools-mips-gcc-4.6-linux-3.4-uclibc-0.9.32-binutils-2.21/usr/lib/gcc/mips-unknown-linux-uclibc/4.6.2/libgcc.a(_unpack_df.o)
 .comment       0x0000000000000000       0x20 /opt/toolchains/crosstools-mips-gcc-4.6-linux-3.4-uclibc-0.9.32-binutils-2.21/usr/lib/gcc/mips-unknown-linux-uclibc/4.6.2/libgcc.a(_fpcmp_parts_df.o)
 .comment       0x0000000000000000       0x20 /opt/toolchains/crosstools-mips-gcc-4.6-linux-3.4-uclibc-0.9.32-binutils-2.21/usr/lib/gcc/mips-unknown-linux-uclibc/4.6.2/crtend.o
 .comment       0x0000000000000000       0x12 /home/liyupeng/zengyao/6.13/DT-W724V-20140311/output/host/usr/mips-unknown-linux-uclibc/sysroot/usr/lib/crtn.o

.debug
 *(.debug)

.line
 *(.line)

.debug_srcinfo
 *(.debug_srcinfo .zdebug_srcinfo)

.debug_sfnames
 *(.debug_sfnames .zdebug_sfnames)

.debug_aranges
 *(.debug_aranges .zdebug_aranges)

.debug_pubnames
 *(.debug_pubnames .zdebug_pubnames)

.debug_info
 *(.debug_info .gnu.linkonce.wi.* .zdebug_info)

.debug_abbrev
 *(.debug_abbrev .zdebug_abbrev)

.debug_line
 *(.debug_line .zdebug_line)

.debug_frame
 *(.debug_frame .zdebug_frame)

.debug_str
 *(.debug_str .zdebug_str)

.debug_loc
 *(.debug_loc .zdebug_loc)

.debug_macinfo
 *(.debug_macinfo .zdebug_macinfo)

.debug_weaknames
 *(.debug_weaknames .zdebug_weaknames)

.debug_funcnames
 *(.debug_funcnames .zdebug_funcnames)

.debug_typenames
 *(.debug_typenames .zdebug_typenames)

.debug_varnames
 *(.debug_varnames .zdebug_varnames)

.debug_pubtypes
 *(.debug_pubtypes .zdebug_pubtypes)

.debug_ranges
 *(.debug_ranges .zdebug_ranges)

.gnu.attributes
                0x0000000000000000       0x10
 *(.gnu.attributes)
 .gnu.attributes
                0x0000000000000000       0x10 /opt/toolchains/crosstools-mips-gcc-4.6-linux-3.4-uclibc-0.9.32-binutils-2.21/usr/lib/gcc/mips-unknown-linux-uclibc/4.6.2/crtbegin.o
 .gnu.attributes
                0x0000000000000010       0x10 /home/liyupeng/zengyao/6.13/DT-W724V-20140311/output/package/atp/configuration/cmsmain/management.o
 .gnu.attributes
                0x0000000000000020       0x10 /home/liyupeng/zengyao/6.13/DT-W724V-20140311/output/package/atp/configuration/cmsmain/cmsmonitor.o
 .gnu.attributes
                0x0000000000000030       0x10 /home/liyupeng/zengyao/6.13/DT-W724V-20140311/output/package/atp/configuration/cmsmain/cmsinit.o
 .gnu.attributes
                0x0000000000000040       0x10 /home/liyupeng/zengyao/6.13/DT-W724V-20140311/output/host/usr/mips-unknown-linux-uclibc/sysroot/lib/libcmscore.a(cmsmsgproc.o)
 .gnu.attributes
                0x0000000000000050       0x10 /home/liyupeng/zengyao/6.13/DT-W724V-20140311/output/host/usr/mips-unknown-linux-uclibc/sysroot/lib/libcmscore.a(cmsutil.o)
 .gnu.attributes
                0x0000000000000060       0x10 /home/liyupeng/zengyao/6.13/DT-W724V-20140311/output/host/usr/mips-unknown-linux-uclibc/sysroot/lib/libcmscore.a(cmsinitapi.o)
 .gnu.attributes
                0x0000000000000070       0x10 /home/liyupeng/zengyao/6.13/DT-W724V-20140311/output/host/usr/mips-unknown-linux-uclibc/sysroot/lib/libcmscore.a(cmssigqueue.o)
 .gnu.attributes
                0x0000000000000080       0x10 /home/liyupeng/zengyao/6.13/DT-W724V-20140311/output/host/usr/mips-unknown-linux-uclibc/sysroot/lib/libinterfacecore.a(interfaceapi.o)
 .gnu.attributes
                0x0000000000000090       0x10 /home/liyupeng/zengyao/6.13/DT-W724V-20140311/output/host/usr/mips-unknown-linux-uclibc/sysroot/lib/libinterfacecore.a(intfstats.o)
 .gnu.attributes
                0x00000000000000a0       0x10 /home/liyupeng/zengyao/6.13/DT-W724V-20140311/output/host/usr/mips-unknown-linux-uclibc/sysroot/lib/libinterfacecore.a(intfdescriptor.o)
 .gnu.attributes
                0x00000000000000b0       0x10 /home/liyupeng/zengyao/6.13/DT-W724V-20140311/output/host/usr/mips-unknown-linux-uclibc/sysroot/lib/libinterfacecore.a(intfcfgmsgproc.o)
 .gnu.attributes
                0x00000000000000c0       0x10 /home/liyupeng/zengyao/6.13/DT-W724V-20140311/output/host/usr/mips-unknown-linux-uclibc/sysroot/lib/libinterfacecore.a(intfstack.o)
 .gnu.attributes
                0x00000000000000d0       0x10 /home/liyupeng/zengyao/6.13/DT-W724V-20140311/output/host/usr/mips-unknown-linux-uclibc/sysroot/lib/libdmscms.a(dmscmsmsgproc.o)
 .gnu.attributes
                0x00000000000000e0       0x10 /home/liyupeng/zengyao/6.13/DT-W724V-20140311/output/host/usr/mips-unknown-linux-uclibc/sysroot/lib/libledservicecms.a(ledserviceini.o)
 .gnu.attributes
                0x00000000000000f0       0x10 /home/liyupeng/zengyao/6.13/DT-W724V-20140311/output/host/usr/mips-unknown-linux-uclibc/sysroot/lib/libnascms.a(nascms.o)
 .gnu.attributes
                0x0000000000000100       0x10 /home/liyupeng/zengyao/6.13/DT-W724V-20140311/output/host/usr/mips-unknown-linux-uclibc/sysroot/lib/liboamcms.a(oamcms.o)
 .gnu.attributes
                0x0000000000000110       0x10 /home/liyupeng/zengyao/6.13/DT-W724V-20140311/output/host/usr/mips-unknown-linux-uclibc/sysroot/lib/libtr143cms.a(tr143cmsmsgproc.o)
 .gnu.attributes
                0x0000000000000120       0x10 /home/liyupeng/zengyao/6.13/DT-W724V-20140311/output/host/usr/mips-unknown-linux-uclibc/sysroot/lib/libusbmngrcms.a(usbmngrcmsproc.o)
 .gnu.attributes
                0x0000000000000130       0x10 /home/liyupeng/zengyao/6.13/DT-W724V-20140311/output/host/usr/mips-unknown-linux-uclibc/sysroot/lib/libusbmountcms.a(usbmntcmsmsgproc.o)
 .gnu.attributes
                0x0000000000000140       0x10 /home/liyupeng/zengyao/6.13/DT-W724V-20140311/output/host/usr/mips-unknown-linux-uclibc/sysroot/lib/libusbmountcms.a(usbdiskmonitor.o)
 .gnu.attributes
                0x0000000000000150       0x10 /home/liyupeng/zengyao/6.13/DT-W724V-20140311/output/host/usr/mips-unknown-linux-uclibc/sysroot/lib/libusbmountcms.a(usbmntcmsinit.o)
 .gnu.attributes
                0x0000000000000160       0x10 /home/liyupeng/zengyao/6.13/DT-W724V-20140311/output/host/usr/mips-unknown-linux-uclibc/sysroot/lib/libcupscms.a(cupscms.o)
 .gnu.attributes
                0x0000000000000170       0x10 /home/liyupeng/zengyao/6.13/DT-W724V-20140311/output/host/usr/mips-unknown-linux-uclibc/sysroot/lib/libusbstoragecms.a(usbstoragecmsmsgproc.o)
 .gnu.attributes
                0x0000000000000180       0x10 /home/liyupeng/zengyao/6.13/DT-W724V-20140311/output/host/usr/mips-unknown-linux-uclibc/sysroot/lib/libusbstoragecms.a(usbstoragecms.o)
 .gnu.attributes
                0x0000000000000190       0x10 /home/liyupeng/zengyao/6.13/DT-W724V-20140311/output/host/usr/mips-unknown-linux-uclibc/sysroot/lib/libusbstoragecms.a(usbstoragecmsinit.o)
 .gnu.attributes
                0x00000000000001a0       0x10 /home/liyupeng/zengyao/6.13/DT-W724V-20140311/output/host/usr/mips-unknown-linux-uclibc/sysroot/lib/libusbstoragecms.a(usbstorageloginctl.o)
 .gnu.attributes
                0x00000000000001b0       0x10 /home/liyupeng/zengyao/6.13/DT-W724V-20140311/output/host/usr/mips-unknown-linux-uclibc/sysroot/lib/libftpservercms.a(ftpservercmsmsgproc.o)
 .gnu.attributes
                0x00000000000001c0       0x10 /home/liyupeng/zengyao/6.13/DT-W724V-20140311/output/host/usr/mips-unknown-linux-uclibc/sysroot/lib/libftpservercms.a(ftpservercms.o)
 .gnu.attributes
                0x00000000000001d0       0x10 /home/liyupeng/zengyao/6.13/DT-W724V-20140311/output/host/usr/mips-unknown-linux-uclibc/sysroot/lib/libsambacms.a(sambacms.o)
 .gnu.attributes
                0x00000000000001e0       0x10 /home/liyupeng/zengyao/6.13/DT-W724V-20140311/output/host/usr/mips-unknown-linux-uclibc/sysroot/lib/libsambacms.a(sambacmsmsgproc.o)
 .gnu.attributes
                0x00000000000001f0       0x10 /home/liyupeng/zengyao/6.13/DT-W724V-20140311/output/host/usr/mips-unknown-linux-uclibc/sysroot/lib/libcwmpcms.a(cwmpcmsmsgproc.o)
 .gnu.attributes
                0x0000000000000200       0x10 /home/liyupeng/zengyao/6.13/DT-W724V-20140311/output/host/usr/mips-unknown-linux-uclibc/sysroot/lib/libcwmpcms.a(cwmpcms.o)
 .gnu.attributes
                0x0000000000000210       0x10 /home/liyupeng/zengyao/6.13/DT-W724V-20140311/output/host/usr/mips-unknown-linux-uclibc/sysroot/lib/libcwmpcms.a(cwmpschdwlmsgproc.o)
 .gnu.attributes
                0x0000000000000220       0x10 /home/liyupeng/zengyao/6.13/DT-W724V-20140311/output/host/usr/mips-unknown-linux-uclibc/sysroot/lib/libippingcms.a(ippingcmsmsgproc.o)
 .gnu.attributes
                0x0000000000000230       0x10 /home/liyupeng/zengyao/6.13/DT-W724V-20140311/output/host/usr/mips-unknown-linux-uclibc/sysroot/lib/liblogcms.a(logcms.o)
 .gnu.attributes
                0x0000000000000240       0x10 /home/liyupeng/zengyao/6.13/DT-W724V-20140311/output/host/usr/mips-unknown-linux-uclibc/sysroot/lib/liblogcms.a(logcmsinit.o)
 .gnu.attributes
                0x0000000000000250       0x10 /home/liyupeng/zengyao/6.13/DT-W724V-20140311/output/host/usr/mips-unknown-linux-uclibc/sysroot/lib/liblogcms.a(logcmsmsgproc.o)
 .gnu.attributes
                0x0000000000000260       0x10 /home/liyupeng/zengyao/6.13/DT-W724V-20140311/output/host/usr/mips-unknown-linux-uclibc/sysroot/lib/libmiccms.a(miccmsmsgproc.o)
 .gnu.attributes
                0x0000000000000270       0x10 /home/liyupeng/zengyao/6.13/DT-W724V-20140311/output/host/usr/mips-unknown-linux-uclibc/sysroot/lib/libmiccms.a(miccms.o)
 .gnu.attributes
                0x0000000000000280       0x10 /home/liyupeng/zengyao/6.13/DT-W724V-20140311/output/host/usr/mips-unknown-linux-uclibc/sysroot/lib/libportmntcms.a(portmntcms.o)
 .gnu.attributes
                0x0000000000000290       0x10 /home/liyupeng/zengyao/6.13/DT-W724V-20140311/output/host/usr/mips-unknown-linux-uclibc/sysroot/lib/libsysinfocms.a(sysinfoinit.o)
 .gnu.attributes
                0x00000000000002a0       0x10 /home/liyupeng/zengyao/6.13/DT-W724V-20140311/output/host/usr/mips-unknown-linux-uclibc/sysroot/lib/libsysinfocms.a(sysinfocmsmsgproc.o)
 .gnu.attributes
                0x00000000000002b0       0x10 /home/liyupeng/zengyao/6.13/DT-W724V-20140311/output/host/usr/mips-unknown-linux-uclibc/sysroot/lib/libsysinfocms.a(sysinfocms.o)
 .gnu.attributes
                0x00000000000002c0       0x10 /home/liyupeng/zengyao/6.13/DT-W724V-20140311/output/host/usr/mips-unknown-linux-uclibc/sysroot/lib/libsysinfocms.a(sysperiodicstatistics.o)
 .gnu.attributes
                0x00000000000002d0       0x10 /home/liyupeng/zengyao/6.13/DT-W724V-20140311/output/host/usr/mips-unknown-linux-uclibc/sysroot/lib/libtelnetdcms.a(telnetdcmsinit.o)
 .gnu.attributes
                0x00000000000002e0       0x10 /home/liyupeng/zengyao/6.13/DT-W724V-20140311/output/host/usr/mips-unknown-linux-uclibc/sysroot/lib/libtelnetdcms.a(telnetdcmsmsgproc.o)
 .gnu.attributes
                0x00000000000002f0       0x10 /home/liyupeng/zengyao/6.13/DT-W724V-20140311/output/host/usr/mips-unknown-linux-uclibc/sysroot/lib/libtr111cms.a(tr111cmsmsgproc.o)
 .gnu.attributes
                0x0000000000000300       0x10 /home/liyupeng/zengyao/6.13/DT-W724V-20140311/output/host/usr/mips-unknown-linux-uclibc/sysroot/lib/libtr111cms.a(tr111cms.o)
 .gnu.attributes
                0x0000000000000310       0x10 /home/liyupeng/zengyao/6.13/DT-W724V-20140311/output/host/usr/mips-unknown-linux-uclibc/sysroot/lib/libtr232cms.a(ipdrcms.o)
 .gnu.attributes
                0x0000000000000320       0x10 /home/liyupeng/zengyao/6.13/DT-W724V-20140311/output/host/usr/mips-unknown-linux-uclibc/sysroot/lib/libtr232cms.a(ipdrcmsmsgproc.o)
 .gnu.attributes
                0x0000000000000330       0x10 /home/liyupeng/zengyao/6.13/DT-W724V-20140311/output/host/usr/mips-unknown-linux-uclibc/sysroot/lib/libtr232cms.a(ipdrcmsinit.o)
 .gnu.attributes
                0x0000000000000340       0x10 /home/liyupeng/zengyao/6.13/DT-W724V-20140311/output/host/usr/mips-unknown-linux-uclibc/sysroot/lib/libtraceroutecms.a(traceroutecmsmsgproc.o)
 .gnu.attributes
                0x0000000000000350       0x10 /home/liyupeng/zengyao/6.13/DT-W724V-20140311/output/host/usr/mips-unknown-linux-uclibc/sysroot/lib/libupnpcms.a(upnpcms.o)
 .gnu.attributes
                0x0000000000000360       0x10 /home/liyupeng/zengyao/6.13/DT-W724V-20140311/output/host/usr/mips-unknown-linux-uclibc/sysroot/lib/libuserintfcms.a(userintfinit.o)
 .gnu.attributes
                0x0000000000000370       0x10 /home/liyupeng/zengyao/6.13/DT-W724V-20140311/output/host/usr/mips-unknown-linux-uclibc/sysroot/lib/libuserintfcms.a(userintfcmsmsgproc.o)
 .gnu.attributes
                0x0000000000000380       0x10 /home/liyupeng/zengyao/6.13/DT-W724V-20140311/output/host/usr/mips-unknown-linux-uclibc/sysroot/lib/libuserintfcms.a(userintfcms.o)
 .gnu.attributes
                0x0000000000000390       0x10 /home/liyupeng/zengyao/6.13/DT-W724V-20140311/output/host/usr/mips-unknown-linux-uclibc/sysroot/lib/libwebcms.a(webcmsmsgproc.o)
 .gnu.attributes
                0x00000000000003a0       0x10 /home/liyupeng/zengyao/6.13/DT-W724V-20140311/output/host/usr/mips-unknown-linux-uclibc/sysroot/lib/libbridgeportcms.a(bridgeportcmsapi.o)
 .gnu.attributes
                0x00000000000003b0       0x10 /home/liyupeng/zengyao/6.13/DT-W724V-20140311/output/host/usr/mips-unknown-linux-uclibc/sysroot/lib/libbridgeportcms.a(bridgeportcms.o)
 .gnu.attributes
                0x00000000000003c0       0x10 /home/liyupeng/zengyao/6.13/DT-W724V-20140311/output/host/usr/mips-unknown-linux-uclibc/sysroot/lib/libbridgeportcms.a(bridgingcmsinit.o)
 .gnu.attributes
                0x00000000000003d0       0x10 /home/liyupeng/zengyao/6.13/DT-W724V-20140311/output/host/usr/mips-unknown-linux-uclibc/sysroot/lib/libbridgeportcms.a(bridgingfiltercmsapi.o)
 .gnu.attributes
                0x00000000000003e0       0x10 /home/liyupeng/zengyao/6.13/DT-W724V-20140311/output/host/usr/mips-unknown-linux-uclibc/sysroot/lib/libbridgeportcms.a(bridgingfiltercmsinit.o)
 .gnu.attributes
                0x00000000000003f0       0x10 /home/liyupeng/zengyao/6.13/DT-W724V-20140311/output/host/usr/mips-unknown-linux-uclibc/sysroot/lib/libbridgeportcms.a(bridgingfiltercmsmsgproc.o)
 .gnu.attributes
                0x0000000000000400       0x10 /home/liyupeng/zengyao/6.13/DT-W724V-20140311/output/host/usr/mips-unknown-linux-uclibc/sysroot/lib/libbridgeportcms.a(bridgingfilteroptions.o)
 .gnu.attributes
                0x0000000000000410       0x10 /home/liyupeng/zengyao/6.13/DT-W724V-20140311/output/host/usr/mips-unknown-linux-uclibc/sysroot/lib/libipv6commoncms.a(ipv6commoncms.o)
 .gnu.attributes
                0x0000000000000420       0x10 /home/liyupeng/zengyao/6.13/DT-W724V-20140311/output/host/usr/mips-unknown-linux-uclibc/sysroot/lib/libipv6commoncms.a(ipv6commoncmsproc.o)
 .gnu.attributes
                0x0000000000000430       0x10 /home/liyupeng/zengyao/6.13/DT-W724V-20140311/output/host/usr/mips-unknown-linux-uclibc/sysroot/lib/libddnscms.a(ddnscms.o)
 .gnu.attributes
                0x0000000000000440       0x10 /home/liyupeng/zengyao/6.13/DT-W724V-20140311/output/host/usr/mips-unknown-linux-uclibc/sysroot/lib/libddnscms.a(ddnscmsinit.o)
 .gnu.attributes
                0x0000000000000450       0x10 /home/liyupeng/zengyao/6.13/DT-W724V-20140311/output/host/usr/mips-unknown-linux-uclibc/sysroot/lib/libddnscms.a(ddnscmsmsgproc.o)
 .gnu.attributes
                0x0000000000000460       0x10 /home/liyupeng/zengyao/6.13/DT-W724V-20140311/output/host/usr/mips-unknown-linux-uclibc/sysroot/lib/libddnscms.a(ddnscmsapi.o)
 .gnu.attributes
                0x0000000000000470       0x10 /home/liyupeng/zengyao/6.13/DT-W724V-20140311/output/host/usr/mips-unknown-linux-uclibc/sysroot/lib/libdhcp6ccms.a(dhcp6ccms.o)
 .gnu.attributes
                0x0000000000000480       0x10 /home/liyupeng/zengyao/6.13/DT-W724V-20140311/output/host/usr/mips-unknown-linux-uclibc/sysroot/lib/libdhcp6ccms.a(dhcp6ccmsmsgproc.o)
 .gnu.attributes
                0x0000000000000490       0x10 /home/liyupeng/zengyao/6.13/DT-W724V-20140311/output/host/usr/mips-unknown-linux-uclibc/sysroot/lib/libdhcp6scms.a(dhcp6scms.o)
 .gnu.attributes
                0x00000000000004a0       0x10 /home/liyupeng/zengyao/6.13/DT-W724V-20140311/output/host/usr/mips-unknown-linux-uclibc/sysroot/lib/libdhcp6scms.a(dhcp6scmsinit.o)
 .gnu.attributes
                0x00000000000004b0       0x10 /home/liyupeng/zengyao/6.13/DT-W724V-20140311/output/host/usr/mips-unknown-linux-uclibc/sysroot/lib/libdhcp6scms.a(dhcp6scmsapi.o)
 .gnu.attributes
                0x00000000000004c0       0x10 /home/liyupeng/zengyao/6.13/DT-W724V-20140311/output/host/usr/mips-unknown-linux-uclibc/sysroot/lib/libdhcp6scms.a(dhcp6scmsproctr181.o)
 .gnu.attributes
                0x00000000000004d0       0x10 /home/liyupeng/zengyao/6.13/DT-W724V-20140311/output/host/usr/mips-unknown-linux-uclibc/sysroot/lib/libdhcpccms.a(dhcpccmsmsgproc.o)
 .gnu.attributes
                0x00000000000004e0       0x10 /home/liyupeng/zengyao/6.13/DT-W724V-20140311/output/host/usr/mips-unknown-linux-uclibc/sysroot/lib/libdhcpccms.a(dhcpccmsinit.o)
 .gnu.attributes
                0x00000000000004f0       0x10 /home/liyupeng/zengyao/6.13/DT-W724V-20140311/output/host/usr/mips-unknown-linux-uclibc/sysroot/lib/libdhcpccms.a(dhcpccms.o)
 .gnu.attributes
                0x0000000000000500       0x10 /home/liyupeng/zengyao/6.13/DT-W724V-20140311/output/host/usr/mips-unknown-linux-uclibc/sysroot/lib/libdhcpscms.a(lanapi.o)
 .gnu.attributes
                0x0000000000000510       0x10 /home/liyupeng/zengyao/6.13/DT-W724V-20140311/output/host/usr/mips-unknown-linux-uclibc/sysroot/lib/libdhcpscms.a(lanutil.o)
 .gnu.attributes
                0x0000000000000520       0x10 /home/liyupeng/zengyao/6.13/DT-W724V-20140311/output/host/usr/mips-unknown-linux-uclibc/sysroot/lib/libdhcpscms.a(dhcpscmsinit.o)
 .gnu.attributes
                0x0000000000000530       0x10 /home/liyupeng/zengyao/6.13/DT-W724V-20140311/output/host/usr/mips-unknown-linux-uclibc/sysroot/lib/libdhcpscms.a(dhcpscmsnotifymngr.o)
 .gnu.attributes
                0x0000000000000540       0x10 /home/liyupeng/zengyao/6.13/DT-W724V-20140311/output/host/usr/mips-unknown-linux-uclibc/sysroot/lib/libdhcpscms.a(dhcpscmsmsgproc.o)
 .gnu.attributes
                0x0000000000000550       0x10 /home/liyupeng/zengyao/6.13/DT-W724V-20140311/output/host/usr/mips-unknown-linux-uclibc/sysroot/lib/libdhcpscms.a(dhcpscms_tr181.o)
 .gnu.attributes
                0x0000000000000560       0x10 /home/liyupeng/zengyao/6.13/DT-W724V-20140311/output/host/usr/mips-unknown-linux-uclibc/sysroot/lib/libdnscms.a(dnscmsinit.o)
 .gnu.attributes
                0x0000000000000570       0x10 /home/liyupeng/zengyao/6.13/DT-W724V-20140311/output/host/usr/mips-unknown-linux-uclibc/sysroot/lib/libdnscms.a(dnscms.o)
 .gnu.attributes
                0x0000000000000580       0x10 /home/liyupeng/zengyao/6.13/DT-W724V-20140311/output/host/usr/mips-unknown-linux-uclibc/sysroot/lib/libdnscms.a(dnscmsdb.o)
 .gnu.attributes
                0x0000000000000590       0x10 /home/liyupeng/zengyao/6.13/DT-W724V-20140311/output/host/usr/mips-unknown-linux-uclibc/sysroot/lib/libdnsdiagcms.a(dnsdiagcmsmsgproc.o)
 .gnu.attributes
                0x00000000000005a0       0x10 /home/liyupeng/zengyao/6.13/DT-W724V-20140311/output/host/usr/mips-unknown-linux-uclibc/sysroot/lib/libethintfcms.a(ethintfcmsapi.o)
 .gnu.attributes
                0x00000000000005b0       0x10 /home/liyupeng/zengyao/6.13/DT-W724V-20140311/output/host/usr/mips-unknown-linux-uclibc/sysroot/lib/libethintfcms.a(ethintfcmsutil.o)
 .gnu.attributes
                0x00000000000005c0       0x10 /home/liyupeng/zengyao/6.13/DT-W724V-20140311/output/host/usr/mips-unknown-linux-uclibc/sysroot/lib/libethintfcms.a(ethintfcmsmsgproc.o)
 .gnu.attributes
                0x00000000000005d0       0x10 /home/liyupeng/zengyao/6.13/DT-W724V-20140311/output/host/usr/mips-unknown-linux-uclibc/sysroot/lib/libethlinkcms.a(ethlinkcmsapi.o)
 .gnu.attributes
                0x00000000000005e0       0x10 /home/liyupeng/zengyao/6.13/DT-W724V-20140311/output/host/usr/mips-unknown-linux-uclibc/sysroot/lib/libfirewallcmsdt.a(firewallcmsdt.o)
 .gnu.attributes
                0x00000000000005f0       0x10 /home/liyupeng/zengyao/6.13/DT-W724V-20140311/output/host/usr/mips-unknown-linux-uclibc/sysroot/lib/libfirewallcmsdt.a(fwfilterapi.o)
 .gnu.attributes
                0x0000000000000600       0x10 /home/liyupeng/zengyao/6.13/DT-W724V-20140311/output/host/usr/mips-unknown-linux-uclibc/sysroot/lib/libfirewallcmsdt.a(fwfilterutil.o)
 .gnu.attributes
                0x0000000000000610       0x10 /home/liyupeng/zengyao/6.13/DT-W724V-20140311/output/host/usr/mips-unknown-linux-uclibc/sysroot/lib/libfirewallcmsdt.a(abuseapi.o)
 .gnu.attributes
                0x0000000000000620       0x10 /home/liyupeng/zengyao/6.13/DT-W724V-20140311/output/host/usr/mips-unknown-linux-uclibc/sysroot/lib/libfirewallcmsdt.a(abuseutil.o)
 .gnu.attributes
                0x0000000000000630       0x10 /home/liyupeng/zengyao/6.13/DT-W724V-20140311/output/host/usr/mips-unknown-linux-uclibc/sysroot/lib/libfirewallcmsdt.a(timeruleflushfcctl.o)
 .gnu.attributes
                0x0000000000000640       0x10 /home/liyupeng/zengyao/6.13/DT-W724V-20140311/output/host/usr/mips-unknown-linux-uclibc/sysroot/lib/libfoncms.a(foncms.o)
 .gnu.attributes
                0x0000000000000650       0x10 /home/liyupeng/zengyao/6.13/DT-W724V-20140311/output/host/usr/mips-unknown-linux-uclibc/sysroot/lib/libfoncms.a(foncmsinit.o)
 .gnu.attributes
                0x0000000000000660       0x10 /home/liyupeng/zengyao/6.13/DT-W724V-20140311/output/host/usr/mips-unknown-linux-uclibc/sysroot/lib/libfoncms.a(foncmsmsgproc.o)
 .gnu.attributes
                0x0000000000000670       0x10 /home/liyupeng/zengyao/6.13/DT-W724V-20140311/output/host/usr/mips-unknown-linux-uclibc/sysroot/lib/libhybridcms.a(hybridcms.o)
 .gnu.attributes
                0x0000000000000680       0x10 /home/liyupeng/zengyao/6.13/DT-W724V-20140311/output/host/usr/mips-unknown-linux-uclibc/sysroot/lib/libhybridcms.a(hybridcmsfilter.o)
 .gnu.attributes
                0x0000000000000690       0x10 /home/liyupeng/zengyao/6.13/DT-W724V-20140311/output/host/usr/mips-unknown-linux-uclibc/sysroot/lib/libigmpcms.a(igmpcmsmsgproc.o)
 .gnu.attributes
                0x00000000000006a0       0x10 /home/liyupeng/zengyao/6.13/DT-W724V-20140311/output/host/usr/mips-unknown-linux-uclibc/sysroot/lib/libigmpcms.a(igmpcms.o)
 .gnu.attributes
                0x00000000000006b0       0x10 /home/liyupeng/zengyao/6.13/DT-W724V-20140311/output/host/usr/mips-unknown-linux-uclibc/sysroot/lib/libipcheckcms.a(ipcheckcms.o)
 .gnu.attributes
                0x00000000000006c0       0x10 /home/liyupeng/zengyao/6.13/DT-W724V-20140311/output/host/usr/mips-unknown-linux-uclibc/sysroot/lib/libipcheckcms.a(ipcheckcmsinit.o)
 .gnu.attributes
                0x00000000000006d0       0x10 /home/liyupeng/zengyao/6.13/DT-W724V-20140311/output/host/usr/mips-unknown-linux-uclibc/sysroot/lib/libipcheckcms.a(ipcheckcmsmsgproc.o)
 .gnu.attributes
                0x00000000000006e0       0x10 /home/liyupeng/zengyao/6.13/DT-W724V-20140311/output/host/usr/mips-unknown-linux-uclibc/sysroot/lib/libipintfcms.a(ipintfcmsapi.o)
 .gnu.attributes
                0x00000000000006f0       0x10 /home/liyupeng/zengyao/6.13/DT-W724V-20140311/output/host/usr/mips-unknown-linux-uclibc/sysroot/lib/libipintfcms.a(ipintfcmsget.o)
 .gnu.attributes
                0x0000000000000700       0x10 /home/liyupeng/zengyao/6.13/DT-W724V-20140311/output/host/usr/mips-unknown-linux-uclibc/sysroot/lib/libipintfcms.a(ipintfcmsset.o)
 .gnu.attributes
                0x0000000000000710       0x10 /home/liyupeng/zengyao/6.13/DT-W724V-20140311/output/host/usr/mips-unknown-linux-uclibc/sysroot/lib/libipintfcms.a(ipintfcmsint.o)
 .gnu.attributes
                0x0000000000000720       0x10 /home/liyupeng/zengyao/6.13/DT-W724V-20140311/output/host/usr/mips-unknown-linux-uclibc/sysroot/lib/libiptunnelcms.a(iptunnelcmsinit.o)
 .gnu.attributes
                0x0000000000000730       0x10 /home/liyupeng/zengyao/6.13/DT-W724V-20140311/output/host/usr/mips-unknown-linux-uclibc/sysroot/lib/libiptunnelcms.a(iptunnelcmsapi.o)
 .gnu.attributes
                0x0000000000000740       0x10 /home/liyupeng/zengyao/6.13/DT-W724V-20140311/output/host/usr/mips-unknown-linux-uclibc/sysroot/lib/libiptunnelcms.a(iptunnelcms.o)
 .gnu.attributes
                0x0000000000000750       0x10 /home/liyupeng/zengyao/6.13/DT-W724V-20140311/output/host/usr/mips-unknown-linux-uclibc/sysroot/lib/liblannamecms.a(lannamecms.o)
 .gnu.attributes
                0x0000000000000760       0x10 /home/liyupeng/zengyao/6.13/DT-W724V-20140311/output/host/usr/mips-unknown-linux-uclibc/sysroot/lib/liblannamecms.a(lannamecmsmsgproc.o)
 .gnu.attributes
                0x0000000000000770       0x10 /home/liyupeng/zengyao/6.13/DT-W724V-20140311/output/host/usr/mips-unknown-linux-uclibc/sysroot/lib/libltecms.a(lteprofile.o)
 .gnu.attributes
                0x0000000000000780       0x10 /home/liyupeng/zengyao/6.13/DT-W724V-20140311/output/host/usr/mips-unknown-linux-uclibc/sysroot/lib/libltecms.a(ltecmssimcard.o)
 .gnu.attributes
                0x0000000000000790       0x10 /home/liyupeng/zengyao/6.13/DT-W724V-20140311/output/host/usr/mips-unknown-linux-uclibc/sysroot/lib/libltecms.a(ltecmswminfo.o)
 .gnu.attributes
                0x00000000000007a0       0x10 /home/liyupeng/zengyao/6.13/DT-W724V-20140311/output/host/usr/mips-unknown-linux-uclibc/sysroot/lib/libltecms.a(ltesmartcardreader.o)
 .gnu.attributes
                0x00000000000007b0       0x10 /home/liyupeng/zengyao/6.13/DT-W724V-20140311/output/host/usr/mips-unknown-linux-uclibc/sysroot/lib/libltecms.a(ltecmsmsgproc.o)
 .gnu.attributes
                0x00000000000007c0       0x10 /home/liyupeng/zengyao/6.13/DT-W724V-20140311/output/host/usr/mips-unknown-linux-uclibc/sysroot/lib/libltecms.a(ltecmsapi.o)
 .gnu.attributes
                0x00000000000007d0       0x10 /home/liyupeng/zengyao/6.13/DT-W724V-20140311/output/host/usr/mips-unknown-linux-uclibc/sysroot/lib/libltecms.a(ltecmsmobile.o)
 .gnu.attributes
                0x00000000000007e0       0x10 /home/liyupeng/zengyao/6.13/DT-W724V-20140311/output/host/usr/mips-unknown-linux-uclibc/sysroot/lib/libmldcms.a(mldcms.o)
 .gnu.attributes
                0x00000000000007f0       0x10 /home/liyupeng/zengyao/6.13/DT-W724V-20140311/output/host/usr/mips-unknown-linux-uclibc/sysroot/lib/libmldcms.a(mldcmsmsgproc.o)
 .gnu.attributes
                0x0000000000000800       0x10 /home/liyupeng/zengyao/6.13/DT-W724V-20140311/output/host/usr/mips-unknown-linux-uclibc/sysroot/lib/libnatcms.a(natcmsmsgproc.o)
 .gnu.attributes
                0x0000000000000810       0x10 /home/liyupeng/zengyao/6.13/DT-W724V-20140311/output/host/usr/mips-unknown-linux-uclibc/sysroot/lib/libnatcms.a(natcmsinit.o)
 .gnu.attributes
                0x0000000000000820       0x10 /home/liyupeng/zengyao/6.13/DT-W724V-20140311/output/host/usr/mips-unknown-linux-uclibc/sysroot/lib/libnatcms.a(natcms.o)
 .gnu.attributes
                0x0000000000000830       0x10 /home/liyupeng/zengyao/6.13/DT-W724V-20140311/output/host/usr/mips-unknown-linux-uclibc/sysroot/lib/libnatcms.a(natutil.o)
 .gnu.attributes
                0x0000000000000840       0x10 /home/liyupeng/zengyao/6.13/DT-W724V-20140311/output/host/usr/mips-unknown-linux-uclibc/sysroot/lib/libnatcms.a(natdmz.o)
 .gnu.attributes
                0x0000000000000850       0x10 /home/liyupeng/zengyao/6.13/DT-W724V-20140311/output/host/usr/mips-unknown-linux-uclibc/sysroot/lib/libnatcms.a(natportmap.o)
 .gnu.attributes
                0x0000000000000860       0x10 /home/liyupeng/zengyao/6.13/DT-W724V-20140311/output/host/usr/mips-unknown-linux-uclibc/sysroot/lib/libnatcms.a(prttrgapi.o)
 .gnu.attributes
                0x0000000000000870       0x10 /home/liyupeng/zengyao/6.13/DT-W724V-20140311/output/host/usr/mips-unknown-linux-uclibc/sysroot/lib/libnatcms.a(prttrgutil.o)
 .gnu.attributes
                0x0000000000000880       0x10 /home/liyupeng/zengyao/6.13/DT-W724V-20140311/output/host/usr/mips-unknown-linux-uclibc/sysroot/lib/libnatcms.a(natcmsctclean.o)
 .gnu.attributes
                0x0000000000000890       0x10 /home/liyupeng/zengyao/6.13/DT-W724V-20140311/output/host/usr/mips-unknown-linux-uclibc/sysroot/lib/libndiscms.a(ndiscmsmsgproc.o)
 .gnu.attributes
                0x00000000000008a0       0x10 /home/liyupeng/zengyao/6.13/DT-W724V-20140311/output/host/usr/mips-unknown-linux-uclibc/sysroot/lib/libneighdisccms.a(neighdisccms.o)
 .gnu.attributes
                0x00000000000008b0       0x10 /home/liyupeng/zengyao/6.13/DT-W724V-20140311/output/host/usr/mips-unknown-linux-uclibc/sysroot/lib/libpppccms.a(pppcapi.o)
 .gnu.attributes
                0x00000000000008c0       0x10 /home/liyupeng/zengyao/6.13/DT-W724V-20140311/output/host/usr/mips-unknown-linux-uclibc/sysroot/lib/libpppintfcms.a(pppintfcmsinit.o)
 .gnu.attributes
                0x00000000000008d0       0x10 /home/liyupeng/zengyao/6.13/DT-W724V-20140311/output/host/usr/mips-unknown-linux-uclibc/sysroot/lib/libpppintfcms.a(pppintfcms.o)
 .gnu.attributes
                0x00000000000008e0       0x10 /home/liyupeng/zengyao/6.13/DT-W724V-20140311/output/host/usr/mips-unknown-linux-uclibc/sysroot/lib/libpppintfcms.a(pppintfcmsmsg.o)
 .gnu.attributes
                0x00000000000008f0       0x10 /home/liyupeng/zengyao/6.13/DT-W724V-20140311/output/host/usr/mips-unknown-linux-uclibc/sysroot/lib/libpppintfcms.a(pppintfcmsadapt.o)
 .gnu.attributes
                0x0000000000000900       0x10 /home/liyupeng/zengyao/6.13/DT-W724V-20140311/output/host/usr/mips-unknown-linux-uclibc/sysroot/lib/libprivacybtncms.a(privacybtncmsmsgproc.o)
 .gnu.attributes
                0x0000000000000910       0x10 /home/liyupeng/zengyao/6.13/DT-W724V-20140311/output/host/usr/mips-unknown-linux-uclibc/sysroot/lib/libprivacybtncms.a(privacybtncms.o)
 .gnu.attributes
                0x0000000000000920       0x10 /home/liyupeng/zengyao/6.13/DT-W724V-20140311/output/host/usr/mips-unknown-linux-uclibc/sysroot/lib/libdtqoscms.a(qosapi.o)
 .gnu.attributes
                0x0000000000000930       0x10 /home/liyupeng/zengyao/6.13/DT-W724V-20140311/output/host/usr/mips-unknown-linux-uclibc/sysroot/lib/libdtqoscms.a(qosconfig.o)
 .gnu.attributes
                0x0000000000000940       0x10 /home/liyupeng/zengyao/6.13/DT-W724V-20140311/output/host/usr/mips-unknown-linux-uclibc/sysroot/lib/libradvdcms.a(radvdcms.o)
 .gnu.attributes
                0x0000000000000950       0x10 /home/liyupeng/zengyao/6.13/DT-W724V-20140311/output/host/usr/mips-unknown-linux-uclibc/sysroot/lib/libradvdcms.a(radvdcmsinit.o)
 .gnu.attributes
                0x0000000000000960       0x10 /home/liyupeng/zengyao/6.13/DT-W724V-20140311/output/host/usr/mips-unknown-linux-uclibc/sysroot/lib/libradvdcms.a(radvdcmsmsgproc.o)
 .gnu.attributes
                0x0000000000000970       0x10 /home/liyupeng/zengyao/6.13/DT-W724V-20140311/output/host/usr/mips-unknown-linux-uclibc/sysroot/lib/libradvdcms.a(radvdcmsapi.o)
 .gnu.attributes
                0x0000000000000980       0x10 /home/liyupeng/zengyao/6.13/DT-W724V-20140311/output/host/usr/mips-unknown-linux-uclibc/sysroot/lib/libradvdcms.a(radvdcmsmsgproctr181.o)
 .gnu.attributes
                0x0000000000000990       0x10 /home/liyupeng/zengyao/6.13/DT-W724V-20140311/output/host/usr/mips-unknown-linux-uclibc/sysroot/lib/libroute6cms.a(route6cms.o)
 .gnu.attributes
                0x00000000000009a0       0x10 /home/liyupeng/zengyao/6.13/DT-W724V-20140311/output/host/usr/mips-unknown-linux-uclibc/sysroot/lib/libroute6cms.a(route6cmsinit.o)
 .gnu.attributes
                0x00000000000009b0       0x10 /home/liyupeng/zengyao/6.13/DT-W724V-20140311/output/host/usr/mips-unknown-linux-uclibc/sysroot/lib/libroute6cms.a(route6cmsmsgproc.o)
 .gnu.attributes
                0x00000000000009c0       0x10 /home/liyupeng/zengyao/6.13/DT-W724V-20140311/output/host/usr/mips-unknown-linux-uclibc/sysroot/lib/libroute6cms.a(route6cmsapi.o)
 .gnu.attributes
                0x00000000000009d0       0x10 /home/liyupeng/zengyao/6.13/DT-W724V-20140311/output/host/usr/mips-unknown-linux-uclibc/sysroot/lib/libroutecms.a(routecmsmsgproc.o)
 .gnu.attributes
                0x00000000000009e0       0x10 /home/liyupeng/zengyao/6.13/DT-W724V-20140311/output/host/usr/mips-unknown-linux-uclibc/sysroot/lib/libroutecms.a(routecmsinit.o)
 .gnu.attributes
                0x00000000000009f0       0x10 /home/liyupeng/zengyao/6.13/DT-W724V-20140311/output/host/usr/mips-unknown-linux-uclibc/sysroot/lib/libroutecms.a(routecms.o)
 .gnu.attributes
                0x0000000000000a00       0x10 /home/liyupeng/zengyao/6.13/DT-W724V-20140311/output/host/usr/mips-unknown-linux-uclibc/sysroot/lib/libroutecms.a(routedft.o)
 .gnu.attributes
                0x0000000000000a10       0x10 /home/liyupeng/zengyao/6.13/DT-W724V-20140311/output/host/usr/mips-unknown-linux-uclibc/sysroot/lib/libroutecms.a(routestatic.o)
 .gnu.attributes
                0x0000000000000a20       0x10 /home/liyupeng/zengyao/6.13/DT-W724V-20140311/output/host/usr/mips-unknown-linux-uclibc/sysroot/lib/libroutecms.a(routelist.o)
 .gnu.attributes
                0x0000000000000a30       0x10 /home/liyupeng/zengyao/6.13/DT-W724V-20140311/output/host/usr/mips-unknown-linux-uclibc/sysroot/lib/libsntpcms.a(sntpcms.o)
 .gnu.attributes
                0x0000000000000a40       0x10 /home/liyupeng/zengyao/6.13/DT-W724V-20140311/output/host/usr/mips-unknown-linux-uclibc/sysroot/lib/libsntpcms.a(sntpcmsposixtime.o)
 .gnu.attributes
                0x0000000000000a50       0x10 /home/liyupeng/zengyao/6.13/DT-W724V-20140311/output/host/usr/mips-unknown-linux-uclibc/sysroot/lib/libsntpcms.a(sntpcmsmsgproc.o)
 .gnu.attributes
                0x0000000000000a60       0x10 /home/liyupeng/zengyao/6.13/DT-W724V-20140311/output/host/usr/mips-unknown-linux-uclibc/sysroot/lib/libvlancms.a(vlancms.o)
 .gnu.attributes
                0x0000000000000a70       0x10 /home/liyupeng/zengyao/6.13/DT-W724V-20140311/output/host/usr/mips-unknown-linux-uclibc/sysroot/lib/libvlancms.a(vlancmsint.o)
 .gnu.attributes
                0x0000000000000a80       0x10 /home/liyupeng/zengyao/6.13/DT-W724V-20140311/output/host/usr/mips-unknown-linux-uclibc/sysroot/lib/libvlancms.a(vlancmsmsgproc.o)
 .gnu.attributes
                0x0000000000000a90       0x10 /home/liyupeng/zengyao/6.13/DT-W724V-20140311/output/host/usr/mips-unknown-linux-uclibc/sysroot/lib/libwancorecms.a(wancorecms.o)
 .gnu.attributes
                0x0000000000000aa0       0x10 /home/liyupeng/zengyao/6.13/DT-W724V-20140311/output/host/usr/mips-unknown-linux-uclibc/sysroot/lib/libvlantermcms.a(vlantermcms.o)
 .gnu.attributes
                0x0000000000000ab0       0x10 /home/liyupeng/zengyao/6.13/DT-W724V-20140311/output/host/usr/mips-unknown-linux-uclibc/sysroot/lib/libwlancms.a(wlancmsmsgproc.o)
 .gnu.attributes
                0x0000000000000ac0       0x10 /home/liyupeng/zengyao/6.13/DT-W724V-20140311/output/host/usr/mips-unknown-linux-uclibc/sysroot/lib/libwlancms.a(wlancmsinit.o)
 .gnu.attributes
                0x0000000000000ad0       0x10 /home/liyupeng/zengyao/6.13/DT-W724V-20140311/output/host/usr/mips-unknown-linux-uclibc/sysroot/lib/libwlancms.a(wlancmslal.o)
 .gnu.attributes
                0x0000000000000ae0       0x10 /home/liyupeng/zengyao/6.13/DT-W724V-20140311/output/host/usr/mips-unknown-linux-uclibc/sysroot/lib/libwlancms.a(wlan_tr181.o)
 .gnu.attributes
                0x0000000000000af0       0x10 /home/liyupeng/zengyao/6.13/DT-W724V-20140311/output/host/usr/mips-unknown-linux-uclibc/sysroot/lib/libwlanbcmcms.a(wlanbcmcms.o)
 .gnu.attributes
                0x0000000000000b00       0x10 /home/liyupeng/zengyao/6.13/DT-W724V-20140311/output/host/usr/mips-unknown-linux-uclibc/sysroot/lib/libwlanbcmcms.a(wlanbcm963268.o)
 .gnu.attributes
                0x0000000000000b10       0x10 /home/liyupeng/zengyao/6.13/DT-W724V-20140311/output/host/usr/mips-unknown-linux-uclibc/sysroot/lib/libwlanbcmcms.a(wlanmonitor.o)
 .gnu.attributes
                0x0000000000000b20       0x10 /home/liyupeng/zengyao/6.13/DT-W724V-20140311/output/host/usr/mips-unknown-linux-uclibc/sysroot/lib/libatmlinkcms.a(atmlinkcmsapi.o)
 .gnu.attributes
                0x0000000000000b30       0x10 /home/liyupeng/zengyao/6.13/DT-W724V-20140311/output/host/usr/mips-unknown-linux-uclibc/sysroot/lib/libatmlinkcms.a(atmlinkdiag.o)
 .gnu.attributes
                0x0000000000000b40       0x10 /home/liyupeng/zengyao/6.13/DT-W724V-20140311/output/host/usr/mips-unknown-linux-uclibc/sysroot/lib/libdslchannelcms.a(dslchannelcmsapi.o)
 .gnu.attributes
                0x0000000000000b50       0x10 /home/liyupeng/zengyao/6.13/DT-W724V-20140311/output/host/usr/mips-unknown-linux-uclibc/sysroot/lib/libdslchannelcms.a(dslchanneldiag.o)
 .gnu.attributes
                0x0000000000000b60       0x10 /home/liyupeng/zengyao/6.13/DT-W724V-20140311/output/host/usr/mips-unknown-linux-uclibc/sysroot/lib/libdsllinecms.a(dsllinecmsapi.o)
 .gnu.attributes
                0x0000000000000b70       0x10 /home/liyupeng/zengyao/6.13/DT-W724V-20140311/output/host/usr/mips-unknown-linux-uclibc/sysroot/lib/libptmlinkcms.a(ptmlinkcmsapi.o)
 .gnu.attributes
                0x0000000000000b80       0x10 /home/liyupeng/zengyao/6.13/DT-W724V-20140311/output/host/usr/mips-unknown-linux-uclibc/sysroot/lib/libdtvoicecms.a(voiceapi.o)
 .gnu.attributes
                0x0000000000000b90       0x10 /home/liyupeng/zengyao/6.13/DT-W724V-20140311/output/host/usr/mips-unknown-linux-uclibc/sysroot/lib/libdtvoicecms.a(voicecms.o)
 .gnu.attributes
                0x0000000000000ba0       0x10 /home/liyupeng/zengyao/6.13/DT-W724V-20140311/output/host/usr/mips-unknown-linux-uclibc/sysroot/lib/libdtvoicecms.a(voiceutil.o)
 .gnu.attributes
                0x0000000000000bb0       0x10 /home/liyupeng/zengyao/6.13/DT-W724V-20140311/output/host/usr/mips-unknown-linux-uclibc/sysroot/lib/libdtvoicecms.a(voicecfg.o)
 .gnu.attributes
                0x0000000000000bc0       0x10 /home/liyupeng/zengyao/6.13/DT-W724V-20140311/output/host/usr/mips-unknown-linux-uclibc/sysroot/lib/libdtvoicecms.a(IniParser.o)
 .gnu.attributes
                0x0000000000000bd0       0x10 /home/liyupeng/zengyao/6.13/DT-W724V-20140311/output/host/usr/mips-unknown-linux-uclibc/sysroot/lib/libdtvoicecms.a(voicediag.o)
 .gnu.attributes
                0x0000000000000be0       0x10 /home/liyupeng/zengyao/6.13/DT-W724V-20140311/output/host/usr/mips-unknown-linux-uclibc/sysroot/lib/libdtvoicecms.a(voicecmsmsgproc.o)
 .gnu.attributes
                0x0000000000000bf0       0x10 /home/liyupeng/zengyao/6.13/DT-W724V-20140311/output/host/usr/mips-unknown-linux-uclibc/sysroot/lib/libnetpbcms.a(netphonebookapi.o)
 .gnu.attributes
                0x0000000000000c00       0x10 /home/liyupeng/zengyao/6.13/DT-W724V-20140311/output/host/usr/mips-unknown-linux-uclibc/sysroot/lib/librsscms.a(rssapi.o)
 .gnu.attributes
                0x0000000000000c10       0x10 /home/liyupeng/zengyao/6.13/DT-W724V-20140311/output/host/usr/mips-unknown-linux-uclibc/sysroot/lib/librsscms.a(voicersscmsmsgproc.o)
 .gnu.attributes
                0x0000000000000c20       0x10 /home/liyupeng/zengyao/6.13/DT-W724V-20140311/output/host/usr/mips-unknown-linux-uclibc/sysroot/lib/libemailcms.a(emailapi.o)
 .gnu.attributes
                0x0000000000000c30       0x10 /home/liyupeng/zengyao/6.13/DT-W724V-20140311/output/host/usr/mips-unknown-linux-uclibc/sysroot/lib/libemailcms.a(emailcms.o)
 .gnu.attributes
                0x0000000000000c40       0x10 /home/liyupeng/zengyao/6.13/DT-W724V-20140311/output/host/usr/mips-unknown-linux-uclibc/sysroot/lib/libemailcms.a(voiceemailcmsmsgproc.o)
 .gnu.attributes
                0x0000000000000c50       0x10 /opt/toolchains/crosstools-mips-gcc-4.6-linux-3.4-uclibc-0.9.32-binutils-2.21/usr/lib/gcc/mips-unknown-linux-uclibc/4.6.2/libgcc.a(_fixunsdfsi.o)
 .gnu.attributes
                0x0000000000000c60       0x10 /opt/toolchains/crosstools-mips-gcc-4.6-linux-3.4-uclibc-0.9.32-binutils-2.21/usr/lib/gcc/mips-unknown-linux-uclibc/4.6.2/libgcc.a(_udivdi3.o)
 .gnu.attributes
                0x0000000000000c70       0x10 /opt/toolchains/crosstools-mips-gcc-4.6-linux-3.4-uclibc-0.9.32-binutils-2.21/usr/lib/gcc/mips-unknown-linux-uclibc/4.6.2/libgcc.a(_umoddi3.o)
 .gnu.attributes
                0x0000000000000c80       0x10 /opt/toolchains/crosstools-mips-gcc-4.6-linux-3.4-uclibc-0.9.32-binutils-2.21/usr/lib/gcc/mips-unknown-linux-uclibc/4.6.2/libgcc.a(_sf_to_df.o)
 .gnu.attributes
                0x0000000000000c90       0x10 /opt/toolchains/crosstools-mips-gcc-4.6-linux-3.4-uclibc-0.9.32-binutils-2.21/usr/lib/gcc/mips-unknown-linux-uclibc/4.6.2/libgcc.a(_usi_to_sf.o)
 .gnu.attributes
                0x0000000000000ca0       0x10 /opt/toolchains/crosstools-mips-gcc-4.6-linux-3.4-uclibc-0.9.32-binutils-2.21/usr/lib/gcc/mips-unknown-linux-uclibc/4.6.2/libgcc.a(_addsub_df.o)
 .gnu.attributes
                0x0000000000000cb0       0x10 /opt/toolchains/crosstools-mips-gcc-4.6-linux-3.4-uclibc-0.9.32-binutils-2.21/usr/lib/gcc/mips-unknown-linux-uclibc/4.6.2/libgcc.a(_mul_df.o)
 .gnu.attributes
                0x0000000000000cc0       0x10 /opt/toolchains/crosstools-mips-gcc-4.6-linux-3.4-uclibc-0.9.32-binutils-2.21/usr/lib/gcc/mips-unknown-linux-uclibc/4.6.2/libgcc.a(_ge_df.o)
 .gnu.attributes
                0x0000000000000cd0       0x10 /opt/toolchains/crosstools-mips-gcc-4.6-linux-3.4-uclibc-0.9.32-binutils-2.21/usr/lib/gcc/mips-unknown-linux-uclibc/4.6.2/libgcc.a(_df_to_si.o)
 .gnu.attributes
                0x0000000000000ce0       0x10 /opt/toolchains/crosstools-mips-gcc-4.6-linux-3.4-uclibc-0.9.32-binutils-2.21/usr/lib/gcc/mips-unknown-linux-uclibc/4.6.2/libgcc.a(_make_df.o)
 .gnu.attributes
                0x0000000000000cf0       0x10 /opt/toolchains/crosstools-mips-gcc-4.6-linux-3.4-uclibc-0.9.32-binutils-2.21/usr/lib/gcc/mips-unknown-linux-uclibc/4.6.2/libgcc.a(_df_to_sf.o)
 .gnu.attributes
                0x0000000000000d00       0x10 /opt/toolchains/crosstools-mips-gcc-4.6-linux-3.4-uclibc-0.9.32-binutils-2.21/usr/lib/gcc/mips-unknown-linux-uclibc/4.6.2/libgcc.a(_thenan_df.o)
 .gnu.attributes
                0x0000000000000d10       0x10 /opt/toolchains/crosstools-mips-gcc-4.6-linux-3.4-uclibc-0.9.32-binutils-2.21/usr/lib/gcc/mips-unknown-linux-uclibc/4.6.2/libgcc.a(_lshrdi3.o)
 .gnu.attributes
                0x0000000000000d20       0x10 /opt/toolchains/crosstools-mips-gcc-4.6-linux-3.4-uclibc-0.9.32-binutils-2.21/usr/lib/gcc/mips-unknown-linux-uclibc/4.6.2/libgcc.a(_ashldi3.o)
 .gnu.attributes
                0x0000000000000d30       0x10 /opt/toolchains/crosstools-mips-gcc-4.6-linux-3.4-uclibc-0.9.32-binutils-2.21/usr/lib/gcc/mips-unknown-linux-uclibc/4.6.2/libgcc.a(_pack_sf.o)
 .gnu.attributes
                0x0000000000000d40       0x10 /opt/toolchains/crosstools-mips-gcc-4.6-linux-3.4-uclibc-0.9.32-binutils-2.21/usr/lib/gcc/mips-unknown-linux-uclibc/4.6.2/libgcc.a(_unpack_sf.o)
 .gnu.attributes
                0x0000000000000d50       0x10 /opt/toolchains/crosstools-mips-gcc-4.6-linux-3.4-uclibc-0.9.32-binutils-2.21/usr/lib/gcc/mips-unknown-linux-uclibc/4.6.2/libgcc.a(_make_sf.o)
 .gnu.attributes
                0x0000000000000d60       0x10 /opt/toolchains/crosstools-mips-gcc-4.6-linux-3.4-uclibc-0.9.32-binutils-2.21/usr/lib/gcc/mips-unknown-linux-uclibc/4.6.2/libgcc.a(_pack_df.o)
 .gnu.attributes
                0x0000000000000d70       0x10 /opt/toolchains/crosstools-mips-gcc-4.6-linux-3.4-uclibc-0.9.32-binutils-2.21/usr/lib/gcc/mips-unknown-linux-uclibc/4.6.2/libgcc.a(_unpack_df.o)
 .gnu.attributes
                0x0000000000000d80       0x10 /opt/toolchains/crosstools-mips-gcc-4.6-linux-3.4-uclibc-0.9.32-binutils-2.21/usr/lib/gcc/mips-unknown-linux-uclibc/4.6.2/libgcc.a(_fpcmp_parts_df.o)
 .gnu.attributes
                0x0000000000000d90       0x10 /opt/toolchains/crosstools-mips-gcc-4.6-linux-3.4-uclibc-0.9.32-binutils-2.21/usr/lib/gcc/mips-unknown-linux-uclibc/4.6.2/crtend.o

.gptab.sdata
 *(.gptab.data)
 *(.gptab.sdata)

.gptab.sbss
 *(.gptab.bss)
 *(.gptab.sbss)

.mdebug.abi32   0x00000000005fa6f8        0x0
 *(.mdebug.abi32)
 .mdebug.abi32  0x00000000005fa6f8        0x0 /home/liyupeng/zengyao/6.13/DT-W724V-20140311/output/host/usr/mips-unknown-linux-uclibc/sysroot/usr/lib/crti.o
 .mdebug.abi32  0x00000000005fa6f8        0x0 /opt/toolchains/crosstools-mips-gcc-4.6-linux-3.4-uclibc-0.9.32-binutils-2.21/usr/lib/gcc/mips-unknown-linux-uclibc/4.6.2/crtbegin.o
 .mdebug.abi32  0x00000000005fa6f8        0x0 /home/liyupeng/zengyao/6.13/DT-W724V-20140311/output/package/atp/configuration/cmsmain/management.o
 .mdebug.abi32  0x00000000005fa6f8        0x0 /home/liyupeng/zengyao/6.13/DT-W724V-20140311/output/package/atp/configuration/cmsmain/cmsmonitor.o
 .mdebug.abi32  0x00000000005fa6f8        0x0 /home/liyupeng/zengyao/6.13/DT-W724V-20140311/output/package/atp/configuration/cmsmain/cmsinit.o
 .mdebug.abi32  0x00000000005fa6f8        0x0 /home/liyupeng/zengyao/6.13/DT-W724V-20140311/output/host/usr/mips-unknown-linux-uclibc/sysroot/lib/libcmscore.a(cmsmsgproc.o)
 .mdebug.abi32  0x00000000005fa6f8        0x0 /home/liyupeng/zengyao/6.13/DT-W724V-20140311/output/host/usr/mips-unknown-linux-uclibc/sysroot/lib/libcmscore.a(cmsutil.o)
 .mdebug.abi32  0x00000000005fa6f8        0x0 /home/liyupeng/zengyao/6.13/DT-W724V-20140311/output/host/usr/mips-unknown-linux-uclibc/sysroot/lib/libcmscore.a(cmsinitapi.o)
 .mdebug.abi32  0x00000000005fa6f8        0x0 /home/liyupeng/zengyao/6.13/DT-W724V-20140311/output/host/usr/mips-unknown-linux-uclibc/sysroot/lib/libcmscore.a(cmssigqueue.o)
 .mdebug.abi32  0x00000000005fa6f8        0x0 /home/liyupeng/zengyao/6.13/DT-W724V-20140311/output/host/usr/mips-unknown-linux-uclibc/sysroot/lib/libinterfacecore.a(interfaceapi.o)
 .mdebug.abi32  0x00000000005fa6f8        0x0 /home/liyupeng/zengyao/6.13/DT-W724V-20140311/output/host/usr/mips-unknown-linux-uclibc/sysroot/lib/libinterfacecore.a(intfstats.o)
 .mdebug.abi32  0x00000000005fa6f8        0x0 /home/liyupeng/zengyao/6.13/DT-W724V-20140311/output/host/usr/mips-unknown-linux-uclibc/sysroot/lib/libinterfacecore.a(intfdescriptor.o)
 .mdebug.abi32  0x00000000005fa6f8        0x0 /home/liyupeng/zengyao/6.13/DT-W724V-20140311/output/host/usr/mips-unknown-linux-uclibc/sysroot/lib/libinterfacecore.a(intfcfgmsgproc.o)
 .mdebug.abi32  0x00000000005fa6f8        0x0 /home/liyupeng/zengyao/6.13/DT-W724V-20140311/output/host/usr/mips-unknown-linux-uclibc/sysroot/lib/libinterfacecore.a(intfstack.o)
 .mdebug.abi32  0x00000000005fa6f8        0x0 /home/liyupeng/zengyao/6.13/DT-W724V-20140311/output/host/usr/mips-unknown-linux-uclibc/sysroot/lib/libdmscms.a(dmscmsmsgproc.o)
 .mdebug.abi32  0x00000000005fa6f8        0x0 /home/liyupeng/zengyao/6.13/DT-W724V-20140311/output/host/usr/mips-unknown-linux-uclibc/sysroot/lib/libledservicecms.a(ledserviceini.o)
 .mdebug.abi32  0x00000000005fa6f8        0x0 /home/liyupeng/zengyao/6.13/DT-W724V-20140311/output/host/usr/mips-unknown-linux-uclibc/sysroot/lib/libnascms.a(nascms.o)
 .mdebug.abi32  0x00000000005fa6f8        0x0 /home/liyupeng/zengyao/6.13/DT-W724V-20140311/output/host/usr/mips-unknown-linux-uclibc/sysroot/lib/liboamcms.a(oamcms.o)
 .mdebug.abi32  0x00000000005fa6f8        0x0 /home/liyupeng/zengyao/6.13/DT-W724V-20140311/output/host/usr/mips-unknown-linux-uclibc/sysroot/lib/libtr143cms.a(tr143cmsmsgproc.o)
 .mdebug.abi32  0x00000000005fa6f8        0x0 /home/liyupeng/zengyao/6.13/DT-W724V-20140311/output/host/usr/mips-unknown-linux-uclibc/sysroot/lib/libusbmngrcms.a(usbmngrcmsproc.o)
 .mdebug.abi32  0x00000000005fa6f8        0x0 /home/liyupeng/zengyao/6.13/DT-W724V-20140311/output/host/usr/mips-unknown-linux-uclibc/sysroot/lib/libusbmountcms.a(usbmntcmsmsgproc.o)
 .mdebug.abi32  0x00000000005fa6f8        0x0 /home/liyupeng/zengyao/6.13/DT-W724V-20140311/output/host/usr/mips-unknown-linux-uclibc/sysroot/lib/libusbmountcms.a(usbdiskmonitor.o)
 .mdebug.abi32  0x00000000005fa6f8        0x0 /home/liyupeng/zengyao/6.13/DT-W724V-20140311/output/host/usr/mips-unknown-linux-uclibc/sysroot/lib/libusbmountcms.a(usbmntcmsinit.o)
 .mdebug.abi32  0x00000000005fa6f8        0x0 /home/liyupeng/zengyao/6.13/DT-W724V-20140311/output/host/usr/mips-unknown-linux-uclibc/sysroot/lib/libcupscms.a(cupscms.o)
 .mdebug.abi32  0x00000000005fa6f8        0x0 /home/liyupeng/zengyao/6.13/DT-W724V-20140311/output/host/usr/mips-unknown-linux-uclibc/sysroot/lib/libusbstoragecms.a(usbstoragecmsmsgproc.o)
 .mdebug.abi32  0x00000000005fa6f8        0x0 /home/liyupeng/zengyao/6.13/DT-W724V-20140311/output/host/usr/mips-unknown-linux-uclibc/sysroot/lib/libusbstoragecms.a(usbstoragecms.o)
 .mdebug.abi32  0x00000000005fa6f8        0x0 /home/liyupeng/zengyao/6.13/DT-W724V-20140311/output/host/usr/mips-unknown-linux-uclibc/sysroot/lib/libusbstoragecms.a(usbstoragecmsinit.o)
 .mdebug.abi32  0x00000000005fa6f8        0x0 /home/liyupeng/zengyao/6.13/DT-W724V-20140311/output/host/usr/mips-unknown-linux-uclibc/sysroot/lib/libusbstoragecms.a(usbstorageloginctl.o)
 .mdebug.abi32  0x00000000005fa6f8        0x0 /home/liyupeng/zengyao/6.13/DT-W724V-20140311/output/host/usr/mips-unknown-linux-uclibc/sysroot/lib/libftpservercms.a(ftpservercmsmsgproc.o)
 .mdebug.abi32  0x00000000005fa6f8        0x0 /home/liyupeng/zengyao/6.13/DT-W724V-20140311/output/host/usr/mips-unknown-linux-uclibc/sysroot/lib/libftpservercms.a(ftpservercms.o)
 .mdebug.abi32  0x00000000005fa6f8        0x0 /home/liyupeng/zengyao/6.13/DT-W724V-20140311/output/host/usr/mips-unknown-linux-uclibc/sysroot/lib/libsambacms.a(sambacms.o)
 .mdebug.abi32  0x00000000005fa6f8        0x0 /home/liyupeng/zengyao/6.13/DT-W724V-20140311/output/host/usr/mips-unknown-linux-uclibc/sysroot/lib/libsambacms.a(sambacmsmsgproc.o)
 .mdebug.abi32  0x00000000005fa6f8        0x0 /home/liyupeng/zengyao/6.13/DT-W724V-20140311/output/host/usr/mips-unknown-linux-uclibc/sysroot/lib/libcwmpcms.a(cwmpcmsmsgproc.o)
 .mdebug.abi32  0x00000000005fa6f8        0x0 /home/liyupeng/zengyao/6.13/DT-W724V-20140311/output/host/usr/mips-unknown-linux-uclibc/sysroot/lib/libcwmpcms.a(cwmpcms.o)
 .mdebug.abi32  0x00000000005fa6f8        0x0 /home/liyupeng/zengyao/6.13/DT-W724V-20140311/output/host/usr/mips-unknown-linux-uclibc/sysroot/lib/libcwmpcms.a(cwmpschdwlmsgproc.o)
 .mdebug.abi32  0x00000000005fa6f8        0x0 /home/liyupeng/zengyao/6.13/DT-W724V-20140311/output/host/usr/mips-unknown-linux-uclibc/sysroot/lib/libippingcms.a(ippingcmsmsgproc.o)
 .mdebug.abi32  0x00000000005fa6f8        0x0 /home/liyupeng/zengyao/6.13/DT-W724V-20140311/output/host/usr/mips-unknown-linux-uclibc/sysroot/lib/liblogcms.a(logcms.o)
 .mdebug.abi32  0x00000000005fa6f8        0x0 /home/liyupeng/zengyao/6.13/DT-W724V-20140311/output/host/usr/mips-unknown-linux-uclibc/sysroot/lib/liblogcms.a(logcmsinit.o)
 .mdebug.abi32  0x00000000005fa6f8        0x0 /home/liyupeng/zengyao/6.13/DT-W724V-20140311/output/host/usr/mips-unknown-linux-uclibc/sysroot/lib/liblogcms.a(logcmsmsgproc.o)
 .mdebug.abi32  0x00000000005fa6f8        0x0 /home/liyupeng/zengyao/6.13/DT-W724V-20140311/output/host/usr/mips-unknown-linux-uclibc/sysroot/lib/libmiccms.a(miccmsmsgproc.o)
 .mdebug.abi32  0x00000000005fa6f8        0x0 /home/liyupeng/zengyao/6.13/DT-W724V-20140311/output/host/usr/mips-unknown-linux-uclibc/sysroot/lib/libmiccms.a(miccms.o)
 .mdebug.abi32  0x00000000005fa6f8        0x0 /home/liyupeng/zengyao/6.13/DT-W724V-20140311/output/host/usr/mips-unknown-linux-uclibc/sysroot/lib/libportmntcms.a(portmntcms.o)
 .mdebug.abi32  0x00000000005fa6f8        0x0 /home/liyupeng/zengyao/6.13/DT-W724V-20140311/output/host/usr/mips-unknown-linux-uclibc/sysroot/lib/libsysinfocms.a(sysinfoinit.o)
 .mdebug.abi32  0x00000000005fa6f8        0x0 /home/liyupeng/zengyao/6.13/DT-W724V-20140311/output/host/usr/mips-unknown-linux-uclibc/sysroot/lib/libsysinfocms.a(sysinfocmsmsgproc.o)
 .mdebug.abi32  0x00000000005fa6f8        0x0 /home/liyupeng/zengyao/6.13/DT-W724V-20140311/output/host/usr/mips-unknown-linux-uclibc/sysroot/lib/libsysinfocms.a(sysinfocms.o)
 .mdebug.abi32  0x00000000005fa6f8        0x0 /home/liyupeng/zengyao/6.13/DT-W724V-20140311/output/host/usr/mips-unknown-linux-uclibc/sysroot/lib/libsysinfocms.a(sysperiodicstatistics.o)
 .mdebug.abi32  0x00000000005fa6f8        0x0 /home/liyupeng/zengyao/6.13/DT-W724V-20140311/output/host/usr/mips-unknown-linux-uclibc/sysroot/lib/libtelnetdcms.a(telnetdcmsinit.o)
 .mdebug.abi32  0x00000000005fa6f8        0x0 /home/liyupeng/zengyao/6.13/DT-W724V-20140311/output/host/usr/mips-unknown-linux-uclibc/sysroot/lib/libtelnetdcms.a(telnetdcmsmsgproc.o)
 .mdebug.abi32  0x00000000005fa6f8        0x0 /home/liyupeng/zengyao/6.13/DT-W724V-20140311/output/host/usr/mips-unknown-linux-uclibc/sysroot/lib/libtr111cms.a(tr111cmsmsgproc.o)
 .mdebug.abi32  0x00000000005fa6f8        0x0 /home/liyupeng/zengyao/6.13/DT-W724V-20140311/output/host/usr/mips-unknown-linux-uclibc/sysroot/lib/libtr111cms.a(tr111cms.o)
 .mdebug.abi32  0x00000000005fa6f8        0x0 /home/liyupeng/zengyao/6.13/DT-W724V-20140311/output/host/usr/mips-unknown-linux-uclibc/sysroot/lib/libtr232cms.a(ipdrcms.o)
 .mdebug.abi32  0x00000000005fa6f8        0x0 /home/liyupeng/zengyao/6.13/DT-W724V-20140311/output/host/usr/mips-unknown-linux-uclibc/sysroot/lib/libtr232cms.a(ipdrcmsmsgproc.o)
 .mdebug.abi32  0x00000000005fa6f8        0x0 /home/liyupeng/zengyao/6.13/DT-W724V-20140311/output/host/usr/mips-unknown-linux-uclibc/sysroot/lib/libtr232cms.a(ipdrcmsinit.o)
 .mdebug.abi32  0x00000000005fa6f8        0x0 /home/liyupeng/zengyao/6.13/DT-W724V-20140311/output/host/usr/mips-unknown-linux-uclibc/sysroot/lib/libtraceroutecms.a(traceroutecmsmsgproc.o)
 .mdebug.abi32  0x00000000005fa6f8        0x0 /home/liyupeng/zengyao/6.13/DT-W724V-20140311/output/host/usr/mips-unknown-linux-uclibc/sysroot/lib/libupnpcms.a(upnpcms.o)
 .mdebug.abi32  0x00000000005fa6f8        0x0 /home/liyupeng/zengyao/6.13/DT-W724V-20140311/output/host/usr/mips-unknown-linux-uclibc/sysroot/lib/libuserintfcms.a(userintfinit.o)
 .mdebug.abi32  0x00000000005fa6f8        0x0 /home/liyupeng/zengyao/6.13/DT-W724V-20140311/output/host/usr/mips-unknown-linux-uclibc/sysroot/lib/libuserintfcms.a(userintfcmsmsgproc.o)
 .mdebug.abi32  0x00000000005fa6f8        0x0 /home/liyupeng/zengyao/6.13/DT-W724V-20140311/output/host/usr/mips-unknown-linux-uclibc/sysroot/lib/libuserintfcms.a(userintfcms.o)
 .mdebug.abi32  0x00000000005fa6f8        0x0 /home/liyupeng/zengyao/6.13/DT-W724V-20140311/output/host/usr/mips-unknown-linux-uclibc/sysroot/lib/libwebcms.a(webcmsmsgproc.o)
 .mdebug.abi32  0x00000000005fa6f8        0x0 /home/liyupeng/zengyao/6.13/DT-W724V-20140311/output/host/usr/mips-unknown-linux-uclibc/sysroot/lib/libbridgeportcms.a(bridgeportcmsapi.o)
 .mdebug.abi32  0x00000000005fa6f8        0x0 /home/liyupeng/zengyao/6.13/DT-W724V-20140311/output/host/usr/mips-unknown-linux-uclibc/sysroot/lib/libbridgeportcms.a(bridgeportcms.o)
 .mdebug.abi32  0x00000000005fa6f8        0x0 /home/liyupeng/zengyao/6.13/DT-W724V-20140311/output/host/usr/mips-unknown-linux-uclibc/sysroot/lib/libbridgeportcms.a(bridgingcmsinit.o)
 .mdebug.abi32  0x00000000005fa6f8        0x0 /home/liyupeng/zengyao/6.13/DT-W724V-20140311/output/host/usr/mips-unknown-linux-uclibc/sysroot/lib/libbridgeportcms.a(bridgingfiltercmsapi.o)
 .mdebug.abi32  0x00000000005fa6f8        0x0 /home/liyupeng/zengyao/6.13/DT-W724V-20140311/output/host/usr/mips-unknown-linux-uclibc/sysroot/lib/libbridgeportcms.a(bridgingfiltercmsinit.o)
 .mdebug.abi32  0x00000000005fa6f8        0x0 /home/liyupeng/zengyao/6.13/DT-W724V-20140311/output/host/usr/mips-unknown-linux-uclibc/sysroot/lib/libbridgeportcms.a(bridgingfiltercmsmsgproc.o)
 .mdebug.abi32  0x00000000005fa6f8        0x0 /home/liyupeng/zengyao/6.13/DT-W724V-20140311/output/host/usr/mips-unknown-linux-uclibc/sysroot/lib/libbridgeportcms.a(bridgingfilteroptions.o)
 .mdebug.abi32  0x00000000005fa6f8        0x0 /home/liyupeng/zengyao/6.13/DT-W724V-20140311/output/host/usr/mips-unknown-linux-uclibc/sysroot/lib/libipv6commoncms.a(ipv6commoncms.o)
 .mdebug.abi32  0x00000000005fa6f8        0x0 /home/liyupeng/zengyao/6.13/DT-W724V-20140311/output/host/usr/mips-unknown-linux-uclibc/sysroot/lib/libipv6commoncms.a(ipv6commoncmsproc.o)
 .mdebug.abi32  0x00000000005fa6f8        0x0 /home/liyupeng/zengyao/6.13/DT-W724V-20140311/output/host/usr/mips-unknown-linux-uclibc/sysroot/lib/libddnscms.a(ddnscms.o)
 .mdebug.abi32  0x00000000005fa6f8        0x0 /home/liyupeng/zengyao/6.13/DT-W724V-20140311/output/host/usr/mips-unknown-linux-uclibc/sysroot/lib/libddnscms.a(ddnscmsinit.o)
 .mdebug.abi32  0x00000000005fa6f8        0x0 /home/liyupeng/zengyao/6.13/DT-W724V-20140311/output/host/usr/mips-unknown-linux-uclibc/sysroot/lib/libddnscms.a(ddnscmsmsgproc.o)
 .mdebug.abi32  0x00000000005fa6f8        0x0 /home/liyupeng/zengyao/6.13/DT-W724V-20140311/output/host/usr/mips-unknown-linux-uclibc/sysroot/lib/libddnscms.a(ddnscmsapi.o)
 .mdebug.abi32  0x00000000005fa6f8        0x0 /home/liyupeng/zengyao/6.13/DT-W724V-20140311/output/host/usr/mips-unknown-linux-uclibc/sysroot/lib/libdhcp6ccms.a(dhcp6ccms.o)
 .mdebug.abi32  0x00000000005fa6f8        0x0 /home/liyupeng/zengyao/6.13/DT-W724V-20140311/output/host/usr/mips-unknown-linux-uclibc/sysroot/lib/libdhcp6ccms.a(dhcp6ccmsmsgproc.o)
 .mdebug.abi32  0x00000000005fa6f8        0x0 /home/liyupeng/zengyao/6.13/DT-W724V-20140311/output/host/usr/mips-unknown-linux-uclibc/sysroot/lib/libdhcp6scms.a(dhcp6scms.o)
 .mdebug.abi32  0x00000000005fa6f8        0x0 /home/liyupeng/zengyao/6.13/DT-W724V-20140311/output/host/usr/mips-unknown-linux-uclibc/sysroot/lib/libdhcp6scms.a(dhcp6scmsinit.o)
 .mdebug.abi32  0x00000000005fa6f8        0x0 /home/liyupeng/zengyao/6.13/DT-W724V-20140311/output/host/usr/mips-unknown-linux-uclibc/sysroot/lib/libdhcp6scms.a(dhcp6scmsapi.o)
 .mdebug.abi32  0x00000000005fa6f8        0x0 /home/liyupeng/zengyao/6.13/DT-W724V-20140311/output/host/usr/mips-unknown-linux-uclibc/sysroot/lib/libdhcp6scms.a(dhcp6scmsproctr181.o)
 .mdebug.abi32  0x00000000005fa6f8        0x0 /home/liyupeng/zengyao/6.13/DT-W724V-20140311/output/host/usr/mips-unknown-linux-uclibc/sysroot/lib/libdhcpccms.a(dhcpccmsmsgproc.o)
 .mdebug.abi32  0x00000000005fa6f8        0x0 /home/liyupeng/zengyao/6.13/DT-W724V-20140311/output/host/usr/mips-unknown-linux-uclibc/sysroot/lib/libdhcpccms.a(dhcpccmsinit.o)
 .mdebug.abi32  0x00000000005fa6f8        0x0 /home/liyupeng/zengyao/6.13/DT-W724V-20140311/output/host/usr/mips-unknown-linux-uclibc/sysroot/lib/libdhcpccms.a(dhcpccms.o)
 .mdebug.abi32  0x00000000005fa6f8        0x0 /home/liyupeng/zengyao/6.13/DT-W724V-20140311/output/host/usr/mips-unknown-linux-uclibc/sysroot/lib/libdhcpscms.a(lanapi.o)
 .mdebug.abi32  0x00000000005fa6f8        0x0 /home/liyupeng/zengyao/6.13/DT-W724V-20140311/output/host/usr/mips-unknown-linux-uclibc/sysroot/lib/libdhcpscms.a(lanutil.o)
 .mdebug.abi32  0x00000000005fa6f8        0x0 /home/liyupeng/zengyao/6.13/DT-W724V-20140311/output/host/usr/mips-unknown-linux-uclibc/sysroot/lib/libdhcpscms.a(dhcpscmsinit.o)
 .mdebug.abi32  0x00000000005fa6f8        0x0 /home/liyupeng/zengyao/6.13/DT-W724V-20140311/output/host/usr/mips-unknown-linux-uclibc/sysroot/lib/libdhcpscms.a(dhcpscmsnotifymngr.o)
 .mdebug.abi32  0x00000000005fa6f8        0x0 /home/liyupeng/zengyao/6.13/DT-W724V-20140311/output/host/usr/mips-unknown-linux-uclibc/sysroot/lib/libdhcpscms.a(dhcpscmsmsgproc.o)
 .mdebug.abi32  0x00000000005fa6f8        0x0 /home/liyupeng/zengyao/6.13/DT-W724V-20140311/output/host/usr/mips-unknown-linux-uclibc/sysroot/lib/libdhcpscms.a(dhcpscms_tr181.o)
 .mdebug.abi32  0x00000000005fa6f8        0x0 /home/liyupeng/zengyao/6.13/DT-W724V-20140311/output/host/usr/mips-unknown-linux-uclibc/sysroot/lib/libdnscms.a(dnscmsinit.o)
 .mdebug.abi32  0x00000000005fa6f8        0x0 /home/liyupeng/zengyao/6.13/DT-W724V-20140311/output/host/usr/mips-unknown-linux-uclibc/sysroot/lib/libdnscms.a(dnscms.o)
 .mdebug.abi32  0x00000000005fa6f8        0x0 /home/liyupeng/zengyao/6.13/DT-W724V-20140311/output/host/usr/mips-unknown-linux-uclibc/sysroot/lib/libdnscms.a(dnscmsdb.o)
 .mdebug.abi32  0x00000000005fa6f8        0x0 /home/liyupeng/zengyao/6.13/DT-W724V-20140311/output/host/usr/mips-unknown-linux-uclibc/sysroot/lib/libdnsdiagcms.a(dnsdiagcmsmsgproc.o)
 .mdebug.abi32  0x00000000005fa6f8        0x0 /home/liyupeng/zengyao/6.13/DT-W724V-20140311/output/host/usr/mips-unknown-linux-uclibc/sysroot/lib/libethintfcms.a(ethintfcmsapi.o)
 .mdebug.abi32  0x00000000005fa6f8        0x0 /home/liyupeng/zengyao/6.13/DT-W724V-20140311/output/host/usr/mips-unknown-linux-uclibc/sysroot/lib/libethintfcms.a(ethintfcmsutil.o)
 .mdebug.abi32  0x00000000005fa6f8        0x0 /home/liyupeng/zengyao/6.13/DT-W724V-20140311/output/host/usr/mips-unknown-linux-uclibc/sysroot/lib/libethintfcms.a(ethintfcmsmsgproc.o)
 .mdebug.abi32  0x00000000005fa6f8        0x0 /home/liyupeng/zengyao/6.13/DT-W724V-20140311/output/host/usr/mips-unknown-linux-uclibc/sysroot/lib/libethlinkcms.a(ethlinkcmsapi.o)
 .mdebug.abi32  0x00000000005fa6f8        0x0 /home/liyupeng/zengyao/6.13/DT-W724V-20140311/output/host/usr/mips-unknown-linux-uclibc/sysroot/lib/libfirewallcmsdt.a(firewallcmsdt.o)
 .mdebug.abi32  0x00000000005fa6f8        0x0 /home/liyupeng/zengyao/6.13/DT-W724V-20140311/output/host/usr/mips-unknown-linux-uclibc/sysroot/lib/libfirewallcmsdt.a(fwfilterapi.o)
 .mdebug.abi32  0x00000000005fa6f8        0x0 /home/liyupeng/zengyao/6.13/DT-W724V-20140311/output/host/usr/mips-unknown-linux-uclibc/sysroot/lib/libfirewallcmsdt.a(fwfilterutil.o)
 .mdebug.abi32  0x00000000005fa6f8        0x0 /home/liyupeng/zengyao/6.13/DT-W724V-20140311/output/host/usr/mips-unknown-linux-uclibc/sysroot/lib/libfirewallcmsdt.a(abuseapi.o)
 .mdebug.abi32  0x00000000005fa6f8        0x0 /home/liyupeng/zengyao/6.13/DT-W724V-20140311/output/host/usr/mips-unknown-linux-uclibc/sysroot/lib/libfirewallcmsdt.a(abuseutil.o)
 .mdebug.abi32  0x00000000005fa6f8        0x0 /home/liyupeng/zengyao/6.13/DT-W724V-20140311/output/host/usr/mips-unknown-linux-uclibc/sysroot/lib/libfirewallcmsdt.a(timeruleflushfcctl.o)
 .mdebug.abi32  0x00000000005fa6f8        0x0 /home/liyupeng/zengyao/6.13/DT-W724V-20140311/output/host/usr/mips-unknown-linux-uclibc/sysroot/lib/libfoncms.a(foncms.o)
 .mdebug.abi32  0x00000000005fa6f8        0x0 /home/liyupeng/zengyao/6.13/DT-W724V-20140311/output/host/usr/mips-unknown-linux-uclibc/sysroot/lib/libfoncms.a(foncmsinit.o)
 .mdebug.abi32  0x00000000005fa6f8        0x0 /home/liyupeng/zengyao/6.13/DT-W724V-20140311/output/host/usr/mips-unknown-linux-uclibc/sysroot/lib/libfoncms.a(foncmsmsgproc.o)
 .mdebug.abi32  0x00000000005fa6f8        0x0 /home/liyupeng/zengyao/6.13/DT-W724V-20140311/output/host/usr/mips-unknown-linux-uclibc/sysroot/lib/libhybridcms.a(hybridcms.o)
 .mdebug.abi32  0x00000000005fa6f8        0x0 /home/liyupeng/zengyao/6.13/DT-W724V-20140311/output/host/usr/mips-unknown-linux-uclibc/sysroot/lib/libhybridcms.a(hybridcmsfilter.o)
 .mdebug.abi32  0x00000000005fa6f8        0x0 /home/liyupeng/zengyao/6.13/DT-W724V-20140311/output/host/usr/mips-unknown-linux-uclibc/sysroot/lib/libigmpcms.a(igmpcmsmsgproc.o)
 .mdebug.abi32  0x00000000005fa6f8        0x0 /home/liyupeng/zengyao/6.13/DT-W724V-20140311/output/host/usr/mips-unknown-linux-uclibc/sysroot/lib/libigmpcms.a(igmpcms.o)
 .mdebug.abi32  0x00000000005fa6f8        0x0 /home/liyupeng/zengyao/6.13/DT-W724V-20140311/output/host/usr/mips-unknown-linux-uclibc/sysroot/lib/libipcheckcms.a(ipcheckcms.o)
 .mdebug.abi32  0x00000000005fa6f8        0x0 /home/liyupeng/zengyao/6.13/DT-W724V-20140311/output/host/usr/mips-unknown-linux-uclibc/sysroot/lib/libipcheckcms.a(ipcheckcmsinit.o)
 .mdebug.abi32  0x00000000005fa6f8        0x0 /home/liyupeng/zengyao/6.13/DT-W724V-20140311/output/host/usr/mips-unknown-linux-uclibc/sysroot/lib/libipcheckcms.a(ipcheckcmsmsgproc.o)
 .mdebug.abi32  0x00000000005fa6f8        0x0 /home/liyupeng/zengyao/6.13/DT-W724V-20140311/output/host/usr/mips-unknown-linux-uclibc/sysroot/lib/libipintfcms.a(ipintfcmsapi.o)
 .mdebug.abi32  0x00000000005fa6f8        0x0 /home/liyupeng/zengyao/6.13/DT-W724V-20140311/output/host/usr/mips-unknown-linux-uclibc/sysroot/lib/libipintfcms.a(ipintfcmsget.o)
 .mdebug.abi32  0x00000000005fa6f8        0x0 /home/liyupeng/zengyao/6.13/DT-W724V-20140311/output/host/usr/mips-unknown-linux-uclibc/sysroot/lib/libipintfcms.a(ipintfcmsset.o)
 .mdebug.abi32  0x00000000005fa6f8        0x0 /home/liyupeng/zengyao/6.13/DT-W724V-20140311/output/host/usr/mips-unknown-linux-uclibc/sysroot/lib/libipintfcms.a(ipintfcmsint.o)
 .mdebug.abi32  0x00000000005fa6f8        0x0 /home/liyupeng/zengyao/6.13/DT-W724V-20140311/output/host/usr/mips-unknown-linux-uclibc/sysroot/lib/libiptunnelcms.a(iptunnelcmsinit.o)
 .mdebug.abi32  0x00000000005fa6f8        0x0 /home/liyupeng/zengyao/6.13/DT-W724V-20140311/output/host/usr/mips-unknown-linux-uclibc/sysroot/lib/libiptunnelcms.a(iptunnelcmsapi.o)
 .mdebug.abi32  0x00000000005fa6f8        0x0 /home/liyupeng/zengyao/6.13/DT-W724V-20140311/output/host/usr/mips-unknown-linux-uclibc/sysroot/lib/libiptunnelcms.a(iptunnelcms.o)
 .mdebug.abi32  0x00000000005fa6f8        0x0 /home/liyupeng/zengyao/6.13/DT-W724V-20140311/output/host/usr/mips-unknown-linux-uclibc/sysroot/lib/liblannamecms.a(lannamecms.o)
 .mdebug.abi32  0x00000000005fa6f8        0x0 /home/liyupeng/zengyao/6.13/DT-W724V-20140311/output/host/usr/mips-unknown-linux-uclibc/sysroot/lib/liblannamecms.a(lannamecmsmsgproc.o)
 .mdebug.abi32  0x00000000005fa6f8        0x0 /home/liyupeng/zengyao/6.13/DT-W724V-20140311/output/host/usr/mips-unknown-linux-uclibc/sysroot/lib/libltecms.a(lteprofile.o)
 .mdebug.abi32  0x00000000005fa6f8        0x0 /home/liyupeng/zengyao/6.13/DT-W724V-20140311/output/host/usr/mips-unknown-linux-uclibc/sysroot/lib/libltecms.a(ltecmssimcard.o)
 .mdebug.abi32  0x00000000005fa6f8        0x0 /home/liyupeng/zengyao/6.13/DT-W724V-20140311/output/host/usr/mips-unknown-linux-uclibc/sysroot/lib/libltecms.a(ltecmswminfo.o)
 .mdebug.abi32  0x00000000005fa6f8        0x0 /home/liyupeng/zengyao/6.13/DT-W724V-20140311/output/host/usr/mips-unknown-linux-uclibc/sysroot/lib/libltecms.a(ltesmartcardreader.o)
 .mdebug.abi32  0x00000000005fa6f8        0x0 /home/liyupeng/zengyao/6.13/DT-W724V-20140311/output/host/usr/mips-unknown-linux-uclibc/sysroot/lib/libltecms.a(ltecmsmsgproc.o)
 .mdebug.abi32  0x00000000005fa6f8        0x0 /home/liyupeng/zengyao/6.13/DT-W724V-20140311/output/host/usr/mips-unknown-linux-uclibc/sysroot/lib/libltecms.a(ltecmsapi.o)
 .mdebug.abi32  0x00000000005fa6f8        0x0 /home/liyupeng/zengyao/6.13/DT-W724V-20140311/output/host/usr/mips-unknown-linux-uclibc/sysroot/lib/libltecms.a(ltecmsmobile.o)
 .mdebug.abi32  0x00000000005fa6f8        0x0 /home/liyupeng/zengyao/6.13/DT-W724V-20140311/output/host/usr/mips-unknown-linux-uclibc/sysroot/lib/libmldcms.a(mldcms.o)
 .mdebug.abi32  0x00000000005fa6f8        0x0 /home/liyupeng/zengyao/6.13/DT-W724V-20140311/output/host/usr/mips-unknown-linux-uclibc/sysroot/lib/libmldcms.a(mldcmsmsgproc.o)
 .mdebug.abi32  0x00000000005fa6f8        0x0 /home/liyupeng/zengyao/6.13/DT-W724V-20140311/output/host/usr/mips-unknown-linux-uclibc/sysroot/lib/libnatcms.a(natcmsmsgproc.o)
 .mdebug.abi32  0x00000000005fa6f8        0x0 /home/liyupeng/zengyao/6.13/DT-W724V-20140311/output/host/usr/mips-unknown-linux-uclibc/sysroot/lib/libnatcms.a(natcmsinit.o)
 .mdebug.abi32  0x00000000005fa6f8        0x0 /home/liyupeng/zengyao/6.13/DT-W724V-20140311/output/host/usr/mips-unknown-linux-uclibc/sysroot/lib/libnatcms.a(natcms.o)
 .mdebug.abi32  0x00000000005fa6f8        0x0 /home/liyupeng/zengyao/6.13/DT-W724V-20140311/output/host/usr/mips-unknown-linux-uclibc/sysroot/lib/libnatcms.a(natutil.o)
 .mdebug.abi32  0x00000000005fa6f8        0x0 /home/liyupeng/zengyao/6.13/DT-W724V-20140311/output/host/usr/mips-unknown-linux-uclibc/sysroot/lib/libnatcms.a(natdmz.o)
 .mdebug.abi32  0x00000000005fa6f8        0x0 /home/liyupeng/zengyao/6.13/DT-W724V-20140311/output/host/usr/mips-unknown-linux-uclibc/sysroot/lib/libnatcms.a(natportmap.o)
 .mdebug.abi32  0x00000000005fa6f8        0x0 /home/liyupeng/zengyao/6.13/DT-W724V-20140311/output/host/usr/mips-unknown-linux-uclibc/sysroot/lib/libnatcms.a(prttrgapi.o)
 .mdebug.abi32  0x00000000005fa6f8        0x0 /home/liyupeng/zengyao/6.13/DT-W724V-20140311/output/host/usr/mips-unknown-linux-uclibc/sysroot/lib/libnatcms.a(prttrgutil.o)
 .mdebug.abi32  0x00000000005fa6f8        0x0 /home/liyupeng/zengyao/6.13/DT-W724V-20140311/output/host/usr/mips-unknown-linux-uclibc/sysroot/lib/libnatcms.a(natcmsctclean.o)
 .mdebug.abi32  0x00000000005fa6f8        0x0 /home/liyupeng/zengyao/6.13/DT-W724V-20140311/output/host/usr/mips-unknown-linux-uclibc/sysroot/lib/libndiscms.a(ndiscmsmsgproc.o)
 .mdebug.abi32  0x00000000005fa6f8        0x0 /home/liyupeng/zengyao/6.13/DT-W724V-20140311/output/host/usr/mips-unknown-linux-uclibc/sysroot/lib/libneighdisccms.a(neighdisccms.o)
 .mdebug.abi32  0x00000000005fa6f8        0x0 /home/liyupeng/zengyao/6.13/DT-W724V-20140311/output/host/usr/mips-unknown-linux-uclibc/sysroot/lib/libpppccms.a(pppcapi.o)
 .mdebug.abi32  0x00000000005fa6f8        0x0 /home/liyupeng/zengyao/6.13/DT-W724V-20140311/output/host/usr/mips-unknown-linux-uclibc/sysroot/lib/libpppintfcms.a(pppintfcmsinit.o)
 .mdebug.abi32  0x00000000005fa6f8        0x0 /home/liyupeng/zengyao/6.13/DT-W724V-20140311/output/host/usr/mips-unknown-linux-uclibc/sysroot/lib/libpppintfcms.a(pppintfcms.o)
 .mdebug.abi32  0x00000000005fa6f8        0x0 /home/liyupeng/zengyao/6.13/DT-W724V-20140311/output/host/usr/mips-unknown-linux-uclibc/sysroot/lib/libpppintfcms.a(pppintfcmsmsg.o)
 .mdebug.abi32  0x00000000005fa6f8        0x0 /home/liyupeng/zengyao/6.13/DT-W724V-20140311/output/host/usr/mips-unknown-linux-uclibc/sysroot/lib/libpppintfcms.a(pppintfcmsadapt.o)
 .mdebug.abi32  0x00000000005fa6f8        0x0 /home/liyupeng/zengyao/6.13/DT-W724V-20140311/output/host/usr/mips-unknown-linux-uclibc/sysroot/lib/libprivacybtncms.a(privacybtncmsmsgproc.o)
 .mdebug.abi32  0x00000000005fa6f8        0x0 /home/liyupeng/zengyao/6.13/DT-W724V-20140311/output/host/usr/mips-unknown-linux-uclibc/sysroot/lib/libprivacybtncms.a(privacybtncms.o)
 .mdebug.abi32  0x00000000005fa6f8        0x0 /home/liyupeng/zengyao/6.13/DT-W724V-20140311/output/host/usr/mips-unknown-linux-uclibc/sysroot/lib/libdtqoscms.a(qosapi.o)
 .mdebug.abi32  0x00000000005fa6f8        0x0 /home/liyupeng/zengyao/6.13/DT-W724V-20140311/output/host/usr/mips-unknown-linux-uclibc/sysroot/lib/libdtqoscms.a(qosconfig.o)
 .mdebug.abi32  0x00000000005fa6f8        0x0 /home/liyupeng/zengyao/6.13/DT-W724V-20140311/output/host/usr/mips-unknown-linux-uclibc/sysroot/lib/libradvdcms.a(radvdcms.o)
 .mdebug.abi32  0x00000000005fa6f8        0x0 /home/liyupeng/zengyao/6.13/DT-W724V-20140311/output/host/usr/mips-unknown-linux-uclibc/sysroot/lib/libradvdcms.a(radvdcmsinit.o)
 .mdebug.abi32  0x00000000005fa6f8        0x0 /home/liyupeng/zengyao/6.13/DT-W724V-20140311/output/host/usr/mips-unknown-linux-uclibc/sysroot/lib/libradvdcms.a(radvdcmsmsgproc.o)
 .mdebug.abi32  0x00000000005fa6f8        0x0 /home/liyupeng/zengyao/6.13/DT-W724V-20140311/output/host/usr/mips-unknown-linux-uclibc/sysroot/lib/libradvdcms.a(radvdcmsapi.o)
 .mdebug.abi32  0x00000000005fa6f8        0x0 /home/liyupeng/zengyao/6.13/DT-W724V-20140311/output/host/usr/mips-unknown-linux-uclibc/sysroot/lib/libradvdcms.a(radvdcmsmsgproctr181.o)
 .mdebug.abi32  0x00000000005fa6f8        0x0 /home/liyupeng/zengyao/6.13/DT-W724V-20140311/output/host/usr/mips-unknown-linux-uclibc/sysroot/lib/libroute6cms.a(route6cms.o)
 .mdebug.abi32  0x00000000005fa6f8        0x0 /home/liyupeng/zengyao/6.13/DT-W724V-20140311/output/host/usr/mips-unknown-linux-uclibc/sysroot/lib/libroute6cms.a(route6cmsinit.o)
 .mdebug.abi32  0x00000000005fa6f8        0x0 /home/liyupeng/zengyao/6.13/DT-W724V-20140311/output/host/usr/mips-unknown-linux-uclibc/sysroot/lib/libroute6cms.a(route6cmsmsgproc.o)
 .mdebug.abi32  0x00000000005fa6f8        0x0 /home/liyupeng/zengyao/6.13/DT-W724V-20140311/output/host/usr/mips-unknown-linux-uclibc/sysroot/lib/libroute6cms.a(route6cmsapi.o)
 .mdebug.abi32  0x00000000005fa6f8        0x0 /home/liyupeng/zengyao/6.13/DT-W724V-20140311/output/host/usr/mips-unknown-linux-uclibc/sysroot/lib/libroutecms.a(routecmsmsgproc.o)
 .mdebug.abi32  0x00000000005fa6f8        0x0 /home/liyupeng/zengyao/6.13/DT-W724V-20140311/output/host/usr/mips-unknown-linux-uclibc/sysroot/lib/libroutecms.a(routecmsinit.o)
 .mdebug.abi32  0x00000000005fa6f8        0x0 /home/liyupeng/zengyao/6.13/DT-W724V-20140311/output/host/usr/mips-unknown-linux-uclibc/sysroot/lib/libroutecms.a(routecms.o)
 .mdebug.abi32  0x00000000005fa6f8        0x0 /home/liyupeng/zengyao/6.13/DT-W724V-20140311/output/host/usr/mips-unknown-linux-uclibc/sysroot/lib/libroutecms.a(routedft.o)
 .mdebug.abi32  0x00000000005fa6f8        0x0 /home/liyupeng/zengyao/6.13/DT-W724V-20140311/output/host/usr/mips-unknown-linux-uclibc/sysroot/lib/libroutecms.a(routestatic.o)
 .mdebug.abi32  0x00000000005fa6f8        0x0 /home/liyupeng/zengyao/6.13/DT-W724V-20140311/output/host/usr/mips-unknown-linux-uclibc/sysroot/lib/libroutecms.a(routelist.o)
 .mdebug.abi32  0x00000000005fa6f8        0x0 /home/liyupeng/zengyao/6.13/DT-W724V-20140311/output/host/usr/mips-unknown-linux-uclibc/sysroot/lib/libsntpcms.a(sntpcms.o)
 .mdebug.abi32  0x00000000005fa6f8        0x0 /home/liyupeng/zengyao/6.13/DT-W724V-20140311/output/host/usr/mips-unknown-linux-uclibc/sysroot/lib/libsntpcms.a(sntpcmsposixtime.o)
 .mdebug.abi32  0x00000000005fa6f8        0x0 /home/liyupeng/zengyao/6.13/DT-W724V-20140311/output/host/usr/mips-unknown-linux-uclibc/sysroot/lib/libsntpcms.a(sntpcmsmsgproc.o)
 .mdebug.abi32  0x00000000005fa6f8        0x0 /home/liyupeng/zengyao/6.13/DT-W724V-20140311/output/host/usr/mips-unknown-linux-uclibc/sysroot/lib/libvlancms.a(vlancms.o)
 .mdebug.abi32  0x00000000005fa6f8        0x0 /home/liyupeng/zengyao/6.13/DT-W724V-20140311/output/host/usr/mips-unknown-linux-uclibc/sysroot/lib/libvlancms.a(vlancmsint.o)
 .mdebug.abi32  0x00000000005fa6f8        0x0 /home/liyupeng/zengyao/6.13/DT-W724V-20140311/output/host/usr/mips-unknown-linux-uclibc/sysroot/lib/libvlancms.a(vlancmsmsgproc.o)
 .mdebug.abi32  0x00000000005fa6f8        0x0 /home/liyupeng/zengyao/6.13/DT-W724V-20140311/output/host/usr/mips-unknown-linux-uclibc/sysroot/lib/libwancorecms.a(wancorecms.o)
 .mdebug.abi32  0x00000000005fa6f8        0x0 /home/liyupeng/zengyao/6.13/DT-W724V-20140311/output/host/usr/mips-unknown-linux-uclibc/sysroot/lib/libvlantermcms.a(vlantermcms.o)
 .mdebug.abi32  0x00000000005fa6f8        0x0 /home/liyupeng/zengyao/6.13/DT-W724V-20140311/output/host/usr/mips-unknown-linux-uclibc/sysroot/lib/libwlancms.a(wlancmsmsgproc.o)
 .mdebug.abi32  0x00000000005fa6f8        0x0 /home/liyupeng/zengyao/6.13/DT-W724V-20140311/output/host/usr/mips-unknown-linux-uclibc/sysroot/lib/libwlancms.a(wlancmsinit.o)
 .mdebug.abi32  0x00000000005fa6f8        0x0 /home/liyupeng/zengyao/6.13/DT-W724V-20140311/output/host/usr/mips-unknown-linux-uclibc/sysroot/lib/libwlancms.a(wlancmslal.o)
 .mdebug.abi32  0x00000000005fa6f8        0x0 /home/liyupeng/zengyao/6.13/DT-W724V-20140311/output/host/usr/mips-unknown-linux-uclibc/sysroot/lib/libwlancms.a(wlan_tr181.o)
 .mdebug.abi32  0x00000000005fa6f8        0x0 /home/liyupeng/zengyao/6.13/DT-W724V-20140311/output/host/usr/mips-unknown-linux-uclibc/sysroot/lib/libwlanbcmcms.a(wlanbcmcms.o)
 .mdebug.abi32  0x00000000005fa6f8        0x0 /home/liyupeng/zengyao/6.13/DT-W724V-20140311/output/host/usr/mips-unknown-linux-uclibc/sysroot/lib/libwlanbcmcms.a(wlanbcm963268.o)
 .mdebug.abi32  0x00000000005fa6f8        0x0 /home/liyupeng/zengyao/6.13/DT-W724V-20140311/output/host/usr/mips-unknown-linux-uclibc/sysroot/lib/libwlanbcmcms.a(wlanmonitor.o)
 .mdebug.abi32  0x00000000005fa6f8        0x0 /home/liyupeng/zengyao/6.13/DT-W724V-20140311/output/host/usr/mips-unknown-linux-uclibc/sysroot/lib/libatmlinkcms.a(atmlinkcmsapi.o)
 .mdebug.abi32  0x00000000005fa6f8        0x0 /home/liyupeng/zengyao/6.13/DT-W724V-20140311/output/host/usr/mips-unknown-linux-uclibc/sysroot/lib/libatmlinkcms.a(atmlinkdiag.o)
 .mdebug.abi32  0x00000000005fa6f8        0x0 /home/liyupeng/zengyao/6.13/DT-W724V-20140311/output/host/usr/mips-unknown-linux-uclibc/sysroot/lib/libdslchannelcms.a(dslchannelcmsapi.o)
 .mdebug.abi32  0x00000000005fa6f8        0x0 /home/liyupeng/zengyao/6.13/DT-W724V-20140311/output/host/usr/mips-unknown-linux-uclibc/sysroot/lib/libdslchannelcms.a(dslchanneldiag.o)
 .mdebug.abi32  0x00000000005fa6f8        0x0 /home/liyupeng/zengyao/6.13/DT-W724V-20140311/output/host/usr/mips-unknown-linux-uclibc/sysroot/lib/libdsllinecms.a(dsllinecmsapi.o)
 .mdebug.abi32  0x00000000005fa6f8        0x0 /home/liyupeng/zengyao/6.13/DT-W724V-20140311/output/host/usr/mips-unknown-linux-uclibc/sysroot/lib/libptmlinkcms.a(ptmlinkcmsapi.o)
 .mdebug.abi32  0x00000000005fa6f8        0x0 /home/liyupeng/zengyao/6.13/DT-W724V-20140311/output/host/usr/mips-unknown-linux-uclibc/sysroot/lib/libdtvoicecms.a(voiceapi.o)
 .mdebug.abi32  0x00000000005fa6f8        0x0 /home/liyupeng/zengyao/6.13/DT-W724V-20140311/output/host/usr/mips-unknown-linux-uclibc/sysroot/lib/libdtvoicecms.a(voicecms.o)
 .mdebug.abi32  0x00000000005fa6f8        0x0 /home/liyupeng/zengyao/6.13/DT-W724V-20140311/output/host/usr/mips-unknown-linux-uclibc/sysroot/lib/libdtvoicecms.a(voiceutil.o)
 .mdebug.abi32  0x00000000005fa6f8        0x0 /home/liyupeng/zengyao/6.13/DT-W724V-20140311/output/host/usr/mips-unknown-linux-uclibc/sysroot/lib/libdtvoicecms.a(voicecfg.o)
 .mdebug.abi32  0x00000000005fa6f8        0x0 /home/liyupeng/zengyao/6.13/DT-W724V-20140311/output/host/usr/mips-unknown-linux-uclibc/sysroot/lib/libdtvoicecms.a(IniParser.o)
 .mdebug.abi32  0x00000000005fa6f8        0x0 /home/liyupeng/zengyao/6.13/DT-W724V-20140311/output/host/usr/mips-unknown-linux-uclibc/sysroot/lib/libdtvoicecms.a(voicediag.o)
 .mdebug.abi32  0x00000000005fa6f8        0x0 /home/liyupeng/zengyao/6.13/DT-W724V-20140311/output/host/usr/mips-unknown-linux-uclibc/sysroot/lib/libdtvoicecms.a(voicecmsmsgproc.o)
 .mdebug.abi32  0x00000000005fa6f8        0x0 /home/liyupeng/zengyao/6.13/DT-W724V-20140311/output/host/usr/mips-unknown-linux-uclibc/sysroot/lib/libnetpbcms.a(netphonebookapi.o)
 .mdebug.abi32  0x00000000005fa6f8        0x0 /home/liyupeng/zengyao/6.13/DT-W724V-20140311/output/host/usr/mips-unknown-linux-uclibc/sysroot/lib/librsscms.a(rssapi.o)
 .mdebug.abi32  0x00000000005fa6f8        0x0 /home/liyupeng/zengyao/6.13/DT-W724V-20140311/output/host/usr/mips-unknown-linux-uclibc/sysroot/lib/librsscms.a(voicersscmsmsgproc.o)
 .mdebug.abi32  0x00000000005fa6f8        0x0 /home/liyupeng/zengyao/6.13/DT-W724V-20140311/output/host/usr/mips-unknown-linux-uclibc/sysroot/lib/libemailcms.a(emailapi.o)
 .mdebug.abi32  0x00000000005fa6f8        0x0 /home/liyupeng/zengyao/6.13/DT-W724V-20140311/output/host/usr/mips-unknown-linux-uclibc/sysroot/lib/libemailcms.a(emailcms.o)
 .mdebug.abi32  0x00000000005fa6f8        0x0 /home/liyupeng/zengyao/6.13/DT-W724V-20140311/output/host/usr/mips-unknown-linux-uclibc/sysroot/lib/libemailcms.a(voiceemailcmsmsgproc.o)
 .mdebug.abi32  0x00000000005fa6f8        0x0 /opt/toolchains/crosstools-mips-gcc-4.6-linux-3.4-uclibc-0.9.32-binutils-2.21/usr/lib/gcc/mips-unknown-linux-uclibc/4.6.2/libgcc.a(_fixunsdfsi.o)
 .mdebug.abi32  0x00000000005fa6f8        0x0 /opt/toolchains/crosstools-mips-gcc-4.6-linux-3.4-uclibc-0.9.32-binutils-2.21/usr/lib/gcc/mips-unknown-linux-uclibc/4.6.2/libgcc.a(_udivdi3.o)
 .mdebug.abi32  0x00000000005fa6f8        0x0 /opt/toolchains/crosstools-mips-gcc-4.6-linux-3.4-uclibc-0.9.32-binutils-2.21/usr/lib/gcc/mips-unknown-linux-uclibc/4.6.2/libgcc.a(_umoddi3.o)
 .mdebug.abi32  0x00000000005fa6f8        0x0 /opt/toolchains/crosstools-mips-gcc-4.6-linux-3.4-uclibc-0.9.32-binutils-2.21/usr/lib/gcc/mips-unknown-linux-uclibc/4.6.2/libgcc.a(_sf_to_df.o)
 .mdebug.abi32  0x00000000005fa6f8        0x0 /opt/toolchains/crosstools-mips-gcc-4.6-linux-3.4-uclibc-0.9.32-binutils-2.21/usr/lib/gcc/mips-unknown-linux-uclibc/4.6.2/libgcc.a(_usi_to_sf.o)
 .mdebug.abi32  0x00000000005fa6f8        0x0 /opt/toolchains/crosstools-mips-gcc-4.6-linux-3.4-uclibc-0.9.32-binutils-2.21/usr/lib/gcc/mips-unknown-linux-uclibc/4.6.2/libgcc.a(_addsub_df.o)
 .mdebug.abi32  0x00000000005fa6f8        0x0 /opt/toolchains/crosstools-mips-gcc-4.6-linux-3.4-uclibc-0.9.32-binutils-2.21/usr/lib/gcc/mips-unknown-linux-uclibc/4.6.2/libgcc.a(_mul_df.o)
 .mdebug.abi32  0x00000000005fa6f8        0x0 /opt/toolchains/crosstools-mips-gcc-4.6-linux-3.4-uclibc-0.9.32-binutils-2.21/usr/lib/gcc/mips-unknown-linux-uclibc/4.6.2/libgcc.a(_ge_df.o)
 .mdebug.abi32  0x00000000005fa6f8        0x0 /opt/toolchains/crosstools-mips-gcc-4.6-linux-3.4-uclibc-0.9.32-binutils-2.21/usr/lib/gcc/mips-unknown-linux-uclibc/4.6.2/libgcc.a(_df_to_si.o)
 .mdebug.abi32  0x00000000005fa6f8        0x0 /opt/toolchains/crosstools-mips-gcc-4.6-linux-3.4-uclibc-0.9.32-binutils-2.21/usr/lib/gcc/mips-unknown-linux-uclibc/4.6.2/libgcc.a(_make_df.o)
 .mdebug.abi32  0x00000000005fa6f8        0x0 /opt/toolchains/crosstools-mips-gcc-4.6-linux-3.4-uclibc-0.9.32-binutils-2.21/usr/lib/gcc/mips-unknown-linux-uclibc/4.6.2/libgcc.a(_df_to_sf.o)
 .mdebug.abi32  0x00000000005fa6f8        0x0 /opt/toolchains/crosstools-mips-gcc-4.6-linux-3.4-uclibc-0.9.32-binutils-2.21/usr/lib/gcc/mips-unknown-linux-uclibc/4.6.2/libgcc.a(_thenan_df.o)
 .mdebug.abi32  0x00000000005fa6f8        0x0 /opt/toolchains/crosstools-mips-gcc-4.6-linux-3.4-uclibc-0.9.32-binutils-2.21/usr/lib/gcc/mips-unknown-linux-uclibc/4.6.2/libgcc.a(_lshrdi3.o)
 .mdebug.abi32  0x00000000005fa6f8        0x0 /opt/toolchains/crosstools-mips-gcc-4.6-linux-3.4-uclibc-0.9.32-binutils-2.21/usr/lib/gcc/mips-unknown-linux-uclibc/4.6.2/libgcc.a(_ashldi3.o)
 .mdebug.abi32  0x00000000005fa6f8        0x0 /opt/toolchains/crosstools-mips-gcc-4.6-linux-3.4-uclibc-0.9.32-binutils-2.21/usr/lib/gcc/mips-unknown-linux-uclibc/4.6.2/libgcc.a(_pack_sf.o)
 .mdebug.abi32  0x00000000005fa6f8        0x0 /opt/toolchains/crosstools-mips-gcc-4.6-linux-3.4-uclibc-0.9.32-binutils-2.21/usr/lib/gcc/mips-unknown-linux-uclibc/4.6.2/libgcc.a(_unpack_sf.o)
 .mdebug.abi32  0x00000000005fa6f8        0x0 /opt/toolchains/crosstools-mips-gcc-4.6-linux-3.4-uclibc-0.9.32-binutils-2.21/usr/lib/gcc/mips-unknown-linux-uclibc/4.6.2/libgcc.a(_make_sf.o)
 .mdebug.abi32  0x00000000005fa6f8        0x0 /opt/toolchains/crosstools-mips-gcc-4.6-linux-3.4-uclibc-0.9.32-binutils-2.21/usr/lib/gcc/mips-unknown-linux-uclibc/4.6.2/libgcc.a(_pack_df.o)
 .mdebug.abi32  0x00000000005fa6f8        0x0 /opt/toolchains/crosstools-mips-gcc-4.6-linux-3.4-uclibc-0.9.32-binutils-2.21/usr/lib/gcc/mips-unknown-linux-uclibc/4.6.2/libgcc.a(_unpack_df.o)
 .mdebug.abi32  0x00000000005fa6f8        0x0 /opt/toolchains/crosstools-mips-gcc-4.6-linux-3.4-uclibc-0.9.32-binutils-2.21/usr/lib/gcc/mips-unknown-linux-uclibc/4.6.2/libgcc.a(_fpcmp_parts_df.o)
 .mdebug.abi32  0x00000000005fa6f8        0x0 /opt/toolchains/crosstools-mips-gcc-4.6-linux-3.4-uclibc-0.9.32-binutils-2.21/usr/lib/gcc/mips-unknown-linux-uclibc/4.6.2/crtend.o
 .mdebug.abi32  0x00000000005fa6f8        0x0 /home/liyupeng/zengyao/6.13/DT-W724V-20140311/output/host/usr/mips-unknown-linux-uclibc/sysroot/usr/lib/crtn.o

.mdebug.abiN32
 *(.mdebug.abiN32)

.mdebug.abi64
 *(.mdebug.abi64)

.mdebug.abiO64
 *(.mdebug.abiO64)

.mdebug.eabi32
 *(.mdebug.eabi32)

.mdebug.eabi64
 *(.mdebug.eabi64)

.gcc_compiled_long32
 *(.gcc_compiled_long32)

.gcc_compiled_long64
 *(.gcc_compiled_long64)

/DISCARD/
 *(.note.GNU-stack)
 *(.gnu_debuglink)
 *(.gnu.lto_*)
OUTPUT(/home/liyupeng/zengyao/6.13/DT-W724V-20140311/output/package/atp/configuration/cmsmain/cms elf32-tradbigmips)
