
Discarded input sections

 .reginfo       0x0000000000000000       0x18 /opt/toolchains/crosstools-mips-gcc-4.6-linux-3.4-uclibc-0.9.32-binutils-2.21/usr/lib/gcc/mips-unknown-linux-uclibc/4.6.2/crtbeginS.o
 .reginfo       0x0000000000000000       0x18 /usr1/xuhui/DT-W724V-20140311/output/package/atp/libraries/opensrc/gplutil/gplutil.o
 .reginfo       0x0000000000000000       0x18 /usr1/xuhui/DT-W724V-20140311/output/package/atp/libraries/opensrc/gplutil/gplmsg.o
 .reginfo       0x0000000000000000       0x18 /usr1/xuhui/DT-W724V-20140311/output/package/atp/libraries/opensrc/gplutil/bget.o
 .reginfo       0x0000000000000000       0x18 /usr1/xuhui/DT-W724V-20140311/output/package/atp/libraries/opensrc/gplutil/gplshmem.o
 .reginfo       0x0000000000000000       0x18 /usr1/xuhui/DT-W724V-20140311/output/package/atp/libraries/opensrc/gplutil/procutil.o
 .reginfo       0x0000000000000000       0x18 /usr1/xuhui/DT-W724V-20140311/output/package/atp/libraries/opensrc/gplutil/loginctl.o
 .reginfo       0x0000000000000000       0x18 /usr1/xuhui/DT-W724V-20140311/output/package/atp/libraries/opensrc/gplutil/atpmiclisten.o
 .reginfo       0x0000000000000000       0x18 /usr1/xuhui/DT-W724V-20140311/output/package/atp/libraries/opensrc/gplutil/ifaddrs.o
 .reginfo       0x0000000000000000       0x18 /opt/toolchains/crosstools-mips-gcc-4.6-linux-3.4-uclibc-0.9.32-binutils-2.21/usr/lib/gcc/mips-unknown-linux-uclibc/4.6.2/crtendS.o
 .reginfo       0x0000000000000000       0x18 /usr1/xuhui/DT-W724V-20140311/output/host/usr/mips-unknown-linux-uclibc/sysroot/usr/lib/crtn.o

Memory Configuration

Name             Origin             Length             Attributes
*default*        0x0000000000000000 0xffffffffffffffff

Linker script and memory map

LOAD /usr1/xuhui/DT-W724V-20140311/output/host/usr/mips-unknown-linux-uclibc/sysroot/usr/lib/crti.o
LOAD /opt/toolchains/crosstools-mips-gcc-4.6-linux-3.4-uclibc-0.9.32-binutils-2.21/usr/lib/gcc/mips-unknown-linux-uclibc/4.6.2/crtbeginS.o
LOAD /usr1/xuhui/DT-W724V-20140311/output/package/atp/libraries/opensrc/gplutil/gplutil.o
LOAD /usr1/xuhui/DT-W724V-20140311/output/package/atp/libraries/opensrc/gplutil/gplmsg.o
LOAD /usr1/xuhui/DT-W724V-20140311/output/package/atp/libraries/opensrc/gplutil/bget.o
LOAD /usr1/xuhui/DT-W724V-20140311/output/package/atp/libraries/opensrc/gplutil/gplshmem.o
LOAD /usr1/xuhui/DT-W724V-20140311/output/package/atp/libraries/opensrc/gplutil/procutil.o
LOAD /usr1/xuhui/DT-W724V-20140311/output/package/atp/libraries/opensrc/gplutil/loginctl.o
LOAD /usr1/xuhui/DT-W724V-20140311/output/package/atp/libraries/opensrc/gplutil/atpmiclisten.o
LOAD /usr1/xuhui/DT-W724V-20140311/output/package/atp/libraries/opensrc/gplutil/ifaddrs.o
LOAD /opt/toolchains/crosstools-mips-gcc-4.6-linux-3.4-uclibc-0.9.32-binutils-2.21/usr/lib/gcc/mips-unknown-linux-uclibc/4.6.2/libgcc.a
LOAD /usr1/xuhui/DT-W724V-20140311/output/host/usr/mips-unknown-linux-uclibc/sysroot/lib/libgcc_s.so
LOAD /usr1/xuhui/DT-W724V-20140311/output/host/usr/mips-unknown-linux-uclibc/sysroot/usr/lib/libc.so
START GROUP
LOAD /usr1/xuhui/DT-W724V-20140311/output/host/usr/mips-unknown-linux-uclibc/sysroot/lib/libc.so.0
LOAD /usr1/xuhui/DT-W724V-20140311/output/host/usr/mips-unknown-linux-uclibc/sysroot/usr/lib/uclibc_nonshared.a
LOAD /usr1/xuhui/DT-W724V-20140311/output/host/usr/mips-unknown-linux-uclibc/sysroot/lib/ld-uClibc.so.0
END GROUP
LOAD /opt/toolchains/crosstools-mips-gcc-4.6-linux-3.4-uclibc-0.9.32-binutils-2.21/usr/lib/gcc/mips-unknown-linux-uclibc/4.6.2/libgcc.a
LOAD /usr1/xuhui/DT-W724V-20140311/output/host/usr/mips-unknown-linux-uclibc/sysroot/lib/libgcc_s.so
LOAD /opt/toolchains/crosstools-mips-gcc-4.6-linux-3.4-uclibc-0.9.32-binutils-2.21/usr/lib/gcc/mips-unknown-linux-uclibc/4.6.2/crtendS.o
LOAD /usr1/xuhui/DT-W724V-20140311/output/host/usr/mips-unknown-linux-uclibc/sysroot/usr/lib/crtn.o
                0x00000000000000d4                . = (0x0 + SIZEOF_HEADERS)

.reginfo        0x00000000000000d4       0x18
 *(.reginfo)
 .reginfo       0x00000000000000d4       0x18 /usr1/xuhui/DT-W724V-20140311/output/host/usr/mips-unknown-linux-uclibc/sysroot/usr/lib/crti.o

.note.gnu.build-id
 *(.note.gnu.build-id)

.dynamic        0x00000000000000ec       0xe8
 *(.dynamic)
 .dynamic       0x00000000000000ec       0xe8 /usr1/xuhui/DT-W724V-20140311/output/host/usr/mips-unknown-linux-uclibc/sysroot/usr/lib/crti.o
                0x00000000000000ec                _DYNAMIC

.hash           0x00000000000001d4      0x4f0
 *(.hash)
 .hash          0x00000000000001d4      0x4f0 /usr1/xuhui/DT-W724V-20140311/output/host/usr/mips-unknown-linux-uclibc/sysroot/usr/lib/crti.o

.gnu.hash
 *(.gnu.hash)

.dynsym         0x00000000000006c4      0xb70
 *(.dynsym)
 .dynsym        0x00000000000006c4      0xb70 /usr1/xuhui/DT-W724V-20140311/output/host/usr/mips-unknown-linux-uclibc/sysroot/usr/lib/crti.o

.dynstr         0x0000000000001234      0x9a1
 *(.dynstr)
 .dynstr        0x0000000000001234      0x9a1 /usr1/xuhui/DT-W724V-20140311/output/host/usr/mips-unknown-linux-uclibc/sysroot/usr/lib/crti.o

.gnu.version    0x0000000000001bd6      0x16e
 *(.gnu.version)
 .gnu.version   0x0000000000001bd6      0x16e /usr1/xuhui/DT-W724V-20140311/output/host/usr/mips-unknown-linux-uclibc/sysroot/usr/lib/crti.o

.gnu.version_d  0x0000000000001d44        0x0
 *(.gnu.version_d)
 .gnu.version_d
                0x0000000000000000        0x0 /usr1/xuhui/DT-W724V-20140311/output/host/usr/mips-unknown-linux-uclibc/sysroot/usr/lib/crti.o

.gnu.version_r  0x0000000000001d44       0x20
 *(.gnu.version_r)
 .gnu.version_r
                0x0000000000001d44       0x20 /usr1/xuhui/DT-W724V-20140311/output/host/usr/mips-unknown-linux-uclibc/sysroot/usr/lib/crti.o

.rel.dyn        0x0000000000001d64       0x30
 *(.rel.init)
 *(.rel.text .rel.text.* .rel.gnu.linkonce.t.*)
 *(.rel.fini)
 *(.rel.rodata .rel.rodata.* .rel.gnu.linkonce.r.*)
 *(.rel.data.rel.ro* .rel.gnu.linkonce.d.rel.ro.*)
 *(.rel.data .rel.data.* .rel.gnu.linkonce.d.*)
 *(.rel.tdata .rel.tdata.* .rel.gnu.linkonce.td.*)
 *(.rel.tbss .rel.tbss.* .rel.gnu.linkonce.tb.*)
 *(.rel.ctors)
 *(.rel.dtors)
 *(.rel.got)
 *(.rel.dyn)
 .rel.dyn       0x0000000000001d64       0x30 /usr1/xuhui/DT-W724V-20140311/output/host/usr/mips-unknown-linux-uclibc/sysroot/usr/lib/crti.o
 *(.rel.sdata .rel.sdata.* .rel.gnu.linkonce.s.*)
 *(.rel.sbss .rel.sbss.* .rel.gnu.linkonce.sb.*)
 *(.rel.sdata2 .rel.sdata2.* .rel.gnu.linkonce.s2.*)
 *(.rel.sbss2 .rel.sbss2.* .rel.gnu.linkonce.sb2.*)
 *(.rel.bss .rel.bss.* .rel.gnu.linkonce.b.*)
 *(.rel.iplt)

.rela.dyn
 *(.rela.init)
 *(.rela.text .rela.text.* .rela.gnu.linkonce.t.*)
 *(.rela.fini)
 *(.rela.rodata .rela.rodata.* .rela.gnu.linkonce.r.*)
 *(.rela.data .rela.data.* .rela.gnu.linkonce.d.*)
 *(.rela.tdata .rela.tdata.* .rela.gnu.linkonce.td.*)
 *(.rela.tbss .rela.tbss.* .rela.gnu.linkonce.tb.*)
 *(.rela.ctors)
 *(.rela.dtors)
 *(.rela.got)
 *(.rela.sdata .rela.sdata.* .rela.gnu.linkonce.s.*)
 *(.rela.sbss .rela.sbss.* .rela.gnu.linkonce.sb.*)
 *(.rela.sdata2 .rela.sdata2.* .rela.gnu.linkonce.s2.*)
 *(.rela.sbss2 .rela.sbss2.* .rela.gnu.linkonce.sb2.*)
 *(.rela.bss .rela.bss.* .rela.gnu.linkonce.b.*)
 *(.rela.iplt)

.rel.plt        0x0000000000001d94        0x0
 *(.rel.plt)
 .rel.plt       0x0000000000000000        0x0 /usr1/xuhui/DT-W724V-20140311/output/host/usr/mips-unknown-linux-uclibc/sysroot/usr/lib/crti.o

.rela.plt
 *(.rela.plt)

.init           0x0000000000001d94       0x78
 *(.init)
 .init          0x0000000000001d94       0x1c /usr1/xuhui/DT-W724V-20140311/output/host/usr/mips-unknown-linux-uclibc/sysroot/usr/lib/crti.o
                0x0000000000001d94                _init
 .init          0x0000000000001db0       0x28 /opt/toolchains/crosstools-mips-gcc-4.6-linux-3.4-uclibc-0.9.32-binutils-2.21/usr/lib/gcc/mips-unknown-linux-uclibc/4.6.2/crtbeginS.o
 .init          0x0000000000001dd8       0x28 /opt/toolchains/crosstools-mips-gcc-4.6-linux-3.4-uclibc-0.9.32-binutils-2.21/usr/lib/gcc/mips-unknown-linux-uclibc/4.6.2/crtendS.o
 .init          0x0000000000001e00        0xc /usr1/xuhui/DT-W724V-20140311/output/host/usr/mips-unknown-linux-uclibc/sysroot/usr/lib/crtn.o

.plt            0x0000000000001e0c        0x0
 *(.plt)
 .plt           0x0000000000000000        0x0 /usr1/xuhui/DT-W724V-20140311/output/host/usr/mips-unknown-linux-uclibc/sysroot/usr/lib/crti.o

.iplt
 *(.iplt)

.text           0x0000000000001e10     0x9930
                0x0000000000001e10                _ftext = .
 *(.text.unlikely .text.*_unlikely)
 .text.unlikely
                0x0000000000001e10      0x264 /usr1/xuhui/DT-W724V-20140311/output/package/atp/libraries/opensrc/gplutil/gplutil.o
 *(.text.exit .text.exit.*)
 *(.text.startup .text.startup.*)
 *(.text.hot .text.hot.*)
 *(.text .stub .text.* .gnu.linkonce.t.*)
 *fill*         0x0000000000002074        0xc 00000000
 .text          0x0000000000002080        0x0 /usr1/xuhui/DT-W724V-20140311/output/host/usr/mips-unknown-linux-uclibc/sysroot/usr/lib/crti.o
 .text          0x0000000000002080      0x150 /opt/toolchains/crosstools-mips-gcc-4.6-linux-3.4-uclibc-0.9.32-binutils-2.21/usr/lib/gcc/mips-unknown-linux-uclibc/4.6.2/crtbeginS.o
 .text          0x00000000000021d0     0x3980 /usr1/xuhui/DT-W724V-20140311/output/package/atp/libraries/opensrc/gplutil/gplutil.o
                0x0000000000003a00                ATP_UTIL_GetSysTime
                0x0000000000003aa4                ATP_UTIL_VoiceGetVoipStatus
                0x0000000000003b48                ATP_UTIL_VoiceGetSipInterval
                0x0000000000003be4                ATP_UTIL_VoiceHasUrgCall
                0x0000000000003c88                atp_gethostbyname
                0x0000000000003d14                handy_gethostbyname2_r
                0x0000000000004188                ATP_UTIL_Gethostbyname
                0x000000000000420c                ATP_UTIL_Lookup_A_and_AAAA
                0x000000000000467c                ATP_FON_Gethostbyname
                0x000000000000481c                ATP_UTIL_MakeAddrInfo
                0x00000000000048f4                ATP_UTIL_getaddrinfo
                0x0000000000004a64                ATP_UTIL_IsBondingEnable
                0x0000000000004b20                ATP_UTIL_IsLTEWanV6Up
                0x0000000000004bd4                ATP_UTIL_IsExistDefaultRoute
                0x0000000000004d98                ATP_UTIL_IsLTEWanV4Up
                0x0000000000004e4c                ATP_UTIL_IsWanV6Up
                0x0000000000004f08                ATP_UTIL_IsWanV4Up
                0x0000000000004fc4                ATP_UTIL_IsLTETunnel4Up
                0x0000000000005078                ATP_UTIL_IsLTETunnel6Up
                0x000000000000512c                GPL_UTIL_GetPid
                0x0000000000005490                ATP_UTIL_SetFilterlistControlMark
                0x00000000000054d8                ATP_UTIL_GetOutputIntf
 .text          0x0000000000005b50     0x18e0 /usr1/xuhui/DT-W724V-20140311/output/package/atp/libraries/opensrc/gplutil/gplmsg.o
                0x0000000000005c60                ATP_MSG_Destroy
                0x0000000000005cc8                ATP_MSG_TraceProc
                0x0000000000005da8                ATP_MSG_SendEx
                0x0000000000005fb8                ATP_MSG_Send
                0x0000000000006054                ATP_MSG_QueueAppend
                0x00000000000060d8                ATP_MSG_QueueClear
                0x0000000000006160                ATP_MSG_Recv
                0x00000000000063e4                ATP_MSG_SendAndRecv
                0x00000000000064ec                ATP_MSG_Init
                0x0000000000006720                ATP_MSG_GetNumOfProcesses
                0x00000000000067e0                ATP_MSG_GetMsgBlock
                0x0000000000006850                ATP_MSG_GetMsgBlockEx
                0x00000000000068b4                ATP_MSG_SetMsgProfile
                0x000000000000692c                ATP_MSG_GetMsgHead
                0x0000000000006934                ATP_MSG_GetMsgByHead
                0x0000000000006954                ATP_MSG_Printf
                0x00000000000069bc                ATP_MSG_SendFd
                0x0000000000006ae4                ATP_MSG_RecvFd
                0x0000000000006c70                ATP_MSG_SimpleBuilder
                0x0000000000006d14                ATP_MSG_SendSimpleMsg
                0x0000000000006d68                ATP_MSG_SendMsgData
                0x0000000000006e90                logLogTypeCheck
                0x0000000000006ed0                logLogLevelCheck
                0x0000000000006f10                ATP_LOG_Printf
                0x0000000000007084                ATP_LOG_RecordItem
                0x0000000000007220                ATP_LOG_KLogPrintf
                0x00000000000073e4                BSP_SYS_WakeupMonitorTask
 .text          0x0000000000007430      0x820 /usr1/xuhui/DT-W724V-20140311/output/package/atp/libraries/opensrc/gplutil/bget.o
                0x0000000000007430                bget
                0x0000000000007648                bgetz
                0x00000000000076f0                brel
                0x0000000000007970                bgetr
                0x0000000000007a5c                bpool
                0x0000000000007b80                bstats
 .text          0x0000000000007c50      0x940 /usr1/xuhui/DT-W724V-20140311/output/package/atp/libraries/opensrc/gplutil/gplshmem.o
                0x0000000000007e6c                ATP_UTIL_BgetFree
                0x0000000000007e94                ATP_UTIL_BgetMalloc
                0x0000000000007eb8                ATP_UTIL_BgetStrdup
                0x0000000000007f54                ATP_UTIL_GVarGetMemHandle
                0x0000000000007fc0                ATP_UTIL_GVarAttach
                0x00000000000080c0                ATP_UTIL_GVarGetValueEx
                0x00000000000081f8                ATP_UTIL_GVarGetValueWithCopy
                0x0000000000008354                ATP_UTIL_GVarSetValue
 .text          0x0000000000008590     0x1770 /usr1/xuhui/DT-W724V-20140311/output/package/atp/libraries/opensrc/gplutil/procutil.o
                0x00000000000085f4                ATP_UTIL_FreeArgs
                0x000000000000866c                ATP_UTIL_ParseArgs
                0x00000000000092b8                ATP_UTIL_WaitForPid
                0x0000000000009418                ATP_UTIL_GetExeFullPath
                0x000000000000952c                ATP_UTIL_ForkProcessFull
                0x0000000000009bc0                ATP_UTIL_ForkProcessEx
                0x0000000000009c18                ATP_UTIL_ForkProcess
 .text          0x0000000000009d00      0x610 /usr1/xuhui/DT-W724V-20140311/output/package/atp/libraries/opensrc/gplutil/loginctl.o
                0x0000000000009d00                ATP_LoginCtlInit
                0x0000000000009d44                ATP_LoginCtlCheck
                0x0000000000009e60                ATP_LoginCtlLogout
                0x0000000000009f68                ATP_LoginCtlAllowWanAcc
                0x000000000000a060                ATP_LoginCtlCheckFtpAcc
                0x000000000000a15c                ATP_UTIL_IsPathVfat
 .text          0x000000000000a310      0x200 /usr1/xuhui/DT-W724V-20140311/output/package/atp/libraries/opensrc/gplutil/atpmiclisten.o
                0x000000000000a310                ATP_UTIL_MIC_ResetBackupAppFds
                0x000000000000a340                ATP_UTIL_MIC_AddBackupAppFds
                0x000000000000a38c                ATP_UTIL_MIC_CloseBackupAppFdsReadableConnection
 .text          0x000000000000a510     0x11d0 /usr1/xuhui/DT-W724V-20140311/output/package/atp/libraries/opensrc/gplutil/ifaddrs.o
                0x000000000000abb4                getifaddrs
                0x000000000000b6c8                freeifaddrs
 .text          0x000000000000b6e0       0x60 /opt/toolchains/crosstools-mips-gcc-4.6-linux-3.4-uclibc-0.9.32-binutils-2.21/usr/lib/gcc/mips-unknown-linux-uclibc/4.6.2/crtendS.o
 .text          0x000000000000b740        0x0 /usr1/xuhui/DT-W724V-20140311/output/host/usr/mips-unknown-linux-uclibc/sysroot/usr/lib/crtn.o
 *(.gnu.warning)
 *(.mips16.fn.*)
 *(.mips16.call.*)

.MIPS.stubs     0x000000000000b740      0x540
 .MIPS.stubs    0x000000000000b740      0x540 /usr1/xuhui/DT-W724V-20140311/output/host/usr/mips-unknown-linux-uclibc/sysroot/usr/lib/crti.o
                0x000000000000b740                bind
                0x000000000000b750                calloc
                0x000000000000b760                __errno_location
                0x000000000000b770                inet_aton
                0x000000000000b780                open
                0x000000000000b790                __ctype_b_loc
                0x000000000000b7a0                system
                0x000000000000b7b0                usleep
                0x000000000000b7c0                memcpy
                0x000000000000b7d0                connect
                0x000000000000b7e0                realloc
                0x000000000000b7f0                syscall
                0x000000000000b800                send
                0x000000000000b810                vfprintf
                0x000000000000b820                endmntent
                0x000000000000b830                remove
                0x000000000000b840                strcasecmp
                0x000000000000b850                freeaddrinfo
                0x000000000000b860                atol
                0x000000000000b870                malloc
                0x000000000000b880                inet_pton
                0x000000000000b890                getmntent_r
                0x000000000000b8a0                ioctl
                0x000000000000b8b0                recv
                0x000000000000b8c0                strlen
                0x000000000000b8d0                opendir
                0x000000000000b8e0                setmntent
                0x000000000000b8f0                if_indextoname
                0x000000000000b900                sendto
                0x000000000000b910                strtol
                0x000000000000b920                fcntl
                0x000000000000b930                sendmsg
                0x000000000000b940                snprintf
                0x000000000000b950                dup2
                0x000000000000b960                read
                0x000000000000b970                execv
                0x000000000000b980                select
                0x000000000000b990                fdopen
                0x000000000000b9a0                __assert
                0x000000000000b9b0                stat64
                0x000000000000b9c0                getpid
                0x000000000000b9d0                memmove
                0x000000000000b9e0                fclose
                0x000000000000b9f0                setsockopt
                0x000000000000ba00                fread
                0x000000000000ba10                fopen
                0x000000000000ba20                time
                0x000000000000ba30                write
                0x000000000000ba40                closedir
                0x000000000000ba50                close
                0x000000000000ba60                setsid
                0x000000000000ba70                fgets
                0x000000000000ba80                sigaction
                0x000000000000ba90                strncpy
                0x000000000000baa0                shmat
                0x000000000000bab0                fflush
                0x000000000000bac0                memset
                0x000000000000bad0                inet_ntoa
                0x000000000000bae0                perror
                0x000000000000baf0                recvmsg
                0x000000000000bb00                inet_addr
                0x000000000000bb10                shmctl
                0x000000000000bb20                memcmp
                0x000000000000bb30                vsnprintf
                0x000000000000bb40                socket
                0x000000000000bb50                exit
                0x000000000000bb60                fork
                0x000000000000bb70                semop
                0x000000000000bb80                strstr
                0x000000000000bb90                strcmp
                0x000000000000bba0                waitpid
                0x000000000000bbb0                accept
                0x000000000000bbc0                free
                0x000000000000bbd0                atoi
                0x000000000000bbe0                readdir
                0x000000000000bbf0                strchr
                0x000000000000bc00                strerror
                0x000000000000bc10                ftok
                0x000000000000bc20                printf
                0x000000000000bc30                strdup
                0x000000000000bc40                puts
                0x000000000000bc50                signal
                0x000000000000bc60                inet_ntop

.fini           0x000000000000bc80       0x50
 *(.fini)
 .fini          0x000000000000bc80       0x1c /usr1/xuhui/DT-W724V-20140311/output/host/usr/mips-unknown-linux-uclibc/sysroot/usr/lib/crti.o
                0x000000000000bc80                _fini
 .fini          0x000000000000bc9c       0x28 /opt/toolchains/crosstools-mips-gcc-4.6-linux-3.4-uclibc-0.9.32-binutils-2.21/usr/lib/gcc/mips-unknown-linux-uclibc/4.6.2/crtbeginS.o
 .fini          0x000000000000bcc4        0xc /usr1/xuhui/DT-W724V-20140311/output/host/usr/mips-unknown-linux-uclibc/sysroot/usr/lib/crtn.o
                0x000000000000bcd0                PROVIDE (__etext, .)
                0x000000000000bcd0                PROVIDE (_etext, .)
                0x000000000000bcd0                PROVIDE (etext, .)

.rodata         0x000000000000bcd0      0x89c
 *(.rodata .rodata.* .gnu.linkonce.r.*)
 .rodata.str1.4
                0x000000000000bcd0      0x457 /usr1/xuhui/DT-W724V-20140311/output/package/atp/libraries/opensrc/gplutil/gplutil.o
                                        0x464 (size before relaxing)
 *fill*         0x000000000000c127        0x9 00
 .rodata        0x000000000000c130       0x40 /usr1/xuhui/DT-W724V-20140311/output/package/atp/libraries/opensrc/gplutil/gplutil.o
 .rodata.str1.4
                0x000000000000c170       0x2c /usr1/xuhui/DT-W724V-20140311/output/package/atp/libraries/opensrc/gplutil/gplmsg.o
                                         0x30 (size before relaxing)
 .rodata.str1.4
                0x000000000000c19c      0x2b8 /usr1/xuhui/DT-W724V-20140311/output/package/atp/libraries/opensrc/gplutil/bget.o
 *fill*         0x000000000000c454        0xc 00
 .rodata        0x000000000000c460       0x30 /usr1/xuhui/DT-W724V-20140311/output/package/atp/libraries/opensrc/gplutil/bget.o
 .rodata.str1.4
                0x000000000000c490        0x6 /usr1/xuhui/DT-W724V-20140311/output/package/atp/libraries/opensrc/gplutil/gplshmem.o
                                          0xc (size before relaxing)
 *fill*         0x000000000000c496        0x2 00
 .rodata.str1.4
                0x000000000000c498       0x7d /usr1/xuhui/DT-W724V-20140311/output/package/atp/libraries/opensrc/gplutil/procutil.o
                                         0x8c (size before relaxing)
 *fill*         0x000000000000c515        0x3 00
 .rodata.str1.4
                0x000000000000c518       0x54 /usr1/xuhui/DT-W724V-20140311/output/package/atp/libraries/opensrc/gplutil/loginctl.o
                                         0x5c (size before relaxing)

.rodata1
 *(.rodata1)

.eh_frame_hdr   0x000000000000c56c        0x0
 *(.eh_frame_hdr)
 .eh_frame_hdr  0x0000000000000000        0x0 /usr1/xuhui/DT-W724V-20140311/output/host/usr/mips-unknown-linux-uclibc/sysroot/usr/lib/crtn.o

.eh_frame       0x000000000000c56c        0x4
 *(.eh_frame)
 .eh_frame      0x000000000000c56c        0x0 /opt/toolchains/crosstools-mips-gcc-4.6-linux-3.4-uclibc-0.9.32-binutils-2.21/usr/lib/gcc/mips-unknown-linux-uclibc/4.6.2/crtbeginS.o
 .eh_frame      0x000000000000c56c        0x4 /opt/toolchains/crosstools-mips-gcc-4.6-linux-3.4-uclibc-0.9.32-binutils-2.21/usr/lib/gcc/mips-unknown-linux-uclibc/4.6.2/crtendS.o

.gcc_except_table
 *(.gcc_except_table .gcc_except_table.*)
                0x000000000000c570                . = (ALIGN (0x10000) - ((0x10000 - .) & 0xffff))
                0x000000000001d000                . = DATA_SEGMENT_ALIGN (0x10000, 0x1000)

.eh_frame
 *(.eh_frame)

.gcc_except_table
 *(.gcc_except_table .gcc_except_table.*)

.tdata
 *(.tdata .tdata.* .gnu.linkonce.td.*)

.tbss
 *(.tbss .tbss.* .gnu.linkonce.tb.*)
 *(.tcommon)

.preinit_array
 *(.preinit_array)

.init_array
 *(SORT(.init_array.*))
 *(.init_array)

.fini_array
 *(SORT(.fini_array.*))
 *(.fini_array)

.ctors          0x000000000001d000        0x8
 *crtbegin.o(.ctors)
 *crtbegin?.o(.ctors)
 .ctors         0x000000000001d000        0x4 /opt/toolchains/crosstools-mips-gcc-4.6-linux-3.4-uclibc-0.9.32-binutils-2.21/usr/lib/gcc/mips-unknown-linux-uclibc/4.6.2/crtbeginS.o
 *(EXCLUDE_FILE(*crtend?.o *crtend.o) .ctors)
 *(SORT(.ctors.*))
 *(.ctors)
 .ctors         0x000000000001d004        0x4 /opt/toolchains/crosstools-mips-gcc-4.6-linux-3.4-uclibc-0.9.32-binutils-2.21/usr/lib/gcc/mips-unknown-linux-uclibc/4.6.2/crtendS.o

.dtors          0x000000000001d008        0x8
 *crtbegin.o(.dtors)
 *crtbegin?.o(.dtors)
 .dtors         0x000000000001d008        0x4 /opt/toolchains/crosstools-mips-gcc-4.6-linux-3.4-uclibc-0.9.32-binutils-2.21/usr/lib/gcc/mips-unknown-linux-uclibc/4.6.2/crtbeginS.o
 *(EXCLUDE_FILE(*crtend?.o *crtend.o) .dtors)
 *(SORT(.dtors.*))
 *(.dtors)
 .dtors         0x000000000001d00c        0x4 /opt/toolchains/crosstools-mips-gcc-4.6-linux-3.4-uclibc-0.9.32-binutils-2.21/usr/lib/gcc/mips-unknown-linux-uclibc/4.6.2/crtendS.o
                0x000000000001d00c                __DTOR_END__

.jcr            0x000000000001d010        0x4
 *(.jcr)
 .jcr           0x000000000001d010        0x0 /opt/toolchains/crosstools-mips-gcc-4.6-linux-3.4-uclibc-0.9.32-binutils-2.21/usr/lib/gcc/mips-unknown-linux-uclibc/4.6.2/crtbeginS.o
 .jcr           0x000000000001d010        0x4 /opt/toolchains/crosstools-mips-gcc-4.6-linux-3.4-uclibc-0.9.32-binutils-2.21/usr/lib/gcc/mips-unknown-linux-uclibc/4.6.2/crtendS.o

.data.rel.ro    0x000000000001d014       0x14
 *(.data.rel.ro.local* .gnu.linkonce.d.rel.ro.local.*)
 .data.rel.ro.local
                0x000000000001d014       0x14 /usr1/xuhui/DT-W724V-20140311/output/package/atp/libraries/opensrc/gplutil/procutil.o
 *(.data.rel.ro* .gnu.linkonce.d.rel.ro.*)
                0x000000000001d028                . = DATA_SEGMENT_RELRO_END (., 0x0)

.data           0x000000000001d030       0x30
                0x000000000001d030                _fdata = .
 *(.data .data.* .gnu.linkonce.d.*)
 .data          0x000000000001d030        0x0 /usr1/xuhui/DT-W724V-20140311/output/host/usr/mips-unknown-linux-uclibc/sysroot/usr/lib/crti.o
 .data          0x000000000001d030        0x0 /opt/toolchains/crosstools-mips-gcc-4.6-linux-3.4-uclibc-0.9.32-binutils-2.21/usr/lib/gcc/mips-unknown-linux-uclibc/4.6.2/crtbeginS.o
 .data          0x000000000001d030        0x0 /usr1/xuhui/DT-W724V-20140311/output/package/atp/libraries/opensrc/gplutil/gplutil.o
 .data          0x000000000001d030       0x30 /usr1/xuhui/DT-W724V-20140311/output/package/atp/libraries/opensrc/gplutil/gplmsg.o
                0x000000000001d030                g_bLogEnable
                0x000000000001d034                g_stMsgCtx
 .data          0x000000000001d060        0x0 /usr1/xuhui/DT-W724V-20140311/output/package/atp/libraries/opensrc/gplutil/bget.o
 .data          0x000000000001d060        0x0 /usr1/xuhui/DT-W724V-20140311/output/package/atp/libraries/opensrc/gplutil/gplshmem.o
 .data          0x000000000001d060        0x0 /usr1/xuhui/DT-W724V-20140311/output/package/atp/libraries/opensrc/gplutil/procutil.o
 .data          0x000000000001d060        0x0 /usr1/xuhui/DT-W724V-20140311/output/package/atp/libraries/opensrc/gplutil/loginctl.o
 .data          0x000000000001d060        0x0 /usr1/xuhui/DT-W724V-20140311/output/package/atp/libraries/opensrc/gplutil/atpmiclisten.o
 .data          0x000000000001d060        0x0 /usr1/xuhui/DT-W724V-20140311/output/package/atp/libraries/opensrc/gplutil/ifaddrs.o
 .data          0x000000000001d060        0x0 /opt/toolchains/crosstools-mips-gcc-4.6-linux-3.4-uclibc-0.9.32-binutils-2.21/usr/lib/gcc/mips-unknown-linux-uclibc/4.6.2/crtendS.o
 .data          0x000000000001d060        0x0 /usr1/xuhui/DT-W724V-20140311/output/host/usr/mips-unknown-linux-uclibc/sysroot/usr/lib/crtn.o

.data1
 *(.data1)

.got.plt        0x000000000001d060        0x0
 *(.got.plt)
 .got.plt       0x0000000000000000        0x0 /usr1/xuhui/DT-W724V-20140311/output/host/usr/mips-unknown-linux-uclibc/sysroot/usr/lib/crti.o
                0x000000000001d060                . = .
                0x0000000000025050                _gp = (ALIGN (0x10) + 0x7ff0)

.got            0x000000000001d060      0x1ec
 *(.got)
 .got           0x000000000001d060      0x1ec /usr1/xuhui/DT-W724V-20140311/output/host/usr/mips-unknown-linux-uclibc/sysroot/usr/lib/crti.o
                0x000000000001d060                _GLOBAL_OFFSET_TABLE_

.sdata          0x000000000001d24c        0x4
 *(.sdata2 .sdata2.* .gnu.linkonce.s2.*)
 *(.sdata .sdata.* .gnu.linkonce.s.*)
 .sdata         0x000000000001d24c        0x4 /opt/toolchains/crosstools-mips-gcc-4.6-linux-3.4-uclibc-0.9.32-binutils-2.21/usr/lib/gcc/mips-unknown-linux-uclibc/4.6.2/crtbeginS.o
                0x000000000001d24c                __dso_handle

.lit8
 *(.lit8)

.lit4
 *(.lit4)
                0x000000000001d250                _edata = .
                0x000000000001d250                PROVIDE (edata, .)
                0x000000000001d250                __bss_start = .
                0x000000000001d250                _fbss = .

.sbss
 *(.sbss2 .sbss2.* .gnu.linkonce.sb2.*)
 *(.dynsbss)
 *(.sbss .sbss.* .gnu.linkonce.sb.*)
 *(.scommon)

.bss            0x000000000001d250      0x9e0
 *(.dynbss)
 .dynbss        0x0000000000000000        0x0 /usr1/xuhui/DT-W724V-20140311/output/host/usr/mips-unknown-linux-uclibc/sysroot/usr/lib/crti.o
 *(.bss .bss.* .gnu.linkonce.b.*)
 .bss           0x000000000001d250        0x0 /usr1/xuhui/DT-W724V-20140311/output/host/usr/mips-unknown-linux-uclibc/sysroot/usr/lib/crti.o
 .bss           0x000000000001d250       0x20 /opt/toolchains/crosstools-mips-gcc-4.6-linux-3.4-uclibc-0.9.32-binutils-2.21/usr/lib/gcc/mips-unknown-linux-uclibc/4.6.2/crtbeginS.o
 .bss           0x000000000001d270      0x9b0 /usr1/xuhui/DT-W724V-20140311/output/package/atp/libraries/opensrc/gplutil/gplutil.o
 .bss           0x000000000001dc20       0x10 /usr1/xuhui/DT-W724V-20140311/output/package/atp/libraries/opensrc/gplutil/gplmsg.o
 .bss           0x000000000001dc30        0x0 /usr1/xuhui/DT-W724V-20140311/output/package/atp/libraries/opensrc/gplutil/bget.o
 .bss           0x000000000001dc30        0x0 /usr1/xuhui/DT-W724V-20140311/output/package/atp/libraries/opensrc/gplutil/gplshmem.o
 .bss           0x000000000001dc30        0x0 /usr1/xuhui/DT-W724V-20140311/output/package/atp/libraries/opensrc/gplutil/procutil.o
 .bss           0x000000000001dc30        0x0 /usr1/xuhui/DT-W724V-20140311/output/package/atp/libraries/opensrc/gplutil/loginctl.o
 .bss           0x000000000001dc30        0x0 /usr1/xuhui/DT-W724V-20140311/output/package/atp/libraries/opensrc/gplutil/atpmiclisten.o
 .bss           0x000000000001dc30        0x0 /usr1/xuhui/DT-W724V-20140311/output/package/atp/libraries/opensrc/gplutil/ifaddrs.o
 .bss           0x000000000001dc30        0x0 /opt/toolchains/crosstools-mips-gcc-4.6-linux-3.4-uclibc-0.9.32-binutils-2.21/usr/lib/gcc/mips-unknown-linux-uclibc/4.6.2/crtendS.o
 .bss           0x000000000001dc30        0x0 /usr1/xuhui/DT-W724V-20140311/output/host/usr/mips-unknown-linux-uclibc/sysroot/usr/lib/crtn.o
 *(COMMON)
                0x000000000001dc30                . = ALIGN ((. != 0x0)?0x4:0x1)
                0x000000000001dc30                . = ALIGN (0x4)
                0x000000000001dc30                . = ALIGN (0x4)
                0x000000000001dc30                _end = .
                0x000000000001dc30                PROVIDE (end, .)
                0x000000000001dc30                . = DATA_SEGMENT_END (.)

.stab
 *(.stab)

.stabstr
 *(.stabstr)

.stab.excl
 *(.stab.excl)

.stab.exclstr
 *(.stab.exclstr)

.stab.index
 *(.stab.index)

.stab.indexstr
 *(.stab.indexstr)

.pdr            0x0000000000000000      0xdc0
 .pdr           0x0000000000000000       0x40 /usr1/xuhui/DT-W724V-20140311/output/host/usr/mips-unknown-linux-uclibc/sysroot/usr/lib/crti.o
 .pdr           0x0000000000000040        0x0 /opt/toolchains/crosstools-mips-gcc-4.6-linux-3.4-uclibc-0.9.32-binutils-2.21/usr/lib/gcc/mips-unknown-linux-uclibc/4.6.2/crtbeginS.o
 .pdr           0x0000000000000040      0x480 /usr1/xuhui/DT-W724V-20140311/output/package/atp/libraries/opensrc/gplutil/gplutil.o
 .pdr           0x00000000000004c0      0x380 /usr1/xuhui/DT-W724V-20140311/output/package/atp/libraries/opensrc/gplutil/gplmsg.o
 .pdr           0x0000000000000840       0xc0 /usr1/xuhui/DT-W724V-20140311/output/package/atp/libraries/opensrc/gplutil/bget.o
 .pdr           0x0000000000000900      0x160 /usr1/xuhui/DT-W724V-20140311/output/package/atp/libraries/opensrc/gplutil/gplshmem.o
 .pdr           0x0000000000000a60      0x100 /usr1/xuhui/DT-W724V-20140311/output/package/atp/libraries/opensrc/gplutil/procutil.o
 .pdr           0x0000000000000b60       0xc0 /usr1/xuhui/DT-W724V-20140311/output/package/atp/libraries/opensrc/gplutil/loginctl.o
 .pdr           0x0000000000000c20       0x60 /usr1/xuhui/DT-W724V-20140311/output/package/atp/libraries/opensrc/gplutil/atpmiclisten.o
 .pdr           0x0000000000000c80      0x100 /usr1/xuhui/DT-W724V-20140311/output/package/atp/libraries/opensrc/gplutil/ifaddrs.o
 .pdr           0x0000000000000d80        0x0 /opt/toolchains/crosstools-mips-gcc-4.6-linux-3.4-uclibc-0.9.32-binutils-2.21/usr/lib/gcc/mips-unknown-linux-uclibc/4.6.2/crtendS.o
 .pdr           0x0000000000000d80       0x40 /usr1/xuhui/DT-W724V-20140311/output/host/usr/mips-unknown-linux-uclibc/sysroot/usr/lib/crtn.o

.comment        0x0000000000000000       0x30
 *(.comment)
 .comment       0x0000000000000000       0x11 /usr1/xuhui/DT-W724V-20140311/output/host/usr/mips-unknown-linux-uclibc/sysroot/usr/lib/crti.o
                                         0x12 (size before relaxing)
 .comment       0x0000000000000011       0x1f /opt/toolchains/crosstools-mips-gcc-4.6-linux-3.4-uclibc-0.9.32-binutils-2.21/usr/lib/gcc/mips-unknown-linux-uclibc/4.6.2/crtbeginS.o
                                         0x20 (size before relaxing)
 .comment       0x0000000000000000       0x20 /usr1/xuhui/DT-W724V-20140311/output/package/atp/libraries/opensrc/gplutil/gplutil.o
 .comment       0x0000000000000000       0x20 /usr1/xuhui/DT-W724V-20140311/output/package/atp/libraries/opensrc/gplutil/gplmsg.o
 .comment       0x0000000000000000       0x20 /usr1/xuhui/DT-W724V-20140311/output/package/atp/libraries/opensrc/gplutil/bget.o
 .comment       0x0000000000000000       0x20 /usr1/xuhui/DT-W724V-20140311/output/package/atp/libraries/opensrc/gplutil/gplshmem.o
 .comment       0x0000000000000000       0x20 /usr1/xuhui/DT-W724V-20140311/output/package/atp/libraries/opensrc/gplutil/procutil.o
 .comment       0x0000000000000000       0x20 /usr1/xuhui/DT-W724V-20140311/output/package/atp/libraries/opensrc/gplutil/loginctl.o
 .comment       0x0000000000000000       0x20 /usr1/xuhui/DT-W724V-20140311/output/package/atp/libraries/opensrc/gplutil/atpmiclisten.o
 .comment       0x0000000000000000       0x20 /usr1/xuhui/DT-W724V-20140311/output/package/atp/libraries/opensrc/gplutil/ifaddrs.o
 .comment       0x0000000000000000       0x20 /opt/toolchains/crosstools-mips-gcc-4.6-linux-3.4-uclibc-0.9.32-binutils-2.21/usr/lib/gcc/mips-unknown-linux-uclibc/4.6.2/crtendS.o
 .comment       0x0000000000000000       0x12 /usr1/xuhui/DT-W724V-20140311/output/host/usr/mips-unknown-linux-uclibc/sysroot/usr/lib/crtn.o

.debug
 *(.debug)

.line
 *(.line)

.debug_srcinfo
 *(.debug_srcinfo .zdebug_srcinfo)

.debug_sfnames
 *(.debug_sfnames .zdebug_sfnames)

.debug_aranges
 *(.debug_aranges .zdebug_aranges)

.debug_pubnames
 *(.debug_pubnames .zdebug_pubnames)

.debug_info
 *(.debug_info .gnu.linkonce.wi.* .zdebug_info)

.debug_abbrev
 *(.debug_abbrev .zdebug_abbrev)

.debug_line
 *(.debug_line .zdebug_line)

.debug_frame
 *(.debug_frame .zdebug_frame)

.debug_str
 *(.debug_str .zdebug_str)

.debug_loc
 *(.debug_loc .zdebug_loc)

.debug_macinfo
 *(.debug_macinfo .zdebug_macinfo)

.debug_weaknames
 *(.debug_weaknames .zdebug_weaknames)

.debug_funcnames
 *(.debug_funcnames .zdebug_funcnames)

.debug_typenames
 *(.debug_typenames .zdebug_typenames)

.debug_varnames
 *(.debug_varnames .zdebug_varnames)

.debug_pubtypes
 *(.debug_pubtypes .zdebug_pubtypes)

.debug_ranges
 *(.debug_ranges .zdebug_ranges)

.gnu.attributes
                0x0000000000000000       0x10
 *(.gnu.attributes)
 .gnu.attributes
                0x0000000000000000       0x10 /opt/toolchains/crosstools-mips-gcc-4.6-linux-3.4-uclibc-0.9.32-binutils-2.21/usr/lib/gcc/mips-unknown-linux-uclibc/4.6.2/crtbeginS.o
 .gnu.attributes
                0x0000000000000010       0x10 /usr1/xuhui/DT-W724V-20140311/output/package/atp/libraries/opensrc/gplutil/gplutil.o
 .gnu.attributes
                0x0000000000000020       0x10 /usr1/xuhui/DT-W724V-20140311/output/package/atp/libraries/opensrc/gplutil/gplmsg.o
 .gnu.attributes
                0x0000000000000030       0x10 /usr1/xuhui/DT-W724V-20140311/output/package/atp/libraries/opensrc/gplutil/bget.o
 .gnu.attributes
                0x0000000000000040       0x10 /usr1/xuhui/DT-W724V-20140311/output/package/atp/libraries/opensrc/gplutil/gplshmem.o
 .gnu.attributes
                0x0000000000000050       0x10 /usr1/xuhui/DT-W724V-20140311/output/package/atp/libraries/opensrc/gplutil/procutil.o
 .gnu.attributes
                0x0000000000000060       0x10 /usr1/xuhui/DT-W724V-20140311/output/package/atp/libraries/opensrc/gplutil/loginctl.o
 .gnu.attributes
                0x0000000000000070       0x10 /usr1/xuhui/DT-W724V-20140311/output/package/atp/libraries/opensrc/gplutil/atpmiclisten.o
 .gnu.attributes
                0x0000000000000080       0x10 /usr1/xuhui/DT-W724V-20140311/output/package/atp/libraries/opensrc/gplutil/ifaddrs.o
 .gnu.attributes
                0x0000000000000090       0x10 /opt/toolchains/crosstools-mips-gcc-4.6-linux-3.4-uclibc-0.9.32-binutils-2.21/usr/lib/gcc/mips-unknown-linux-uclibc/4.6.2/crtendS.o

.gptab.sdata
 *(.gptab.data)
 *(.gptab.sdata)

.gptab.sbss
 *(.gptab.bss)
 *(.gptab.sbss)

.mdebug.abi32   0x000000000001dc30        0x0
 *(.mdebug.abi32)
 .mdebug.abi32  0x000000000001dc30        0x0 /usr1/xuhui/DT-W724V-20140311/output/host/usr/mips-unknown-linux-uclibc/sysroot/usr/lib/crti.o
 .mdebug.abi32  0x000000000001dc30        0x0 /opt/toolchains/crosstools-mips-gcc-4.6-linux-3.4-uclibc-0.9.32-binutils-2.21/usr/lib/gcc/mips-unknown-linux-uclibc/4.6.2/crtbeginS.o
 .mdebug.abi32  0x000000000001dc30        0x0 /usr1/xuhui/DT-W724V-20140311/output/package/atp/libraries/opensrc/gplutil/gplutil.o
 .mdebug.abi32  0x000000000001dc30        0x0 /usr1/xuhui/DT-W724V-20140311/output/package/atp/libraries/opensrc/gplutil/gplmsg.o
 .mdebug.abi32  0x000000000001dc30        0x0 /usr1/xuhui/DT-W724V-20140311/output/package/atp/libraries/opensrc/gplutil/bget.o
 .mdebug.abi32  0x000000000001dc30        0x0 /usr1/xuhui/DT-W724V-20140311/output/package/atp/libraries/opensrc/gplutil/gplshmem.o
 .mdebug.abi32  0x000000000001dc30        0x0 /usr1/xuhui/DT-W724V-20140311/output/package/atp/libraries/opensrc/gplutil/procutil.o
 .mdebug.abi32  0x000000000001dc30        0x0 /usr1/xuhui/DT-W724V-20140311/output/package/atp/libraries/opensrc/gplutil/loginctl.o
 .mdebug.abi32  0x000000000001dc30        0x0 /usr1/xuhui/DT-W724V-20140311/output/package/atp/libraries/opensrc/gplutil/atpmiclisten.o
 .mdebug.abi32  0x000000000001dc30        0x0 /usr1/xuhui/DT-W724V-20140311/output/package/atp/libraries/opensrc/gplutil/ifaddrs.o
 .mdebug.abi32  0x000000000001dc30        0x0 /opt/toolchains/crosstools-mips-gcc-4.6-linux-3.4-uclibc-0.9.32-binutils-2.21/usr/lib/gcc/mips-unknown-linux-uclibc/4.6.2/crtendS.o
 .mdebug.abi32  0x000000000001dc30        0x0 /usr1/xuhui/DT-W724V-20140311/output/host/usr/mips-unknown-linux-uclibc/sysroot/usr/lib/crtn.o

.mdebug.abiN32
 *(.mdebug.abiN32)

.mdebug.abi64
 *(.mdebug.abi64)

.mdebug.abiO64
 *(.mdebug.abiO64)

.mdebug.eabi32
 *(.mdebug.eabi32)

.mdebug.eabi64
 *(.mdebug.eabi64)

.gcc_compiled_long32
 *(.gcc_compiled_long32)

.gcc_compiled_long64
 *(.gcc_compiled_long64)

/DISCARD/
 *(.note.GNU-stack)
 *(.gnu_debuglink)
 *(.gnu.lto_*)
OUTPUT(/usr1/xuhui/DT-W724V-20140311/output/package/atp/libraries/opensrc/gplutil/libgplutil.so elf32-tradbigmips)
